
STM32_Software.elf:     file format elf32-littlearm

Sections:
Idx Name          Size      VMA       LMA       File off  Algn
  0 .isr_vector   000000c0  08000000  08000000  00010000  2**0
                  CONTENTS, ALLOC, LOAD, READONLY, DATA
  1 .text         00008420  080000c0  080000c0  000100c0  2**2
                  CONTENTS, ALLOC, LOAD, READONLY, CODE
  2 .rodata       00005070  080084e0  080084e0  000184e0  2**2
                  CONTENTS, ALLOC, LOAD, READONLY, DATA
  3 .ARM.extab    00000000  0800d550  0800d550  00020020  2**0
                  CONTENTS
  4 .ARM          00000000  0800d550  0800d550  00020020  2**0
                  CONTENTS
  5 .preinit_array 00000000  0800d550  0800d550  00020020  2**0
                  CONTENTS, ALLOC, LOAD, DATA
  6 .init_array   00000004  0800d550  0800d550  0001d550  2**2
                  CONTENTS, ALLOC, LOAD, DATA
  7 .fini_array   00000004  0800d554  0800d554  0001d554  2**2
                  CONTENTS, ALLOC, LOAD, DATA
  8 .data         00000020  20000000  0800d558  00020000  2**2
                  CONTENTS, ALLOC, LOAD, DATA
  9 .bss          000006a0  20000020  0800d578  00020020  2**2
                  ALLOC
 10 ._user_heap_stack 00000600  200006c0  0800d578  000206c0  2**0
                  ALLOC
 11 .ARM.attributes 00000028  00000000  00000000  00020020  2**0
                  CONTENTS, READONLY
 12 .debug_line   0001387b  00000000  00000000  00020048  2**0
                  CONTENTS, READONLY, DEBUGGING
 13 .debug_info   0001565f  00000000  00000000  000338c3  2**0
                  CONTENTS, READONLY, DEBUGGING
 14 .debug_abbrev 00003485  00000000  00000000  00048f22  2**0
                  CONTENTS, READONLY, DEBUGGING
 15 .debug_aranges 00001358  00000000  00000000  0004c3a8  2**3
                  CONTENTS, READONLY, DEBUGGING
 16 .debug_str    0005674b  00000000  00000000  0004d700  2**0
                  CONTENTS, READONLY, DEBUGGING
 17 .debug_ranges 00001160  00000000  00000000  000a3e50  2**3
                  CONTENTS, READONLY, DEBUGGING
 18 .debug_macro  00010ae2  00000000  00000000  000a4fb0  2**0
                  CONTENTS, READONLY, DEBUGGING
 19 .comment      0000007b  00000000  00000000  000b5a92  2**0
                  CONTENTS, READONLY
 20 .debug_frame  000043c0  00000000  00000000  000b5b10  2**2
                  CONTENTS, READONLY, DEBUGGING

Disassembly of section .text:

080000c0 <__do_global_dtors_aux>:
 80000c0:	b510      	push	{r4, lr}
 80000c2:	4c06      	ldr	r4, [pc, #24]	; (80000dc <__do_global_dtors_aux+0x1c>)
 80000c4:	7823      	ldrb	r3, [r4, #0]
 80000c6:	2b00      	cmp	r3, #0
 80000c8:	d107      	bne.n	80000da <__do_global_dtors_aux+0x1a>
 80000ca:	4b05      	ldr	r3, [pc, #20]	; (80000e0 <__do_global_dtors_aux+0x20>)
 80000cc:	2b00      	cmp	r3, #0
 80000ce:	d002      	beq.n	80000d6 <__do_global_dtors_aux+0x16>
 80000d0:	4804      	ldr	r0, [pc, #16]	; (80000e4 <__do_global_dtors_aux+0x24>)
 80000d2:	e000      	b.n	80000d6 <__do_global_dtors_aux+0x16>
 80000d4:	bf00      	nop
 80000d6:	2301      	movs	r3, #1
 80000d8:	7023      	strb	r3, [r4, #0]
 80000da:	bd10      	pop	{r4, pc}
 80000dc:	20000020 	.word	0x20000020
 80000e0:	00000000 	.word	0x00000000
 80000e4:	080084c8 	.word	0x080084c8

080000e8 <frame_dummy>:
 80000e8:	4b04      	ldr	r3, [pc, #16]	; (80000fc <frame_dummy+0x14>)
 80000ea:	b510      	push	{r4, lr}
 80000ec:	2b00      	cmp	r3, #0
 80000ee:	d003      	beq.n	80000f8 <frame_dummy+0x10>
 80000f0:	4903      	ldr	r1, [pc, #12]	; (8000100 <frame_dummy+0x18>)
 80000f2:	4804      	ldr	r0, [pc, #16]	; (8000104 <frame_dummy+0x1c>)
 80000f4:	e000      	b.n	80000f8 <frame_dummy+0x10>
 80000f6:	bf00      	nop
 80000f8:	bd10      	pop	{r4, pc}
 80000fa:	46c0      	nop			; (mov r8, r8)
 80000fc:	00000000 	.word	0x00000000
 8000100:	20000024 	.word	0x20000024
 8000104:	080084c8 	.word	0x080084c8

08000108 <__udivsi3>:
 8000108:	2200      	movs	r2, #0
 800010a:	0843      	lsrs	r3, r0, #1
 800010c:	428b      	cmp	r3, r1
 800010e:	d374      	bcc.n	80001fa <__udivsi3+0xf2>
 8000110:	0903      	lsrs	r3, r0, #4
 8000112:	428b      	cmp	r3, r1
 8000114:	d35f      	bcc.n	80001d6 <__udivsi3+0xce>
 8000116:	0a03      	lsrs	r3, r0, #8
 8000118:	428b      	cmp	r3, r1
 800011a:	d344      	bcc.n	80001a6 <__udivsi3+0x9e>
 800011c:	0b03      	lsrs	r3, r0, #12
 800011e:	428b      	cmp	r3, r1
 8000120:	d328      	bcc.n	8000174 <__udivsi3+0x6c>
 8000122:	0c03      	lsrs	r3, r0, #16
 8000124:	428b      	cmp	r3, r1
 8000126:	d30d      	bcc.n	8000144 <__udivsi3+0x3c>
 8000128:	22ff      	movs	r2, #255	; 0xff
 800012a:	0209      	lsls	r1, r1, #8
 800012c:	ba12      	rev	r2, r2
 800012e:	0c03      	lsrs	r3, r0, #16
 8000130:	428b      	cmp	r3, r1
 8000132:	d302      	bcc.n	800013a <__udivsi3+0x32>
 8000134:	1212      	asrs	r2, r2, #8
 8000136:	0209      	lsls	r1, r1, #8
 8000138:	d065      	beq.n	8000206 <__udivsi3+0xfe>
 800013a:	0b03      	lsrs	r3, r0, #12
 800013c:	428b      	cmp	r3, r1
 800013e:	d319      	bcc.n	8000174 <__udivsi3+0x6c>
 8000140:	e000      	b.n	8000144 <__udivsi3+0x3c>
 8000142:	0a09      	lsrs	r1, r1, #8
 8000144:	0bc3      	lsrs	r3, r0, #15
 8000146:	428b      	cmp	r3, r1
 8000148:	d301      	bcc.n	800014e <__udivsi3+0x46>
 800014a:	03cb      	lsls	r3, r1, #15
 800014c:	1ac0      	subs	r0, r0, r3
 800014e:	4152      	adcs	r2, r2
 8000150:	0b83      	lsrs	r3, r0, #14
 8000152:	428b      	cmp	r3, r1
 8000154:	d301      	bcc.n	800015a <__udivsi3+0x52>
 8000156:	038b      	lsls	r3, r1, #14
 8000158:	1ac0      	subs	r0, r0, r3
 800015a:	4152      	adcs	r2, r2
 800015c:	0b43      	lsrs	r3, r0, #13
 800015e:	428b      	cmp	r3, r1
 8000160:	d301      	bcc.n	8000166 <__udivsi3+0x5e>
 8000162:	034b      	lsls	r3, r1, #13
 8000164:	1ac0      	subs	r0, r0, r3
 8000166:	4152      	adcs	r2, r2
 8000168:	0b03      	lsrs	r3, r0, #12
 800016a:	428b      	cmp	r3, r1
 800016c:	d301      	bcc.n	8000172 <__udivsi3+0x6a>
 800016e:	030b      	lsls	r3, r1, #12
 8000170:	1ac0      	subs	r0, r0, r3
 8000172:	4152      	adcs	r2, r2
 8000174:	0ac3      	lsrs	r3, r0, #11
 8000176:	428b      	cmp	r3, r1
 8000178:	d301      	bcc.n	800017e <__udivsi3+0x76>
 800017a:	02cb      	lsls	r3, r1, #11
 800017c:	1ac0      	subs	r0, r0, r3
 800017e:	4152      	adcs	r2, r2
 8000180:	0a83      	lsrs	r3, r0, #10
 8000182:	428b      	cmp	r3, r1
 8000184:	d301      	bcc.n	800018a <__udivsi3+0x82>
 8000186:	028b      	lsls	r3, r1, #10
 8000188:	1ac0      	subs	r0, r0, r3
 800018a:	4152      	adcs	r2, r2
 800018c:	0a43      	lsrs	r3, r0, #9
 800018e:	428b      	cmp	r3, r1
 8000190:	d301      	bcc.n	8000196 <__udivsi3+0x8e>
 8000192:	024b      	lsls	r3, r1, #9
 8000194:	1ac0      	subs	r0, r0, r3
 8000196:	4152      	adcs	r2, r2
 8000198:	0a03      	lsrs	r3, r0, #8
 800019a:	428b      	cmp	r3, r1
 800019c:	d301      	bcc.n	80001a2 <__udivsi3+0x9a>
 800019e:	020b      	lsls	r3, r1, #8
 80001a0:	1ac0      	subs	r0, r0, r3
 80001a2:	4152      	adcs	r2, r2
 80001a4:	d2cd      	bcs.n	8000142 <__udivsi3+0x3a>
 80001a6:	09c3      	lsrs	r3, r0, #7
 80001a8:	428b      	cmp	r3, r1
 80001aa:	d301      	bcc.n	80001b0 <__udivsi3+0xa8>
 80001ac:	01cb      	lsls	r3, r1, #7
 80001ae:	1ac0      	subs	r0, r0, r3
 80001b0:	4152      	adcs	r2, r2
 80001b2:	0983      	lsrs	r3, r0, #6
 80001b4:	428b      	cmp	r3, r1
 80001b6:	d301      	bcc.n	80001bc <__udivsi3+0xb4>
 80001b8:	018b      	lsls	r3, r1, #6
 80001ba:	1ac0      	subs	r0, r0, r3
 80001bc:	4152      	adcs	r2, r2
 80001be:	0943      	lsrs	r3, r0, #5
 80001c0:	428b      	cmp	r3, r1
 80001c2:	d301      	bcc.n	80001c8 <__udivsi3+0xc0>
 80001c4:	014b      	lsls	r3, r1, #5
 80001c6:	1ac0      	subs	r0, r0, r3
 80001c8:	4152      	adcs	r2, r2
 80001ca:	0903      	lsrs	r3, r0, #4
 80001cc:	428b      	cmp	r3, r1
 80001ce:	d301      	bcc.n	80001d4 <__udivsi3+0xcc>
 80001d0:	010b      	lsls	r3, r1, #4
 80001d2:	1ac0      	subs	r0, r0, r3
 80001d4:	4152      	adcs	r2, r2
 80001d6:	08c3      	lsrs	r3, r0, #3
 80001d8:	428b      	cmp	r3, r1
 80001da:	d301      	bcc.n	80001e0 <__udivsi3+0xd8>
 80001dc:	00cb      	lsls	r3, r1, #3
 80001de:	1ac0      	subs	r0, r0, r3
 80001e0:	4152      	adcs	r2, r2
 80001e2:	0883      	lsrs	r3, r0, #2
 80001e4:	428b      	cmp	r3, r1
 80001e6:	d301      	bcc.n	80001ec <__udivsi3+0xe4>
 80001e8:	008b      	lsls	r3, r1, #2
 80001ea:	1ac0      	subs	r0, r0, r3
 80001ec:	4152      	adcs	r2, r2
 80001ee:	0843      	lsrs	r3, r0, #1
 80001f0:	428b      	cmp	r3, r1
 80001f2:	d301      	bcc.n	80001f8 <__udivsi3+0xf0>
 80001f4:	004b      	lsls	r3, r1, #1
 80001f6:	1ac0      	subs	r0, r0, r3
 80001f8:	4152      	adcs	r2, r2
 80001fa:	1a41      	subs	r1, r0, r1
 80001fc:	d200      	bcs.n	8000200 <__udivsi3+0xf8>
 80001fe:	4601      	mov	r1, r0
 8000200:	4152      	adcs	r2, r2
 8000202:	4610      	mov	r0, r2
 8000204:	4770      	bx	lr
 8000206:	e7ff      	b.n	8000208 <__udivsi3+0x100>
 8000208:	b501      	push	{r0, lr}
 800020a:	2000      	movs	r0, #0
 800020c:	f000 f806 	bl	800021c <__aeabi_idiv0>
 8000210:	bd02      	pop	{r1, pc}
 8000212:	46c0      	nop			; (mov r8, r8)

08000214 <__aeabi_uidivmod>:
 8000214:	2900      	cmp	r1, #0
 8000216:	d0f7      	beq.n	8000208 <__udivsi3+0x100>
 8000218:	e776      	b.n	8000108 <__udivsi3>
 800021a:	4770      	bx	lr

0800021c <__aeabi_idiv0>:
 800021c:	4770      	bx	lr
 800021e:	46c0      	nop			; (mov r8, r8)

08000220 <Reset_Handler>:

  .section .text.Reset_Handler
  .weak Reset_Handler
  .type Reset_Handler, %function
Reset_Handler:
  ldr   r0, =_estack
 8000220:	480d      	ldr	r0, [pc, #52]	; (8000258 <LoopForever+0x2>)
  mov   sp, r0          /* set stack pointer */
 8000222:	4685      	mov	sp, r0

/* Copy the data segment initializers from flash to SRAM */
  ldr r0, =_sdata
 8000224:	480d      	ldr	r0, [pc, #52]	; (800025c <LoopForever+0x6>)
  ldr r1, =_edata
 8000226:	490e      	ldr	r1, [pc, #56]	; (8000260 <LoopForever+0xa>)
  ldr r2, =_sidata
 8000228:	4a0e      	ldr	r2, [pc, #56]	; (8000264 <LoopForever+0xe>)
  movs r3, #0
 800022a:	2300      	movs	r3, #0
  b LoopCopyDataInit
 800022c:	e002      	b.n	8000234 <LoopCopyDataInit>

0800022e <CopyDataInit>:

CopyDataInit:
  ldr r4, [r2, r3]
 800022e:	58d4      	ldr	r4, [r2, r3]
  str r4, [r0, r3]
 8000230:	50c4      	str	r4, [r0, r3]
  adds r3, r3, #4
 8000232:	3304      	adds	r3, #4

08000234 <LoopCopyDataInit>:

LoopCopyDataInit:
  adds r4, r0, r3
 8000234:	18c4      	adds	r4, r0, r3
  cmp r4, r1
 8000236:	428c      	cmp	r4, r1
  bcc CopyDataInit
 8000238:	d3f9      	bcc.n	800022e <CopyDataInit>
  
/* Zero fill the bss segment. */
  ldr r2, =_sbss
 800023a:	4a0b      	ldr	r2, [pc, #44]	; (8000268 <LoopForever+0x12>)
  ldr r4, =_ebss
 800023c:	4c0b      	ldr	r4, [pc, #44]	; (800026c <LoopForever+0x16>)
  movs r3, #0
 800023e:	2300      	movs	r3, #0
  b LoopFillZerobss
 8000240:	e001      	b.n	8000246 <LoopFillZerobss>

08000242 <FillZerobss>:

FillZerobss:
  str  r3, [r2]
 8000242:	6013      	str	r3, [r2, #0]
  adds r2, r2, #4
 8000244:	3204      	adds	r2, #4

08000246 <LoopFillZerobss>:

LoopFillZerobss:
  cmp r2, r4
 8000246:	42a2      	cmp	r2, r4
  bcc FillZerobss
 8000248:	d3fb      	bcc.n	8000242 <FillZerobss>

/* Call the clock system intitialization function.*/
  bl  SystemInit
 800024a:	f004 f965 	bl	8004518 <SystemInit>
/* Call static constructors */
  bl __libc_init_array
 800024e:	f008 f8b7 	bl	80083c0 <__libc_init_array>
/* Call the application's entry point.*/
  bl main
 8000252:	f001 fc99 	bl	8001b88 <main>

08000256 <LoopForever>:

LoopForever:
    b LoopForever
 8000256:	e7fe      	b.n	8000256 <LoopForever>
  ldr   r0, =_estack
 8000258:	20002000 	.word	0x20002000
  ldr r0, =_sdata
 800025c:	20000000 	.word	0x20000000
  ldr r1, =_edata
 8000260:	20000020 	.word	0x20000020
  ldr r2, =_sidata
 8000264:	0800d558 	.word	0x0800d558
  ldr r2, =_sbss
 8000268:	20000020 	.word	0x20000020
  ldr r4, =_ebss
 800026c:	200006c0 	.word	0x200006c0

08000270 <DMA1_Channel1_IRQHandler>:
 * @retval : None
*/
    .section .text.Default_Handler,"ax",%progbits
Default_Handler:
Infinite_Loop:
  b Infinite_Loop
 8000270:	e7fe      	b.n	8000270 <DMA1_Channel1_IRQHandler>
	...

08000274 <ah_draw_time>:
//=================================================

// Home screen actions
//------------------------------------
void ah_draw_time()
{  
 8000274:	b580      	push	{r7, lr}
 8000276:	b082      	sub	sp, #8
 8000278:	af00      	add	r7, sp, #0
    uint8_t fhd = 1;
 800027a:	1dfb      	adds	r3, r7, #7
 800027c:	2201      	movs	r2, #1
 800027e:	701a      	strb	r2, [r3, #0]
    uint8_t shd = 1;
 8000280:	1dbb      	adds	r3, r7, #6
 8000282:	2201      	movs	r2, #1
 8000284:	701a      	strb	r2, [r3, #0]
    uint8_t fmd = 2;
 8000286:	1d7b      	adds	r3, r7, #5
 8000288:	2202      	movs	r2, #2
 800028a:	701a      	strb	r2, [r3, #0]
    uint8_t smd = 3;
 800028c:	1d3b      	adds	r3, r7, #4
 800028e:	2203      	movs	r2, #3
 8000290:	701a      	strb	r2, [r3, #0]
    
    // GET TIME FROM RTC, safe time in given variables or change
    
    st7565_drawfhd(fhd, LCD_Buffer);
 8000292:	4a14      	ldr	r2, [pc, #80]	; (80002e4 <ah_draw_time+0x70>)
 8000294:	1dfb      	adds	r3, r7, #7
 8000296:	781b      	ldrb	r3, [r3, #0]
 8000298:	0011      	movs	r1, r2
 800029a:	0018      	movs	r0, r3
 800029c:	f000 fe92 	bl	8000fc4 <st7565_drawfhd>
    st7565_drawshd(shd, LCD_Buffer);
 80002a0:	4a10      	ldr	r2, [pc, #64]	; (80002e4 <ah_draw_time+0x70>)
 80002a2:	1dbb      	adds	r3, r7, #6
 80002a4:	781b      	ldrb	r3, [r3, #0]
 80002a6:	0011      	movs	r1, r2
 80002a8:	0018      	movs	r0, r3
 80002aa:	f000 fecf 	bl	800104c <st7565_drawshd>
    st7565_drawdts(LCD_Buffer);
 80002ae:	4b0d      	ldr	r3, [pc, #52]	; (80002e4 <ah_draw_time+0x70>)
 80002b0:	0018      	movs	r0, r3
 80002b2:	f000 ff83 	bl	80011bc <st7565_drawdts>
    st7565_drawfmd(fmd, LCD_Buffer);
 80002b6:	4a0b      	ldr	r2, [pc, #44]	; (80002e4 <ah_draw_time+0x70>)
 80002b8:	1d7b      	adds	r3, r7, #5
 80002ba:	781b      	ldrb	r3, [r3, #0]
 80002bc:	0011      	movs	r1, r2
 80002be:	0018      	movs	r0, r3
 80002c0:	f000 ff94 	bl	80011ec <st7565_drawfmd>
    st7565_drawsmd(smd, LCD_Buffer);
 80002c4:	4a07      	ldr	r2, [pc, #28]	; (80002e4 <ah_draw_time+0x70>)
 80002c6:	1d3b      	adds	r3, r7, #4
 80002c8:	781b      	ldrb	r3, [r3, #0]
 80002ca:	0011      	movs	r1, r2
 80002cc:	0018      	movs	r0, r3
 80002ce:	f001 f803 	bl	80012d8 <st7565_drawsmd>
	st7565_write_buffer(LCD_Buffer);
 80002d2:	4b04      	ldr	r3, [pc, #16]	; (80002e4 <ah_draw_time+0x70>)
 80002d4:	0018      	movs	r0, r3
 80002d6:	f000 fba3 	bl	8000a20 <st7565_write_buffer>

}    
 80002da:	46c0      	nop			; (mov r8, r8)
 80002dc:	46bd      	mov	sp, r7
 80002de:	b002      	add	sp, #8
 80002e0:	bd80      	pop	{r7, pc}
 80002e2:	46c0      	nop			; (mov r8, r8)
 80002e4:	200000d8 	.word	0x200000d8

080002e8 <ah_draw_date>:

void ah_draw_date()
{
 80002e8:	b580      	push	{r7, lr}
 80002ea:	af00      	add	r7, sp, #0
    //void st7565_drawdate(LCD_Buffer);
}
 80002ec:	46c0      	nop			; (mov r8, r8)
 80002ee:	46bd      	mov	sp, r7
 80002f0:	bd80      	pop	{r7, pc}
	...

080002f4 <ah_set_time>:

void ah_set_time(uint8_t set_hour,uint8_t set_min)
{
 80002f4:	b590      	push	{r4, r7, lr}
 80002f6:	b089      	sub	sp, #36	; 0x24
 80002f8:	af00      	add	r7, sp, #0
 80002fa:	0002      	movs	r2, r0
 80002fc:	1dfb      	adds	r3, r7, #7
 80002fe:	701a      	strb	r2, [r3, #0]
 8000300:	1dbb      	adds	r3, r7, #6
 8000302:	1c0a      	adds	r2, r1, #0
 8000304:	701a      	strb	r2, [r3, #0]
	RTC_TimeTypeDef sTime = {0};
 8000306:	210c      	movs	r1, #12
 8000308:	000c      	movs	r4, r1
 800030a:	187b      	adds	r3, r7, r1
 800030c:	0018      	movs	r0, r3
 800030e:	2314      	movs	r3, #20
 8000310:	001a      	movs	r2, r3
 8000312:	2100      	movs	r1, #0
 8000314:	f008 f894 	bl	8008440 <memset>

	sTime.Hours = set_hour;
 8000318:	0021      	movs	r1, r4
 800031a:	187b      	adds	r3, r7, r1
 800031c:	1dfa      	adds	r2, r7, #7
 800031e:	7812      	ldrb	r2, [r2, #0]
 8000320:	701a      	strb	r2, [r3, #0]
	sTime.Minutes  = set_min;
 8000322:	187b      	adds	r3, r7, r1
 8000324:	1dba      	adds	r2, r7, #6
 8000326:	7812      	ldrb	r2, [r2, #0]
 8000328:	705a      	strb	r2, [r3, #1]
	sTime.Seconds = 0;
 800032a:	187b      	adds	r3, r7, r1
 800032c:	2200      	movs	r2, #0
 800032e:	709a      	strb	r2, [r3, #2]
	sTime.DayLightSaving = RTC_DAYLIGHTSAVING_NONE;
 8000330:	187b      	adds	r3, r7, r1
 8000332:	2200      	movs	r2, #0
 8000334:	60da      	str	r2, [r3, #12]
	sTime.StoreOperation = RTC_STOREOPERATION_RESET;
 8000336:	187b      	adds	r3, r7, r1
 8000338:	2200      	movs	r2, #0
 800033a:	611a      	str	r2, [r3, #16]

	HAL_RTC_SetTime(&hrtc, &sTime, RTC_FORMAT_BIN);
 800033c:	1879      	adds	r1, r7, r1
 800033e:	4b04      	ldr	r3, [pc, #16]	; (8000350 <ah_set_time+0x5c>)
 8000340:	2200      	movs	r2, #0
 8000342:	0018      	movs	r0, r3
 8000344:	f006 fbbc 	bl	8006ac0 <HAL_RTC_SetTime>
}
 8000348:	46c0      	nop			; (mov r8, r8)
 800034a:	46bd      	mov	sp, r7
 800034c:	b009      	add	sp, #36	; 0x24
 800034e:	bd90      	pop	{r4, r7, pc}
 8000350:	200004dc 	.word	0x200004dc

08000354 <ah_draw_sensor>:
}



void ah_draw_sensor()
{
 8000354:	b580      	push	{r7, lr}
 8000356:	b082      	sub	sp, #8
 8000358:	af00      	add	r7, sp, #0
// Draw the temperature
    uint8_t temp[]= "18";   // Should be changed to read from sensor here
 800035a:	1d3b      	adds	r3, r7, #4
 800035c:	4a15      	ldr	r2, [pc, #84]	; (80003b4 <ah_draw_sensor+0x60>)
 800035e:	8811      	ldrh	r1, [r2, #0]
 8000360:	8019      	strh	r1, [r3, #0]
 8000362:	7892      	ldrb	r2, [r2, #2]
 8000364:	709a      	strb	r2, [r3, #2]
    st7565_drawtempsymbol(LCD_Buffer);
 8000366:	4b14      	ldr	r3, [pc, #80]	; (80003b8 <ah_draw_sensor+0x64>)
 8000368:	0018      	movs	r0, r3
 800036a:	f001 f86d 	bl	8001448 <st7565_drawtempsymbol>
    st7565_drawtemp(temp , LCD_Buffer);
 800036e:	4a12      	ldr	r2, [pc, #72]	; (80003b8 <ah_draw_sensor+0x64>)
 8000370:	1d3b      	adds	r3, r7, #4
 8000372:	0011      	movs	r1, r2
 8000374:	0018      	movs	r0, r3
 8000376:	f001 f87f 	bl	8001478 <st7565_drawtemp>
	st7565_write_buffer(LCD_Buffer);
 800037a:	4b0f      	ldr	r3, [pc, #60]	; (80003b8 <ah_draw_sensor+0x64>)
 800037c:	0018      	movs	r0, r3
 800037e:	f000 fb4f 	bl	8000a20 <st7565_write_buffer>


// Draw the humidity
    uint8_t hum[] = "57";   // Should be changed to read from sensor here
 8000382:	003b      	movs	r3, r7
 8000384:	4a0d      	ldr	r2, [pc, #52]	; (80003bc <ah_draw_sensor+0x68>)
 8000386:	8811      	ldrh	r1, [r2, #0]
 8000388:	8019      	strh	r1, [r3, #0]
 800038a:	7892      	ldrb	r2, [r2, #2]
 800038c:	709a      	strb	r2, [r3, #2]
    st7565_drawhumidsymbol(LCD_Buffer);
 800038e:	4b0a      	ldr	r3, [pc, #40]	; (80003b8 <ah_draw_sensor+0x64>)
 8000390:	0018      	movs	r0, r3
 8000392:	f001 f88f 	bl	80014b4 <st7565_drawhumidsymbol>
    st7565_drawhumid(hum, LCD_Buffer);
 8000396:	4a08      	ldr	r2, [pc, #32]	; (80003b8 <ah_draw_sensor+0x64>)
 8000398:	003b      	movs	r3, r7
 800039a:	0011      	movs	r1, r2
 800039c:	0018      	movs	r0, r3
 800039e:	f001 f8a1 	bl	80014e4 <st7565_drawhumid>
	st7565_write_buffer(LCD_Buffer);
 80003a2:	4b05      	ldr	r3, [pc, #20]	; (80003b8 <ah_draw_sensor+0x64>)
 80003a4:	0018      	movs	r0, r3
 80003a6:	f000 fb3b 	bl	8000a20 <st7565_write_buffer>

}
 80003aa:	46c0      	nop			; (mov r8, r8)
 80003ac:	46bd      	mov	sp, r7
 80003ae:	b002      	add	sp, #8
 80003b0:	bd80      	pop	{r7, pc}
 80003b2:	46c0      	nop			; (mov r8, r8)
 80003b4:	080084e0 	.word	0x080084e0
 80003b8:	200000d8 	.word	0x200000d8
 80003bc:	080084e4 	.word	0x080084e4

080003c0 <ah_draw_snooze>:

void ah_draw_snooze()
{
 80003c0:	b580      	push	{r7, lr}
 80003c2:	af00      	add	r7, sp, #0
// Draw snooze symbol
   st7565_drawsnsymbol(LCD_Buffer);
 80003c4:	4b05      	ldr	r3, [pc, #20]	; (80003dc <ah_draw_snooze+0x1c>)
 80003c6:	0018      	movs	r0, r3
 80003c8:	f001 f8bc 	bl	8001544 <st7565_drawsnsymbol>
	st7565_write_buffer(LCD_Buffer);
 80003cc:	4b03      	ldr	r3, [pc, #12]	; (80003dc <ah_draw_snooze+0x1c>)
 80003ce:	0018      	movs	r0, r3
 80003d0:	f000 fb26 	bl	8000a20 <st7565_write_buffer>

}
 80003d4:	46c0      	nop			; (mov r8, r8)
 80003d6:	46bd      	mov	sp, r7
 80003d8:	bd80      	pop	{r7, pc}
 80003da:	46c0      	nop			; (mov r8, r8)
 80003dc:	200000d8 	.word	0x200000d8

080003e0 <ah_draw_alarm>:

void ah_draw_alarm()
{
 80003e0:	b580      	push	{r7, lr}
 80003e2:	af00      	add	r7, sp, #0
// Draw alarm symbol
   st7565_drawalarmsymbol(LCD_Buffer);
 80003e4:	4b05      	ldr	r3, [pc, #20]	; (80003fc <ah_draw_alarm+0x1c>)
 80003e6:	0018      	movs	r0, r3
 80003e8:	f001 f894 	bl	8001514 <st7565_drawalarmsymbol>
   st7565_write_buffer(LCD_Buffer);
 80003ec:	4b03      	ldr	r3, [pc, #12]	; (80003fc <ah_draw_alarm+0x1c>)
 80003ee:	0018      	movs	r0, r3
 80003f0:	f000 fb16 	bl	8000a20 <st7565_write_buffer>

}
 80003f4:	46c0      	nop			; (mov r8, r8)
 80003f6:	46bd      	mov	sp, r7
 80003f8:	bd80      	pop	{r7, pc}
 80003fa:	46c0      	nop			; (mov r8, r8)
 80003fc:	200000d8 	.word	0x200000d8

08000400 <ah_draw_cursor>:


// Menu screen actions
//=======================================
void ah_draw_cursor(uint8_t position)
{
 8000400:	b580      	push	{r7, lr}
 8000402:	b082      	sub	sp, #8
 8000404:	af00      	add	r7, sp, #0
 8000406:	0002      	movs	r2, r0
 8000408:	1dfb      	adds	r3, r7, #7
 800040a:	701a      	strb	r2, [r3, #0]
	st7565_drawcursor(LCD_Buffer, position);
 800040c:	1dfb      	adds	r3, r7, #7
 800040e:	781a      	ldrb	r2, [r3, #0]
 8000410:	4b04      	ldr	r3, [pc, #16]	; (8000424 <ah_draw_cursor+0x24>)
 8000412:	0011      	movs	r1, r2
 8000414:	0018      	movs	r0, r3
 8000416:	f001 f8ad 	bl	8001574 <st7565_drawcursor>

}
 800041a:	46c0      	nop			; (mov r8, r8)
 800041c:	46bd      	mov	sp, r7
 800041e:	b002      	add	sp, #8
 8000420:	bd80      	pop	{r7, pc}
 8000422:	46c0      	nop			; (mov r8, r8)
 8000424:	200000d8 	.word	0x200000d8

08000428 <ah_menu>:

void ah_menu(menu_t type)
{
 8000428:	b580      	push	{r7, lr}
 800042a:	b082      	sub	sp, #8
 800042c:	af00      	add	r7, sp, #0
 800042e:	0002      	movs	r2, r0
 8000430:	1dfb      	adds	r3, r7, #7
 8000432:	701a      	strb	r2, [r3, #0]
	st7565_drawmenu(LCD_Buffer, type);
 8000434:	1dfb      	adds	r3, r7, #7
 8000436:	781a      	ldrb	r2, [r3, #0]
 8000438:	4b04      	ldr	r3, [pc, #16]	; (800044c <ah_menu+0x24>)
 800043a:	0011      	movs	r1, r2
 800043c:	0018      	movs	r0, r3
 800043e:	f001 f913 	bl	8001668 <st7565_drawmenu>
}
 8000442:	46c0      	nop			; (mov r8, r8)
 8000444:	46bd      	mov	sp, r7
 8000446:	b002      	add	sp, #8
 8000448:	bd80      	pop	{r7, pc}
 800044a:	46c0      	nop			; (mov r8, r8)
 800044c:	200000d8 	.word	0x200000d8

08000450 <ah_setcolor>:

// LED Actions
//=======================================
void ah_setcolor(color_preset_t color_preset)
{
 8000450:	b580      	push	{r7, lr}
 8000452:	b082      	sub	sp, #8
 8000454:	af00      	add	r7, sp, #0
 8000456:	0002      	movs	r2, r0
 8000458:	1dfb      	adds	r3, r7, #7
 800045a:	701a      	strb	r2, [r3, #0]
	// TO BE CODED****** Set led color and PWM. Color presets. Feel free.
}
 800045c:	46c0      	nop			; (mov r8, r8)
 800045e:	46bd      	mov	sp, r7
 8000460:	b002      	add	sp, #8
 8000462:	bd80      	pop	{r7, pc}

08000464 <MX_ADC_Init>:

ADC_HandleTypeDef hadc;

/* ADC init function */
void MX_ADC_Init(void)
{
 8000464:	b580      	push	{r7, lr}
 8000466:	b084      	sub	sp, #16
 8000468:	af00      	add	r7, sp, #0
  ADC_ChannelConfTypeDef sConfig = {0};
 800046a:	1d3b      	adds	r3, r7, #4
 800046c:	0018      	movs	r0, r3
 800046e:	230c      	movs	r3, #12
 8000470:	001a      	movs	r2, r3
 8000472:	2100      	movs	r1, #0
 8000474:	f007 ffe4 	bl	8008440 <memset>

  /** Configure the global features of the ADC (Clock, Resolution, Data Alignment and number of conversion) 
  */
  hadc.Instance = ADC1;
 8000478:	4b26      	ldr	r3, [pc, #152]	; (8000514 <MX_ADC_Init+0xb0>)
 800047a:	4a27      	ldr	r2, [pc, #156]	; (8000518 <MX_ADC_Init+0xb4>)
 800047c:	601a      	str	r2, [r3, #0]
  hadc.Init.ClockPrescaler = ADC_CLOCK_ASYNC_DIV1;
 800047e:	4b25      	ldr	r3, [pc, #148]	; (8000514 <MX_ADC_Init+0xb0>)
 8000480:	2200      	movs	r2, #0
 8000482:	605a      	str	r2, [r3, #4]
  hadc.Init.Resolution = ADC_RESOLUTION_12B;
 8000484:	4b23      	ldr	r3, [pc, #140]	; (8000514 <MX_ADC_Init+0xb0>)
 8000486:	2200      	movs	r2, #0
 8000488:	609a      	str	r2, [r3, #8]
  hadc.Init.DataAlign = ADC_DATAALIGN_RIGHT;
 800048a:	4b22      	ldr	r3, [pc, #136]	; (8000514 <MX_ADC_Init+0xb0>)
 800048c:	2200      	movs	r2, #0
 800048e:	60da      	str	r2, [r3, #12]
  hadc.Init.ScanConvMode = ADC_SCAN_DIRECTION_FORWARD;
 8000490:	4b20      	ldr	r3, [pc, #128]	; (8000514 <MX_ADC_Init+0xb0>)
 8000492:	2201      	movs	r2, #1
 8000494:	611a      	str	r2, [r3, #16]
  hadc.Init.EOCSelection = ADC_EOC_SINGLE_CONV;
 8000496:	4b1f      	ldr	r3, [pc, #124]	; (8000514 <MX_ADC_Init+0xb0>)
 8000498:	2204      	movs	r2, #4
 800049a:	615a      	str	r2, [r3, #20]
  hadc.Init.LowPowerAutoWait = DISABLE;
 800049c:	4b1d      	ldr	r3, [pc, #116]	; (8000514 <MX_ADC_Init+0xb0>)
 800049e:	2200      	movs	r2, #0
 80004a0:	761a      	strb	r2, [r3, #24]
  hadc.Init.LowPowerAutoPowerOff = DISABLE;
 80004a2:	4b1c      	ldr	r3, [pc, #112]	; (8000514 <MX_ADC_Init+0xb0>)
 80004a4:	2200      	movs	r2, #0
 80004a6:	765a      	strb	r2, [r3, #25]
  hadc.Init.ContinuousConvMode = DISABLE;
 80004a8:	4b1a      	ldr	r3, [pc, #104]	; (8000514 <MX_ADC_Init+0xb0>)
 80004aa:	2200      	movs	r2, #0
 80004ac:	769a      	strb	r2, [r3, #26]
  hadc.Init.DiscontinuousConvMode = DISABLE;
 80004ae:	4b19      	ldr	r3, [pc, #100]	; (8000514 <MX_ADC_Init+0xb0>)
 80004b0:	2200      	movs	r2, #0
 80004b2:	76da      	strb	r2, [r3, #27]
  hadc.Init.ExternalTrigConv = ADC_SOFTWARE_START;
 80004b4:	4b17      	ldr	r3, [pc, #92]	; (8000514 <MX_ADC_Init+0xb0>)
 80004b6:	22c2      	movs	r2, #194	; 0xc2
 80004b8:	32ff      	adds	r2, #255	; 0xff
 80004ba:	61da      	str	r2, [r3, #28]
  hadc.Init.ExternalTrigConvEdge = ADC_EXTERNALTRIGCONVEDGE_NONE;
 80004bc:	4b15      	ldr	r3, [pc, #84]	; (8000514 <MX_ADC_Init+0xb0>)
 80004be:	2200      	movs	r2, #0
 80004c0:	621a      	str	r2, [r3, #32]
  hadc.Init.DMAContinuousRequests = DISABLE;
 80004c2:	4b14      	ldr	r3, [pc, #80]	; (8000514 <MX_ADC_Init+0xb0>)
 80004c4:	2224      	movs	r2, #36	; 0x24
 80004c6:	2100      	movs	r1, #0
 80004c8:	5499      	strb	r1, [r3, r2]
  hadc.Init.Overrun = ADC_OVR_DATA_PRESERVED;
 80004ca:	4b12      	ldr	r3, [pc, #72]	; (8000514 <MX_ADC_Init+0xb0>)
 80004cc:	2201      	movs	r2, #1
 80004ce:	629a      	str	r2, [r3, #40]	; 0x28
  if (HAL_ADC_Init(&hadc) != HAL_OK)
 80004d0:	4b10      	ldr	r3, [pc, #64]	; (8000514 <MX_ADC_Init+0xb0>)
 80004d2:	0018      	movs	r0, r3
 80004d4:	f004 f8ac 	bl	8004630 <HAL_ADC_Init>
 80004d8:	1e03      	subs	r3, r0, #0
 80004da:	d001      	beq.n	80004e0 <MX_ADC_Init+0x7c>
  {
    Error_Handler();
 80004dc:	f001 fc72 	bl	8001dc4 <Error_Handler>
  }
  /** Configure for the selected ADC regular channel to be converted. 
  */
  sConfig.Channel = ADC_CHANNEL_0;
 80004e0:	1d3b      	adds	r3, r7, #4
 80004e2:	2200      	movs	r2, #0
 80004e4:	601a      	str	r2, [r3, #0]
  sConfig.Rank = ADC_RANK_CHANNEL_NUMBER;
 80004e6:	1d3b      	adds	r3, r7, #4
 80004e8:	2280      	movs	r2, #128	; 0x80
 80004ea:	0152      	lsls	r2, r2, #5
 80004ec:	605a      	str	r2, [r3, #4]
  sConfig.SamplingTime = ADC_SAMPLETIME_1CYCLE_5;
 80004ee:	1d3b      	adds	r3, r7, #4
 80004f0:	2280      	movs	r2, #128	; 0x80
 80004f2:	0552      	lsls	r2, r2, #21
 80004f4:	609a      	str	r2, [r3, #8]
  if (HAL_ADC_ConfigChannel(&hadc, &sConfig) != HAL_OK)
 80004f6:	1d3a      	adds	r2, r7, #4
 80004f8:	4b06      	ldr	r3, [pc, #24]	; (8000514 <MX_ADC_Init+0xb0>)
 80004fa:	0011      	movs	r1, r2
 80004fc:	0018      	movs	r0, r3
 80004fe:	f004 faa7 	bl	8004a50 <HAL_ADC_ConfigChannel>
 8000502:	1e03      	subs	r3, r0, #0
 8000504:	d001      	beq.n	800050a <MX_ADC_Init+0xa6>
  {
    Error_Handler();
 8000506:	f001 fc5d 	bl	8001dc4 <Error_Handler>
  }

}
 800050a:	46c0      	nop			; (mov r8, r8)
 800050c:	46bd      	mov	sp, r7
 800050e:	b004      	add	sp, #16
 8000510:	bd80      	pop	{r7, pc}
 8000512:	46c0      	nop			; (mov r8, r8)
 8000514:	20000044 	.word	0x20000044
 8000518:	40012400 	.word	0x40012400

0800051c <HAL_ADC_MspInit>:

void HAL_ADC_MspInit(ADC_HandleTypeDef* adcHandle)
{
 800051c:	b580      	push	{r7, lr}
 800051e:	b08a      	sub	sp, #40	; 0x28
 8000520:	af00      	add	r7, sp, #0
 8000522:	6078      	str	r0, [r7, #4]

  GPIO_InitTypeDef GPIO_InitStruct = {0};
 8000524:	2314      	movs	r3, #20
 8000526:	18fb      	adds	r3, r7, r3
 8000528:	0018      	movs	r0, r3
 800052a:	2314      	movs	r3, #20
 800052c:	001a      	movs	r2, r3
 800052e:	2100      	movs	r1, #0
 8000530:	f007 ff86 	bl	8008440 <memset>
  if(adcHandle->Instance==ADC1)
 8000534:	687b      	ldr	r3, [r7, #4]
 8000536:	681b      	ldr	r3, [r3, #0]
 8000538:	4a1d      	ldr	r2, [pc, #116]	; (80005b0 <HAL_ADC_MspInit+0x94>)
 800053a:	4293      	cmp	r3, r2
 800053c:	d134      	bne.n	80005a8 <HAL_ADC_MspInit+0x8c>
  {
  /* USER CODE BEGIN ADC1_MspInit 0 */

  /* USER CODE END ADC1_MspInit 0 */
    /* ADC1 clock enable */
    __HAL_RCC_ADC1_CLK_ENABLE();
 800053e:	4b1d      	ldr	r3, [pc, #116]	; (80005b4 <HAL_ADC_MspInit+0x98>)
 8000540:	699a      	ldr	r2, [r3, #24]
 8000542:	4b1c      	ldr	r3, [pc, #112]	; (80005b4 <HAL_ADC_MspInit+0x98>)
 8000544:	2180      	movs	r1, #128	; 0x80
 8000546:	0089      	lsls	r1, r1, #2
 8000548:	430a      	orrs	r2, r1
 800054a:	619a      	str	r2, [r3, #24]
 800054c:	4b19      	ldr	r3, [pc, #100]	; (80005b4 <HAL_ADC_MspInit+0x98>)
 800054e:	699a      	ldr	r2, [r3, #24]
 8000550:	2380      	movs	r3, #128	; 0x80
 8000552:	009b      	lsls	r3, r3, #2
 8000554:	4013      	ands	r3, r2
 8000556:	613b      	str	r3, [r7, #16]
 8000558:	693b      	ldr	r3, [r7, #16]
  
    __HAL_RCC_GPIOA_CLK_ENABLE();
 800055a:	4b16      	ldr	r3, [pc, #88]	; (80005b4 <HAL_ADC_MspInit+0x98>)
 800055c:	695a      	ldr	r2, [r3, #20]
 800055e:	4b15      	ldr	r3, [pc, #84]	; (80005b4 <HAL_ADC_MspInit+0x98>)
 8000560:	2180      	movs	r1, #128	; 0x80
 8000562:	0289      	lsls	r1, r1, #10
 8000564:	430a      	orrs	r2, r1
 8000566:	615a      	str	r2, [r3, #20]
 8000568:	4b12      	ldr	r3, [pc, #72]	; (80005b4 <HAL_ADC_MspInit+0x98>)
 800056a:	695a      	ldr	r2, [r3, #20]
 800056c:	2380      	movs	r3, #128	; 0x80
 800056e:	029b      	lsls	r3, r3, #10
 8000570:	4013      	ands	r3, r2
 8000572:	60fb      	str	r3, [r7, #12]
 8000574:	68fb      	ldr	r3, [r7, #12]
    /**ADC GPIO Configuration    
    PA0     ------> ADC_IN0 
    */
    GPIO_InitStruct.Pin = LEDTEMP_Pin;
 8000576:	2114      	movs	r1, #20
 8000578:	187b      	adds	r3, r7, r1
 800057a:	2201      	movs	r2, #1
 800057c:	601a      	str	r2, [r3, #0]
    GPIO_InitStruct.Mode = GPIO_MODE_ANALOG;
 800057e:	187b      	adds	r3, r7, r1
 8000580:	2203      	movs	r2, #3
 8000582:	605a      	str	r2, [r3, #4]
    GPIO_InitStruct.Pull = GPIO_NOPULL;
 8000584:	187b      	adds	r3, r7, r1
 8000586:	2200      	movs	r2, #0
 8000588:	609a      	str	r2, [r3, #8]
    HAL_GPIO_Init(LEDTEMP_GPIO_Port, &GPIO_InitStruct);
 800058a:	187a      	adds	r2, r7, r1
 800058c:	2390      	movs	r3, #144	; 0x90
 800058e:	05db      	lsls	r3, r3, #23
 8000590:	0011      	movs	r1, r2
 8000592:	0018      	movs	r0, r3
 8000594:	f004 fc76 	bl	8004e84 <HAL_GPIO_Init>

    /* ADC1 interrupt Init */
    HAL_NVIC_SetPriority(ADC1_IRQn, 0, 0);
 8000598:	2200      	movs	r2, #0
 800059a:	2100      	movs	r1, #0
 800059c:	200c      	movs	r0, #12
 800059e:	f004 fbf9 	bl	8004d94 <HAL_NVIC_SetPriority>
    HAL_NVIC_EnableIRQ(ADC1_IRQn);
 80005a2:	200c      	movs	r0, #12
 80005a4:	f004 fc0b 	bl	8004dbe <HAL_NVIC_EnableIRQ>
  /* USER CODE BEGIN ADC1_MspInit 1 */

  /* USER CODE END ADC1_MspInit 1 */
  }
}
 80005a8:	46c0      	nop			; (mov r8, r8)
 80005aa:	46bd      	mov	sp, r7
 80005ac:	b00a      	add	sp, #40	; 0x28
 80005ae:	bd80      	pop	{r7, pc}
 80005b0:	40012400 	.word	0x40012400
 80005b4:	40021000 	.word	0x40021000

080005b8 <eh_get_event>:

static uint8_t  button_value_old =  0xffu;

//==============================================================================
  
event_t eh_get_event(void) {  
 80005b8:	b590      	push	{r4, r7, lr}
 80005ba:	b083      	sub	sp, #12
 80005bc:	af00      	add	r7, sp, #0
    // HAL_TIM_Base_Start_IT(&htim14)  -- Start timer
   
    
    //detect button events 
    
    uint8_t button_value = HAL_GPIO_ReadPin (SWUP_GPIO_Port, SWUP_Pin);
 80005be:	1dfc      	adds	r4, r7, #7
 80005c0:	2380      	movs	r3, #128	; 0x80
 80005c2:	021b      	lsls	r3, r3, #8
 80005c4:	4a44      	ldr	r2, [pc, #272]	; (80006d8 <eh_get_event+0x120>)
 80005c6:	0019      	movs	r1, r3
 80005c8:	0010      	movs	r0, r2
 80005ca:	f004 fdcb 	bl	8005164 <HAL_GPIO_ReadPin>
 80005ce:	0003      	movs	r3, r0
 80005d0:	7023      	strb	r3, [r4, #0]
    button_value <<= 1;
 80005d2:	1dfa      	adds	r2, r7, #7
 80005d4:	1dfb      	adds	r3, r7, #7
 80005d6:	781b      	ldrb	r3, [r3, #0]
 80005d8:	18db      	adds	r3, r3, r3
 80005da:	7013      	strb	r3, [r2, #0]
    button_value |= HAL_GPIO_ReadPin (SWDN_GPIO_Port, SWDN_Pin);
 80005dc:	2380      	movs	r3, #128	; 0x80
 80005de:	015b      	lsls	r3, r3, #5
 80005e0:	4a3d      	ldr	r2, [pc, #244]	; (80006d8 <eh_get_event+0x120>)
 80005e2:	0019      	movs	r1, r3
 80005e4:	0010      	movs	r0, r2
 80005e6:	f004 fdbd 	bl	8005164 <HAL_GPIO_ReadPin>
 80005ea:	0003      	movs	r3, r0
 80005ec:	0019      	movs	r1, r3
 80005ee:	1dfb      	adds	r3, r7, #7
 80005f0:	1dfa      	adds	r2, r7, #7
 80005f2:	7812      	ldrb	r2, [r2, #0]
 80005f4:	430a      	orrs	r2, r1
 80005f6:	701a      	strb	r2, [r3, #0]
    button_value <<= 1;
 80005f8:	1dfa      	adds	r2, r7, #7
 80005fa:	1dfb      	adds	r3, r7, #7
 80005fc:	781b      	ldrb	r3, [r3, #0]
 80005fe:	18db      	adds	r3, r3, r3
 8000600:	7013      	strb	r3, [r2, #0]
    button_value |= HAL_GPIO_ReadPin (SWLT_GPIO_Port, SWLT_Pin);
 8000602:	2380      	movs	r3, #128	; 0x80
 8000604:	019b      	lsls	r3, r3, #6
 8000606:	4a34      	ldr	r2, [pc, #208]	; (80006d8 <eh_get_event+0x120>)
 8000608:	0019      	movs	r1, r3
 800060a:	0010      	movs	r0, r2
 800060c:	f004 fdaa 	bl	8005164 <HAL_GPIO_ReadPin>
 8000610:	0003      	movs	r3, r0
 8000612:	0019      	movs	r1, r3
 8000614:	1dfb      	adds	r3, r7, #7
 8000616:	1dfa      	adds	r2, r7, #7
 8000618:	7812      	ldrb	r2, [r2, #0]
 800061a:	430a      	orrs	r2, r1
 800061c:	701a      	strb	r2, [r3, #0]
    button_value <<= 1;
 800061e:	1dfa      	adds	r2, r7, #7
 8000620:	1dfb      	adds	r3, r7, #7
 8000622:	781b      	ldrb	r3, [r3, #0]
 8000624:	18db      	adds	r3, r3, r3
 8000626:	7013      	strb	r3, [r2, #0]
    button_value |= HAL_GPIO_ReadPin (SWRT_GPIO_Port, SWRT_Pin);
 8000628:	4b2b      	ldr	r3, [pc, #172]	; (80006d8 <eh_get_event+0x120>)
 800062a:	2104      	movs	r1, #4
 800062c:	0018      	movs	r0, r3
 800062e:	f004 fd99 	bl	8005164 <HAL_GPIO_ReadPin>
 8000632:	0003      	movs	r3, r0
 8000634:	0019      	movs	r1, r3
 8000636:	1dfb      	adds	r3, r7, #7
 8000638:	1dfa      	adds	r2, r7, #7
 800063a:	7812      	ldrb	r2, [r2, #0]
 800063c:	430a      	orrs	r2, r1
 800063e:	701a      	strb	r2, [r3, #0]
    button_value <<= 1;
 8000640:	1dfa      	adds	r2, r7, #7
 8000642:	1dfb      	adds	r3, r7, #7
 8000644:	781b      	ldrb	r3, [r3, #0]
 8000646:	18db      	adds	r3, r3, r3
 8000648:	7013      	strb	r3, [r2, #0]
    button_value |= HAL_GPIO_ReadPin (SWSL_GPIO_Port, SWSL_Pin);
 800064a:	2380      	movs	r3, #128	; 0x80
 800064c:	01db      	lsls	r3, r3, #7
 800064e:	4a22      	ldr	r2, [pc, #136]	; (80006d8 <eh_get_event+0x120>)
 8000650:	0019      	movs	r1, r3
 8000652:	0010      	movs	r0, r2
 8000654:	f004 fd86 	bl	8005164 <HAL_GPIO_ReadPin>
 8000658:	0003      	movs	r3, r0
 800065a:	0019      	movs	r1, r3
 800065c:	1dfb      	adds	r3, r7, #7
 800065e:	1dfa      	adds	r2, r7, #7
 8000660:	7812      	ldrb	r2, [r2, #0]
 8000662:	430a      	orrs	r2, r1
 8000664:	701a      	strb	r2, [r3, #0]
 
    uint8_t button_edge_pos = ~button_value_old & button_value;
 8000666:	4b1d      	ldr	r3, [pc, #116]	; (80006dc <eh_get_event+0x124>)
 8000668:	781b      	ldrb	r3, [r3, #0]
 800066a:	b25b      	sxtb	r3, r3
 800066c:	43db      	mvns	r3, r3
 800066e:	b25b      	sxtb	r3, r3
 8000670:	1dfa      	adds	r2, r7, #7
 8000672:	7812      	ldrb	r2, [r2, #0]
 8000674:	b252      	sxtb	r2, r2
 8000676:	4013      	ands	r3, r2
 8000678:	b25a      	sxtb	r2, r3
 800067a:	1dbb      	adds	r3, r7, #6
 800067c:	701a      	strb	r2, [r3, #0]
    button_value_old = button_value;
 800067e:	4b17      	ldr	r3, [pc, #92]	; (80006dc <eh_get_event+0x124>)
 8000680:	1dfa      	adds	r2, r7, #7
 8000682:	7812      	ldrb	r2, [r2, #0]
 8000684:	701a      	strb	r2, [r3, #0]
    
    if (button_edge_pos & BUTTON_UP_MASK) {
 8000686:	1dbb      	adds	r3, r7, #6
 8000688:	781b      	ldrb	r3, [r3, #0]
 800068a:	2210      	movs	r2, #16
 800068c:	4013      	ands	r3, r2
 800068e:	d001      	beq.n	8000694 <eh_get_event+0xdc>
        return EV_BUTTON_UP;
 8000690:	2301      	movs	r3, #1
 8000692:	e01c      	b.n	80006ce <eh_get_event+0x116>
    }
    else if (button_edge_pos & BUTTON_DN_MASK) {
 8000694:	1dbb      	adds	r3, r7, #6
 8000696:	781b      	ldrb	r3, [r3, #0]
 8000698:	2208      	movs	r2, #8
 800069a:	4013      	ands	r3, r2
 800069c:	d001      	beq.n	80006a2 <eh_get_event+0xea>
        return EV_BUTTON_DN;
 800069e:	2302      	movs	r3, #2
 80006a0:	e015      	b.n	80006ce <eh_get_event+0x116>
    }
    else if (button_edge_pos & BUTTON_LT_MASK) {
 80006a2:	1dbb      	adds	r3, r7, #6
 80006a4:	781b      	ldrb	r3, [r3, #0]
 80006a6:	2204      	movs	r2, #4
 80006a8:	4013      	ands	r3, r2
 80006aa:	d001      	beq.n	80006b0 <eh_get_event+0xf8>
        return EV_BUTTON_LT;
 80006ac:	2303      	movs	r3, #3
 80006ae:	e00e      	b.n	80006ce <eh_get_event+0x116>
    }    
    else if (button_edge_pos & BUTTON_RT_MASK) {
 80006b0:	1dbb      	adds	r3, r7, #6
 80006b2:	781b      	ldrb	r3, [r3, #0]
 80006b4:	2202      	movs	r2, #2
 80006b6:	4013      	ands	r3, r2
 80006b8:	d001      	beq.n	80006be <eh_get_event+0x106>
        return EV_BUTTON_RT;
 80006ba:	2304      	movs	r3, #4
 80006bc:	e007      	b.n	80006ce <eh_get_event+0x116>
    }    
    else if (button_edge_pos & BUTTON_SL_MASK) {
 80006be:	1dbb      	adds	r3, r7, #6
 80006c0:	781b      	ldrb	r3, [r3, #0]
 80006c2:	2201      	movs	r2, #1
 80006c4:	4013      	ands	r3, r2
 80006c6:	d001      	beq.n	80006cc <eh_get_event+0x114>
        return EV_BUTTON_SL;
 80006c8:	2305      	movs	r3, #5
 80006ca:	e000      	b.n	80006ce <eh_get_event+0x116>
    } 
    
    return EV_NO_EVENT;
 80006cc:	2300      	movs	r3, #0
}
 80006ce:	0018      	movs	r0, r3
 80006d0:	46bd      	mov	sp, r7
 80006d2:	b003      	add	sp, #12
 80006d4:	bd90      	pop	{r4, r7, pc}
 80006d6:	46c0      	nop			; (mov r8, r8)
 80006d8:	48000400 	.word	0x48000400
 80006dc:	20000000 	.word	0x20000000

080006e0 <MX_GPIO_Init>:
        * Output
        * EVENT_OUT
        * EXTI
*/
void MX_GPIO_Init(void)
{
 80006e0:	b590      	push	{r4, r7, lr}
 80006e2:	b08b      	sub	sp, #44	; 0x2c
 80006e4:	af00      	add	r7, sp, #0

  GPIO_InitTypeDef GPIO_InitStruct = {0};
 80006e6:	2414      	movs	r4, #20
 80006e8:	193b      	adds	r3, r7, r4
 80006ea:	0018      	movs	r0, r3
 80006ec:	2314      	movs	r3, #20
 80006ee:	001a      	movs	r2, r3
 80006f0:	2100      	movs	r1, #0
 80006f2:	f007 fea5 	bl	8008440 <memset>

  /* GPIO Ports Clock Enable */
  __HAL_RCC_GPIOC_CLK_ENABLE();
 80006f6:	4b5c      	ldr	r3, [pc, #368]	; (8000868 <MX_GPIO_Init+0x188>)
 80006f8:	695a      	ldr	r2, [r3, #20]
 80006fa:	4b5b      	ldr	r3, [pc, #364]	; (8000868 <MX_GPIO_Init+0x188>)
 80006fc:	2180      	movs	r1, #128	; 0x80
 80006fe:	0309      	lsls	r1, r1, #12
 8000700:	430a      	orrs	r2, r1
 8000702:	615a      	str	r2, [r3, #20]
 8000704:	4b58      	ldr	r3, [pc, #352]	; (8000868 <MX_GPIO_Init+0x188>)
 8000706:	695a      	ldr	r2, [r3, #20]
 8000708:	2380      	movs	r3, #128	; 0x80
 800070a:	031b      	lsls	r3, r3, #12
 800070c:	4013      	ands	r3, r2
 800070e:	613b      	str	r3, [r7, #16]
 8000710:	693b      	ldr	r3, [r7, #16]
  __HAL_RCC_GPIOF_CLK_ENABLE();
 8000712:	4b55      	ldr	r3, [pc, #340]	; (8000868 <MX_GPIO_Init+0x188>)
 8000714:	695a      	ldr	r2, [r3, #20]
 8000716:	4b54      	ldr	r3, [pc, #336]	; (8000868 <MX_GPIO_Init+0x188>)
 8000718:	2180      	movs	r1, #128	; 0x80
 800071a:	03c9      	lsls	r1, r1, #15
 800071c:	430a      	orrs	r2, r1
 800071e:	615a      	str	r2, [r3, #20]
 8000720:	4b51      	ldr	r3, [pc, #324]	; (8000868 <MX_GPIO_Init+0x188>)
 8000722:	695a      	ldr	r2, [r3, #20]
 8000724:	2380      	movs	r3, #128	; 0x80
 8000726:	03db      	lsls	r3, r3, #15
 8000728:	4013      	ands	r3, r2
 800072a:	60fb      	str	r3, [r7, #12]
 800072c:	68fb      	ldr	r3, [r7, #12]
  __HAL_RCC_GPIOA_CLK_ENABLE();
 800072e:	4b4e      	ldr	r3, [pc, #312]	; (8000868 <MX_GPIO_Init+0x188>)
 8000730:	695a      	ldr	r2, [r3, #20]
 8000732:	4b4d      	ldr	r3, [pc, #308]	; (8000868 <MX_GPIO_Init+0x188>)
 8000734:	2180      	movs	r1, #128	; 0x80
 8000736:	0289      	lsls	r1, r1, #10
 8000738:	430a      	orrs	r2, r1
 800073a:	615a      	str	r2, [r3, #20]
 800073c:	4b4a      	ldr	r3, [pc, #296]	; (8000868 <MX_GPIO_Init+0x188>)
 800073e:	695a      	ldr	r2, [r3, #20]
 8000740:	2380      	movs	r3, #128	; 0x80
 8000742:	029b      	lsls	r3, r3, #10
 8000744:	4013      	ands	r3, r2
 8000746:	60bb      	str	r3, [r7, #8]
 8000748:	68bb      	ldr	r3, [r7, #8]
  __HAL_RCC_GPIOB_CLK_ENABLE();
 800074a:	4b47      	ldr	r3, [pc, #284]	; (8000868 <MX_GPIO_Init+0x188>)
 800074c:	695a      	ldr	r2, [r3, #20]
 800074e:	4b46      	ldr	r3, [pc, #280]	; (8000868 <MX_GPIO_Init+0x188>)
 8000750:	2180      	movs	r1, #128	; 0x80
 8000752:	02c9      	lsls	r1, r1, #11
 8000754:	430a      	orrs	r2, r1
 8000756:	615a      	str	r2, [r3, #20]
 8000758:	4b43      	ldr	r3, [pc, #268]	; (8000868 <MX_GPIO_Init+0x188>)
 800075a:	695a      	ldr	r2, [r3, #20]
 800075c:	2380      	movs	r3, #128	; 0x80
 800075e:	02db      	lsls	r3, r3, #11
 8000760:	4013      	ands	r3, r2
 8000762:	607b      	str	r3, [r7, #4]
 8000764:	687b      	ldr	r3, [r7, #4]

  /*Configure GPIO pin Output Level */
  HAL_GPIO_WritePin(GPIOA, LCDBL_Pin|LCDCS_Pin|LCDRST_Pin|LCDA0_Pin 
 8000766:	2390      	movs	r3, #144	; 0x90
 8000768:	05db      	lsls	r3, r3, #23
 800076a:	2200      	movs	r2, #0
 800076c:	21fc      	movs	r1, #252	; 0xfc
 800076e:	0018      	movs	r0, r3
 8000770:	f004 fd15 	bl	800519e <HAL_GPIO_WritePin>
                          |LCDSI_Pin|LCDSCL_Pin, GPIO_PIN_RESET);

  /*Configure GPIO pin Output Level */
  HAL_GPIO_WritePin(GPIOB, LEDRT_Pin|LEDDN_Pin|LEDUP_Pin|LEDLT_Pin 
 8000774:	493d      	ldr	r1, [pc, #244]	; (800086c <MX_GPIO_Init+0x18c>)
 8000776:	4b3e      	ldr	r3, [pc, #248]	; (8000870 <MX_GPIO_Init+0x190>)
 8000778:	2200      	movs	r2, #0
 800077a:	0018      	movs	r0, r3
 800077c:	f004 fd0f 	bl	800519e <HAL_GPIO_WritePin>
                          |MCUIR_Pin, GPIO_PIN_RESET);

  /*Configure GPIO pins : PAPin PAPin PAPin PAPin 
                           PAPin PAPin */
  GPIO_InitStruct.Pin = LCDBL_Pin|LCDCS_Pin|LCDRST_Pin|LCDA0_Pin 
 8000780:	193b      	adds	r3, r7, r4
 8000782:	22fc      	movs	r2, #252	; 0xfc
 8000784:	601a      	str	r2, [r3, #0]
                          |LCDSI_Pin|LCDSCL_Pin;
  GPIO_InitStruct.Mode = GPIO_MODE_OUTPUT_PP;
 8000786:	193b      	adds	r3, r7, r4
 8000788:	2201      	movs	r2, #1
 800078a:	605a      	str	r2, [r3, #4]
  GPIO_InitStruct.Pull = GPIO_NOPULL;
 800078c:	193b      	adds	r3, r7, r4
 800078e:	2200      	movs	r2, #0
 8000790:	609a      	str	r2, [r3, #8]
  GPIO_InitStruct.Speed = GPIO_SPEED_FREQ_LOW;
 8000792:	193b      	adds	r3, r7, r4
 8000794:	2200      	movs	r2, #0
 8000796:	60da      	str	r2, [r3, #12]
  HAL_GPIO_Init(GPIOA, &GPIO_InitStruct);
 8000798:	193a      	adds	r2, r7, r4
 800079a:	2390      	movs	r3, #144	; 0x90
 800079c:	05db      	lsls	r3, r3, #23
 800079e:	0011      	movs	r1, r2
 80007a0:	0018      	movs	r0, r3
 80007a2:	f004 fb6f 	bl	8004e84 <HAL_GPIO_Init>

  /*Configure GPIO pins : PBPin PBPin PBPin PBPin */
  GPIO_InitStruct.Pin = LEDRT_Pin|LEDDN_Pin|LEDUP_Pin|LEDLT_Pin;
 80007a6:	0021      	movs	r1, r4
 80007a8:	187b      	adds	r3, r7, r1
 80007aa:	2233      	movs	r2, #51	; 0x33
 80007ac:	601a      	str	r2, [r3, #0]
  GPIO_InitStruct.Mode = GPIO_MODE_OUTPUT_OD;
 80007ae:	187b      	adds	r3, r7, r1
 80007b0:	2211      	movs	r2, #17
 80007b2:	605a      	str	r2, [r3, #4]
  GPIO_InitStruct.Pull = GPIO_NOPULL;
 80007b4:	187b      	adds	r3, r7, r1
 80007b6:	2200      	movs	r2, #0
 80007b8:	609a      	str	r2, [r3, #8]
  GPIO_InitStruct.Speed = GPIO_SPEED_FREQ_LOW;
 80007ba:	187b      	adds	r3, r7, r1
 80007bc:	2200      	movs	r2, #0
 80007be:	60da      	str	r2, [r3, #12]
  HAL_GPIO_Init(GPIOB, &GPIO_InitStruct);
 80007c0:	000c      	movs	r4, r1
 80007c2:	187b      	adds	r3, r7, r1
 80007c4:	4a2a      	ldr	r2, [pc, #168]	; (8000870 <MX_GPIO_Init+0x190>)
 80007c6:	0019      	movs	r1, r3
 80007c8:	0010      	movs	r0, r2
 80007ca:	f004 fb5b 	bl	8004e84 <HAL_GPIO_Init>

  /*Configure GPIO pins : PBPin PBPin PBPin PBPin 
                           PBPin */
  GPIO_InitStruct.Pin = SWRT_Pin|SWDN_Pin|SWLT_Pin|SWUP_Pin 
 80007ce:	0021      	movs	r1, r4
 80007d0:	187b      	adds	r3, r7, r1
 80007d2:	4a28      	ldr	r2, [pc, #160]	; (8000874 <MX_GPIO_Init+0x194>)
 80007d4:	601a      	str	r2, [r3, #0]
                          |ESPIR_Pin;
  GPIO_InitStruct.Mode = GPIO_MODE_INPUT;
 80007d6:	187b      	adds	r3, r7, r1
 80007d8:	2200      	movs	r2, #0
 80007da:	605a      	str	r2, [r3, #4]
  GPIO_InitStruct.Pull = GPIO_NOPULL;
 80007dc:	187b      	adds	r3, r7, r1
 80007de:	2200      	movs	r2, #0
 80007e0:	609a      	str	r2, [r3, #8]
  HAL_GPIO_Init(GPIOB, &GPIO_InitStruct);
 80007e2:	000c      	movs	r4, r1
 80007e4:	187b      	adds	r3, r7, r1
 80007e6:	4a22      	ldr	r2, [pc, #136]	; (8000870 <MX_GPIO_Init+0x190>)
 80007e8:	0019      	movs	r1, r3
 80007ea:	0010      	movs	r0, r2
 80007ec:	f004 fb4a 	bl	8004e84 <HAL_GPIO_Init>

  /*Configure GPIO pin : PtPin */
  GPIO_InitStruct.Pin = SWSL_Pin;
 80007f0:	0021      	movs	r1, r4
 80007f2:	187b      	adds	r3, r7, r1
 80007f4:	2280      	movs	r2, #128	; 0x80
 80007f6:	01d2      	lsls	r2, r2, #7
 80007f8:	601a      	str	r2, [r3, #0]
  GPIO_InitStruct.Mode = GPIO_MODE_IT_RISING_FALLING;
 80007fa:	187b      	adds	r3, r7, r1
 80007fc:	4a1e      	ldr	r2, [pc, #120]	; (8000878 <MX_GPIO_Init+0x198>)
 80007fe:	605a      	str	r2, [r3, #4]
  GPIO_InitStruct.Pull = GPIO_NOPULL;
 8000800:	187b      	adds	r3, r7, r1
 8000802:	2200      	movs	r2, #0
 8000804:	609a      	str	r2, [r3, #8]
  HAL_GPIO_Init(SWSL_GPIO_Port, &GPIO_InitStruct);
 8000806:	000c      	movs	r4, r1
 8000808:	187b      	adds	r3, r7, r1
 800080a:	4a19      	ldr	r2, [pc, #100]	; (8000870 <MX_GPIO_Init+0x190>)
 800080c:	0019      	movs	r1, r3
 800080e:	0010      	movs	r0, r2
 8000810:	f004 fb38 	bl	8004e84 <HAL_GPIO_Init>

  /*Configure GPIO pin : PtPin */
  GPIO_InitStruct.Pin = PROX_Pin;
 8000814:	0021      	movs	r1, r4
 8000816:	187b      	adds	r3, r7, r1
 8000818:	2208      	movs	r2, #8
 800081a:	601a      	str	r2, [r3, #0]
  GPIO_InitStruct.Mode = GPIO_MODE_IT_RISING;
 800081c:	187b      	adds	r3, r7, r1
 800081e:	4a17      	ldr	r2, [pc, #92]	; (800087c <MX_GPIO_Init+0x19c>)
 8000820:	605a      	str	r2, [r3, #4]
  GPIO_InitStruct.Pull = GPIO_NOPULL;
 8000822:	187b      	adds	r3, r7, r1
 8000824:	2200      	movs	r2, #0
 8000826:	609a      	str	r2, [r3, #8]
  HAL_GPIO_Init(PROX_GPIO_Port, &GPIO_InitStruct);
 8000828:	000c      	movs	r4, r1
 800082a:	187b      	adds	r3, r7, r1
 800082c:	4a10      	ldr	r2, [pc, #64]	; (8000870 <MX_GPIO_Init+0x190>)
 800082e:	0019      	movs	r1, r3
 8000830:	0010      	movs	r0, r2
 8000832:	f004 fb27 	bl	8004e84 <HAL_GPIO_Init>

  /*Configure GPIO pin : PtPin */
  GPIO_InitStruct.Pin = MCUIR_Pin;
 8000836:	0021      	movs	r1, r4
 8000838:	187b      	adds	r3, r7, r1
 800083a:	2280      	movs	r2, #128	; 0x80
 800083c:	0092      	lsls	r2, r2, #2
 800083e:	601a      	str	r2, [r3, #0]
  GPIO_InitStruct.Mode = GPIO_MODE_OUTPUT_PP;
 8000840:	187b      	adds	r3, r7, r1
 8000842:	2201      	movs	r2, #1
 8000844:	605a      	str	r2, [r3, #4]
  GPIO_InitStruct.Pull = GPIO_PULLUP;
 8000846:	187b      	adds	r3, r7, r1
 8000848:	2201      	movs	r2, #1
 800084a:	609a      	str	r2, [r3, #8]
  GPIO_InitStruct.Speed = GPIO_SPEED_FREQ_LOW;
 800084c:	187b      	adds	r3, r7, r1
 800084e:	2200      	movs	r2, #0
 8000850:	60da      	str	r2, [r3, #12]
  HAL_GPIO_Init(MCUIR_GPIO_Port, &GPIO_InitStruct);
 8000852:	187b      	adds	r3, r7, r1
 8000854:	4a06      	ldr	r2, [pc, #24]	; (8000870 <MX_GPIO_Init+0x190>)
 8000856:	0019      	movs	r1, r3
 8000858:	0010      	movs	r0, r2
 800085a:	f004 fb13 	bl	8004e84 <HAL_GPIO_Init>

}
 800085e:	46c0      	nop			; (mov r8, r8)
 8000860:	46bd      	mov	sp, r7
 8000862:	b00b      	add	sp, #44	; 0x2c
 8000864:	bd90      	pop	{r4, r7, pc}
 8000866:	46c0      	nop			; (mov r8, r8)
 8000868:	40021000 	.word	0x40021000
 800086c:	00000233 	.word	0x00000233
 8000870:	48000400 	.word	0x48000400
 8000874:	0000b104 	.word	0x0000b104
 8000878:	10310000 	.word	0x10310000
 800087c:	10110000 	.word	0x10110000

08000880 <MX_I2C2_Init>:

I2C_HandleTypeDef hi2c2;

/* I2C2 init function */
void MX_I2C2_Init(void)
{
 8000880:	b580      	push	{r7, lr}
 8000882:	af00      	add	r7, sp, #0

  hi2c2.Instance = I2C2;
 8000884:	4b1c      	ldr	r3, [pc, #112]	; (80008f8 <MX_I2C2_Init+0x78>)
 8000886:	4a1d      	ldr	r2, [pc, #116]	; (80008fc <MX_I2C2_Init+0x7c>)
 8000888:	601a      	str	r2, [r3, #0]
  hi2c2.Init.Timing = 0xA010B3FF;
 800088a:	4b1b      	ldr	r3, [pc, #108]	; (80008f8 <MX_I2C2_Init+0x78>)
 800088c:	4a1c      	ldr	r2, [pc, #112]	; (8000900 <MX_I2C2_Init+0x80>)
 800088e:	605a      	str	r2, [r3, #4]
  hi2c2.Init.OwnAddress1 = 0;
 8000890:	4b19      	ldr	r3, [pc, #100]	; (80008f8 <MX_I2C2_Init+0x78>)
 8000892:	2200      	movs	r2, #0
 8000894:	609a      	str	r2, [r3, #8]
  hi2c2.Init.AddressingMode = I2C_ADDRESSINGMODE_7BIT;
 8000896:	4b18      	ldr	r3, [pc, #96]	; (80008f8 <MX_I2C2_Init+0x78>)
 8000898:	2201      	movs	r2, #1
 800089a:	60da      	str	r2, [r3, #12]
  hi2c2.Init.DualAddressMode = I2C_DUALADDRESS_DISABLE;
 800089c:	4b16      	ldr	r3, [pc, #88]	; (80008f8 <MX_I2C2_Init+0x78>)
 800089e:	2200      	movs	r2, #0
 80008a0:	611a      	str	r2, [r3, #16]
  hi2c2.Init.OwnAddress2 = 0;
 80008a2:	4b15      	ldr	r3, [pc, #84]	; (80008f8 <MX_I2C2_Init+0x78>)
 80008a4:	2200      	movs	r2, #0
 80008a6:	615a      	str	r2, [r3, #20]
  hi2c2.Init.OwnAddress2Masks = I2C_OA2_NOMASK;
 80008a8:	4b13      	ldr	r3, [pc, #76]	; (80008f8 <MX_I2C2_Init+0x78>)
 80008aa:	2200      	movs	r2, #0
 80008ac:	619a      	str	r2, [r3, #24]
  hi2c2.Init.GeneralCallMode = I2C_GENERALCALL_DISABLE;
 80008ae:	4b12      	ldr	r3, [pc, #72]	; (80008f8 <MX_I2C2_Init+0x78>)
 80008b0:	2200      	movs	r2, #0
 80008b2:	61da      	str	r2, [r3, #28]
  hi2c2.Init.NoStretchMode = I2C_NOSTRETCH_DISABLE;
 80008b4:	4b10      	ldr	r3, [pc, #64]	; (80008f8 <MX_I2C2_Init+0x78>)
 80008b6:	2200      	movs	r2, #0
 80008b8:	621a      	str	r2, [r3, #32]
  if (HAL_I2C_Init(&hi2c2) != HAL_OK)
 80008ba:	4b0f      	ldr	r3, [pc, #60]	; (80008f8 <MX_I2C2_Init+0x78>)
 80008bc:	0018      	movs	r0, r3
 80008be:	f004 fc8b 	bl	80051d8 <HAL_I2C_Init>
 80008c2:	1e03      	subs	r3, r0, #0
 80008c4:	d001      	beq.n	80008ca <MX_I2C2_Init+0x4a>
  {
    Error_Handler();
 80008c6:	f001 fa7d 	bl	8001dc4 <Error_Handler>
  }
  /** Configure Analogue filter 
  */
  if (HAL_I2CEx_ConfigAnalogFilter(&hi2c2, I2C_ANALOGFILTER_DISABLE) != HAL_OK)
 80008ca:	2380      	movs	r3, #128	; 0x80
 80008cc:	015a      	lsls	r2, r3, #5
 80008ce:	4b0a      	ldr	r3, [pc, #40]	; (80008f8 <MX_I2C2_Init+0x78>)
 80008d0:	0011      	movs	r1, r2
 80008d2:	0018      	movs	r0, r3
 80008d4:	f005 fa7e 	bl	8005dd4 <HAL_I2CEx_ConfigAnalogFilter>
 80008d8:	1e03      	subs	r3, r0, #0
 80008da:	d001      	beq.n	80008e0 <MX_I2C2_Init+0x60>
  {
    Error_Handler();
 80008dc:	f001 fa72 	bl	8001dc4 <Error_Handler>
  }
  /** Configure Digital filter 
  */
  if (HAL_I2CEx_ConfigDigitalFilter(&hi2c2, 0) != HAL_OK)
 80008e0:	4b05      	ldr	r3, [pc, #20]	; (80008f8 <MX_I2C2_Init+0x78>)
 80008e2:	2100      	movs	r1, #0
 80008e4:	0018      	movs	r0, r3
 80008e6:	f005 fac1 	bl	8005e6c <HAL_I2CEx_ConfigDigitalFilter>
 80008ea:	1e03      	subs	r3, r0, #0
 80008ec:	d001      	beq.n	80008f2 <MX_I2C2_Init+0x72>
  {
    Error_Handler();
 80008ee:	f001 fa69 	bl	8001dc4 <Error_Handler>
  }

}
 80008f2:	46c0      	nop			; (mov r8, r8)
 80008f4:	46bd      	mov	sp, r7
 80008f6:	bd80      	pop	{r7, pc}
 80008f8:	20000084 	.word	0x20000084
 80008fc:	40005800 	.word	0x40005800
 8000900:	a010b3ff 	.word	0xa010b3ff

08000904 <HAL_I2C_MspInit>:

void HAL_I2C_MspInit(I2C_HandleTypeDef* i2cHandle)
{
 8000904:	b580      	push	{r7, lr}
 8000906:	b08a      	sub	sp, #40	; 0x28
 8000908:	af00      	add	r7, sp, #0
 800090a:	6078      	str	r0, [r7, #4]

  GPIO_InitTypeDef GPIO_InitStruct = {0};
 800090c:	2314      	movs	r3, #20
 800090e:	18fb      	adds	r3, r7, r3
 8000910:	0018      	movs	r0, r3
 8000912:	2314      	movs	r3, #20
 8000914:	001a      	movs	r2, r3
 8000916:	2100      	movs	r1, #0
 8000918:	f007 fd92 	bl	8008440 <memset>
  if(i2cHandle->Instance==I2C2)
 800091c:	687b      	ldr	r3, [r7, #4]
 800091e:	681b      	ldr	r3, [r3, #0]
 8000920:	4a20      	ldr	r2, [pc, #128]	; (80009a4 <HAL_I2C_MspInit+0xa0>)
 8000922:	4293      	cmp	r3, r2
 8000924:	d13a      	bne.n	800099c <HAL_I2C_MspInit+0x98>
  {
  /* USER CODE BEGIN I2C2_MspInit 0 */

  /* USER CODE END I2C2_MspInit 0 */
  
    __HAL_RCC_GPIOB_CLK_ENABLE();
 8000926:	4b20      	ldr	r3, [pc, #128]	; (80009a8 <HAL_I2C_MspInit+0xa4>)
 8000928:	695a      	ldr	r2, [r3, #20]
 800092a:	4b1f      	ldr	r3, [pc, #124]	; (80009a8 <HAL_I2C_MspInit+0xa4>)
 800092c:	2180      	movs	r1, #128	; 0x80
 800092e:	02c9      	lsls	r1, r1, #11
 8000930:	430a      	orrs	r2, r1
 8000932:	615a      	str	r2, [r3, #20]
 8000934:	4b1c      	ldr	r3, [pc, #112]	; (80009a8 <HAL_I2C_MspInit+0xa4>)
 8000936:	695a      	ldr	r2, [r3, #20]
 8000938:	2380      	movs	r3, #128	; 0x80
 800093a:	02db      	lsls	r3, r3, #11
 800093c:	4013      	ands	r3, r2
 800093e:	613b      	str	r3, [r7, #16]
 8000940:	693b      	ldr	r3, [r7, #16]
    /**I2C2 GPIO Configuration    
    PB10     ------> I2C2_SCL
    PB11     ------> I2C2_SDA 
    */
    GPIO_InitStruct.Pin = GPIO_PIN_10|GPIO_PIN_11;
 8000942:	2114      	movs	r1, #20
 8000944:	187b      	adds	r3, r7, r1
 8000946:	22c0      	movs	r2, #192	; 0xc0
 8000948:	0112      	lsls	r2, r2, #4
 800094a:	601a      	str	r2, [r3, #0]
    GPIO_InitStruct.Mode = GPIO_MODE_AF_OD;
 800094c:	187b      	adds	r3, r7, r1
 800094e:	2212      	movs	r2, #18
 8000950:	605a      	str	r2, [r3, #4]
    GPIO_InitStruct.Pull = GPIO_PULLUP;
 8000952:	187b      	adds	r3, r7, r1
 8000954:	2201      	movs	r2, #1
 8000956:	609a      	str	r2, [r3, #8]
    GPIO_InitStruct.Speed = GPIO_SPEED_FREQ_HIGH;
 8000958:	187b      	adds	r3, r7, r1
 800095a:	2203      	movs	r2, #3
 800095c:	60da      	str	r2, [r3, #12]
    GPIO_InitStruct.Alternate = GPIO_AF1_I2C2;
 800095e:	187b      	adds	r3, r7, r1
 8000960:	2201      	movs	r2, #1
 8000962:	611a      	str	r2, [r3, #16]
    HAL_GPIO_Init(GPIOB, &GPIO_InitStruct);
 8000964:	187b      	adds	r3, r7, r1
 8000966:	4a11      	ldr	r2, [pc, #68]	; (80009ac <HAL_I2C_MspInit+0xa8>)
 8000968:	0019      	movs	r1, r3
 800096a:	0010      	movs	r0, r2
 800096c:	f004 fa8a 	bl	8004e84 <HAL_GPIO_Init>

    /* I2C2 clock enable */
    __HAL_RCC_I2C2_CLK_ENABLE();
 8000970:	4b0d      	ldr	r3, [pc, #52]	; (80009a8 <HAL_I2C_MspInit+0xa4>)
 8000972:	69da      	ldr	r2, [r3, #28]
 8000974:	4b0c      	ldr	r3, [pc, #48]	; (80009a8 <HAL_I2C_MspInit+0xa4>)
 8000976:	2180      	movs	r1, #128	; 0x80
 8000978:	03c9      	lsls	r1, r1, #15
 800097a:	430a      	orrs	r2, r1
 800097c:	61da      	str	r2, [r3, #28]
 800097e:	4b0a      	ldr	r3, [pc, #40]	; (80009a8 <HAL_I2C_MspInit+0xa4>)
 8000980:	69da      	ldr	r2, [r3, #28]
 8000982:	2380      	movs	r3, #128	; 0x80
 8000984:	03db      	lsls	r3, r3, #15
 8000986:	4013      	ands	r3, r2
 8000988:	60fb      	str	r3, [r7, #12]
 800098a:	68fb      	ldr	r3, [r7, #12]

    /* I2C2 interrupt Init */
    HAL_NVIC_SetPriority(I2C2_IRQn, 2, 0);
 800098c:	2200      	movs	r2, #0
 800098e:	2102      	movs	r1, #2
 8000990:	2018      	movs	r0, #24
 8000992:	f004 f9ff 	bl	8004d94 <HAL_NVIC_SetPriority>
    HAL_NVIC_EnableIRQ(I2C2_IRQn);
 8000996:	2018      	movs	r0, #24
 8000998:	f004 fa11 	bl	8004dbe <HAL_NVIC_EnableIRQ>
  /* USER CODE BEGIN I2C2_MspInit 1 */

  /* USER CODE END I2C2_MspInit 1 */
  }
}
 800099c:	46c0      	nop			; (mov r8, r8)
 800099e:	46bd      	mov	sp, r7
 80009a0:	b00a      	add	sp, #40	; 0x28
 80009a2:	bd80      	pop	{r7, pc}
 80009a4:	40005800 	.word	0x40005800
 80009a8:	40021000 	.word	0x40021000
 80009ac:	48000400 	.word	0x48000400

080009b0 <CMD>:

#define LCDWIDTH 128
#define LCDHEIGHT 64

// Send command
void CMD(uint8_t command) {
 80009b0:	b580      	push	{r7, lr}
 80009b2:	b082      	sub	sp, #8
 80009b4:	af00      	add	r7, sp, #0
 80009b6:	0002      	movs	r2, r0
 80009b8:	1dfb      	adds	r3, r7, #7
 80009ba:	701a      	strb	r2, [r3, #0]
		HAL_GPIO_WritePin(ST7565_PORT, ST7565_A0_PIN, GPIO_PIN_RESET);
 80009bc:	2390      	movs	r3, #144	; 0x90
 80009be:	05db      	lsls	r3, r3, #23
 80009c0:	2200      	movs	r2, #0
 80009c2:	2120      	movs	r1, #32
 80009c4:	0018      	movs	r0, r3
 80009c6:	f004 fbea 	bl	800519e <HAL_GPIO_WritePin>
		st7565_sendbyte(command);
 80009ca:	1dfb      	adds	r3, r7, #7
 80009cc:	781b      	ldrb	r3, [r3, #0]
 80009ce:	0018      	movs	r0, r3
 80009d0:	f000 f874 	bl	8000abc <st7565_sendbyte>
}
 80009d4:	46c0      	nop			; (mov r8, r8)
 80009d6:	46bd      	mov	sp, r7
 80009d8:	b002      	add	sp, #8
 80009da:	bd80      	pop	{r7, pc}

080009dc <DATA>:

// Send data
void DATA(uint8_t data) {
 80009dc:	b580      	push	{r7, lr}
 80009de:	b082      	sub	sp, #8
 80009e0:	af00      	add	r7, sp, #0
 80009e2:	0002      	movs	r2, r0
 80009e4:	1dfb      	adds	r3, r7, #7
 80009e6:	701a      	strb	r2, [r3, #0]
	HAL_GPIO_WritePin(ST7565_PORT, ST7565_A0_PIN, GPIO_PIN_SET);
 80009e8:	2390      	movs	r3, #144	; 0x90
 80009ea:	05db      	lsls	r3, r3, #23
 80009ec:	2201      	movs	r2, #1
 80009ee:	2120      	movs	r1, #32
 80009f0:	0018      	movs	r0, r3
 80009f2:	f004 fbd4 	bl	800519e <HAL_GPIO_WritePin>
	st7565_sendbyte(data);
 80009f6:	1dfb      	adds	r3, r7, #7
 80009f8:	781b      	ldrb	r3, [r3, #0]
 80009fa:	0018      	movs	r0, r3
 80009fc:	f000 f85e 	bl	8000abc <st7565_sendbyte>
}
 8000a00:	46c0      	nop			; (mov r8, r8)
 8000a02:	46bd      	mov	sp, r7
 8000a04:	b002      	add	sp, #8
 8000a06:	bd80      	pop	{r7, pc}

08000a08 <DELAY>:

// Delay in ms
void DELAY(uint32_t delay)
{
 8000a08:	b580      	push	{r7, lr}
 8000a0a:	b082      	sub	sp, #8
 8000a0c:	af00      	add	r7, sp, #0
 8000a0e:	6078      	str	r0, [r7, #4]
	HAL_Delay(delay);
 8000a10:	687b      	ldr	r3, [r7, #4]
 8000a12:	0018      	movs	r0, r3
 8000a14:	f003 fdea 	bl	80045ec <HAL_Delay>
}
 8000a18:	46c0      	nop			; (mov r8, r8)
 8000a1a:	46bd      	mov	sp, r7
 8000a1c:	b002      	add	sp, #8
 8000a1e:	bd80      	pop	{r7, pc}

08000a20 <st7565_write_buffer>:

//Renders the buffer contents
void st7565_write_buffer(uint8_t *buffer) {
 8000a20:	b590      	push	{r4, r7, lr}
 8000a22:	b085      	sub	sp, #20
 8000a24:	af00      	add	r7, sp, #0
 8000a26:	6078      	str	r0, [r7, #4]
	uint8_t c, p;
	for (p = 0; p < 8; p++) {
 8000a28:	230e      	movs	r3, #14
 8000a2a:	18fb      	adds	r3, r7, r3
 8000a2c:	2200      	movs	r2, #0
 8000a2e:	701a      	strb	r2, [r3, #0]
 8000a30:	e039      	b.n	8000aa6 <st7565_write_buffer+0x86>
		CMD(ST7565_CMD_SET_PAGE | pagemap[p]);
 8000a32:	230e      	movs	r3, #14
 8000a34:	18fb      	adds	r3, r7, r3
 8000a36:	781b      	ldrb	r3, [r3, #0]
 8000a38:	4a1f      	ldr	r2, [pc, #124]	; (8000ab8 <st7565_write_buffer+0x98>)
 8000a3a:	5cd3      	ldrb	r3, [r2, r3]
 8000a3c:	2250      	movs	r2, #80	; 0x50
 8000a3e:	4252      	negs	r2, r2
 8000a40:	4313      	orrs	r3, r2
 8000a42:	b2db      	uxtb	r3, r3
 8000a44:	0018      	movs	r0, r3
 8000a46:	f7ff ffb3 	bl	80009b0 <CMD>
		CMD(ST7565_CMD_SET_COLUMN_LOWER | (0x0 & 0xf));
 8000a4a:	2000      	movs	r0, #0
 8000a4c:	f7ff ffb0 	bl	80009b0 <CMD>
		CMD(ST7565_CMD_SET_COLUMN_UPPER | ((0x0 >> 4) & 0xf));
 8000a50:	2010      	movs	r0, #16
 8000a52:	f7ff ffad 	bl	80009b0 <CMD>
		CMD(ST7565_CMD_RMW);
 8000a56:	20e0      	movs	r0, #224	; 0xe0
 8000a58:	f7ff ffaa 	bl	80009b0 <CMD>
		//DATA(0xff);
		for (c = 0; c < 128; c++) {
 8000a5c:	230f      	movs	r3, #15
 8000a5e:	18fb      	adds	r3, r7, r3
 8000a60:	2200      	movs	r2, #0
 8000a62:	701a      	strb	r2, [r3, #0]
 8000a64:	e013      	b.n	8000a8e <st7565_write_buffer+0x6e>
			DATA(buffer[(128 * p) + c]);
 8000a66:	230e      	movs	r3, #14
 8000a68:	18fb      	adds	r3, r7, r3
 8000a6a:	781b      	ldrb	r3, [r3, #0]
 8000a6c:	01da      	lsls	r2, r3, #7
 8000a6e:	240f      	movs	r4, #15
 8000a70:	193b      	adds	r3, r7, r4
 8000a72:	781b      	ldrb	r3, [r3, #0]
 8000a74:	18d3      	adds	r3, r2, r3
 8000a76:	001a      	movs	r2, r3
 8000a78:	687b      	ldr	r3, [r7, #4]
 8000a7a:	189b      	adds	r3, r3, r2
 8000a7c:	781b      	ldrb	r3, [r3, #0]
 8000a7e:	0018      	movs	r0, r3
 8000a80:	f7ff ffac 	bl	80009dc <DATA>
		for (c = 0; c < 128; c++) {
 8000a84:	193b      	adds	r3, r7, r4
 8000a86:	781a      	ldrb	r2, [r3, #0]
 8000a88:	193b      	adds	r3, r7, r4
 8000a8a:	3201      	adds	r2, #1
 8000a8c:	701a      	strb	r2, [r3, #0]
 8000a8e:	230f      	movs	r3, #15
 8000a90:	18fb      	adds	r3, r7, r3
 8000a92:	781b      	ldrb	r3, [r3, #0]
 8000a94:	b25b      	sxtb	r3, r3
 8000a96:	2b00      	cmp	r3, #0
 8000a98:	dae5      	bge.n	8000a66 <st7565_write_buffer+0x46>
	for (p = 0; p < 8; p++) {
 8000a9a:	210e      	movs	r1, #14
 8000a9c:	187b      	adds	r3, r7, r1
 8000a9e:	781a      	ldrb	r2, [r3, #0]
 8000aa0:	187b      	adds	r3, r7, r1
 8000aa2:	3201      	adds	r2, #1
 8000aa4:	701a      	strb	r2, [r3, #0]
 8000aa6:	230e      	movs	r3, #14
 8000aa8:	18fb      	adds	r3, r7, r3
 8000aaa:	781b      	ldrb	r3, [r3, #0]
 8000aac:	2b07      	cmp	r3, #7
 8000aae:	d9c0      	bls.n	8000a32 <st7565_write_buffer+0x12>
		}
	}
}
 8000ab0:	46c0      	nop			; (mov r8, r8)
 8000ab2:	46bd      	mov	sp, r7
 8000ab4:	b005      	add	sp, #20
 8000ab6:	bd90      	pop	{r4, r7, pc}
 8000ab8:	20000004 	.word	0x20000004

08000abc <st7565_sendbyte>:

// Simulates an SPI write using GPIO
// with byte, The byte to send
void st7565_sendbyte(uint8_t byte) {
 8000abc:	b590      	push	{r4, r7, lr}
 8000abe:	b085      	sub	sp, #20
 8000ac0:	af00      	add	r7, sp, #0
 8000ac2:	0002      	movs	r2, r0
 8000ac4:	1dfb      	adds	r3, r7, #7
 8000ac6:	701a      	strb	r2, [r3, #0]
	int8_t i;
	// Make sure clock pin starts high
	HAL_GPIO_WritePin(ST7565_PORT, ST7565_SCLK_PIN, GPIO_PIN_SET);
 8000ac8:	2390      	movs	r3, #144	; 0x90
 8000aca:	05db      	lsls	r3, r3, #23
 8000acc:	2201      	movs	r2, #1
 8000ace:	2180      	movs	r1, #128	; 0x80
 8000ad0:	0018      	movs	r0, r3
 8000ad2:	f004 fb64 	bl	800519e <HAL_GPIO_WritePin>
	// Write from MSB to LSB
	for (i = 7; i >= 0; i--) {
 8000ad6:	230f      	movs	r3, #15
 8000ad8:	18fb      	adds	r3, r7, r3
 8000ada:	2207      	movs	r2, #7
 8000adc:	701a      	strb	r2, [r3, #0]
 8000ade:	e027      	b.n	8000b30 <st7565_sendbyte+0x74>
		// Set clock pin low
		HAL_GPIO_WritePin(ST7565_PORT, ST7565_SCLK_PIN, GPIO_PIN_RESET);
 8000ae0:	2390      	movs	r3, #144	; 0x90
 8000ae2:	05db      	lsls	r3, r3, #23
 8000ae4:	2200      	movs	r2, #0
 8000ae6:	2180      	movs	r1, #128	; 0x80
 8000ae8:	0018      	movs	r0, r3
 8000aea:	f004 fb58 	bl	800519e <HAL_GPIO_WritePin>
		// Set data pin high or low depending on the value of the current bit
		HAL_GPIO_WritePin(ST7565_PORT, ST7565_SDAT_PIN,	byte & (1 << i) ? 1 : 0);
 8000aee:	1dfb      	adds	r3, r7, #7
 8000af0:	781a      	ldrb	r2, [r3, #0]
 8000af2:	240f      	movs	r4, #15
 8000af4:	193b      	adds	r3, r7, r4
 8000af6:	781b      	ldrb	r3, [r3, #0]
 8000af8:	b25b      	sxtb	r3, r3
 8000afa:	411a      	asrs	r2, r3
 8000afc:	0013      	movs	r3, r2
 8000afe:	b2db      	uxtb	r3, r3
 8000b00:	2201      	movs	r2, #1
 8000b02:	4013      	ands	r3, r2
 8000b04:	b2da      	uxtb	r2, r3
 8000b06:	2390      	movs	r3, #144	; 0x90
 8000b08:	05db      	lsls	r3, r3, #23
 8000b0a:	2140      	movs	r1, #64	; 0x40
 8000b0c:	0018      	movs	r0, r3
 8000b0e:	f004 fb46 	bl	800519e <HAL_GPIO_WritePin>
		// Set clock pin high
		HAL_GPIO_WritePin(ST7565_PORT, ST7565_SCLK_PIN, GPIO_PIN_SET);
 8000b12:	2390      	movs	r3, #144	; 0x90
 8000b14:	05db      	lsls	r3, r3, #23
 8000b16:	2201      	movs	r2, #1
 8000b18:	2180      	movs	r1, #128	; 0x80
 8000b1a:	0018      	movs	r0, r3
 8000b1c:	f004 fb3f 	bl	800519e <HAL_GPIO_WritePin>
	for (i = 7; i >= 0; i--) {
 8000b20:	193b      	adds	r3, r7, r4
 8000b22:	781b      	ldrb	r3, [r3, #0]
 8000b24:	b25b      	sxtb	r3, r3
 8000b26:	b2db      	uxtb	r3, r3
 8000b28:	3b01      	subs	r3, #1
 8000b2a:	b2da      	uxtb	r2, r3
 8000b2c:	193b      	adds	r3, r7, r4
 8000b2e:	701a      	strb	r2, [r3, #0]
 8000b30:	230f      	movs	r3, #15
 8000b32:	18fb      	adds	r3, r7, r3
 8000b34:	781b      	ldrb	r3, [r3, #0]
 8000b36:	2b7f      	cmp	r3, #127	; 0x7f
 8000b38:	d9d2      	bls.n	8000ae0 <st7565_sendbyte+0x24>
	}
}
 8000b3a:	46c0      	nop			; (mov r8, r8)
 8000b3c:	46bd      	mov	sp, r7
 8000b3e:	b005      	add	sp, #20
 8000b40:	bd90      	pop	{r4, r7, pc}

08000b42 <st7565_init>:

//Initialises the ST7565 LCD display
void st7565_init(void) {
 8000b42:	b580      	push	{r7, lr}
 8000b44:	af00      	add	r7, sp, #0
	// Set clock pin to high
	HAL_GPIO_WritePin(ST7565_PORT, ST7565_SCLK_PIN, GPIO_PIN_SET);
 8000b46:	2390      	movs	r3, #144	; 0x90
 8000b48:	05db      	lsls	r3, r3, #23
 8000b4a:	2201      	movs	r2, #1
 8000b4c:	2180      	movs	r1, #128	; 0x80
 8000b4e:	0018      	movs	r0, r3
 8000b50:	f004 fb25 	bl	800519e <HAL_GPIO_WritePin>
	// Set data pin to output and high
	HAL_GPIO_WritePin(ST7565_PORT, ST7565_SDAT_PIN, GPIO_PIN_SET);
 8000b54:	2390      	movs	r3, #144	; 0x90
 8000b56:	05db      	lsls	r3, r3, #23
 8000b58:	2201      	movs	r2, #1
 8000b5a:	2140      	movs	r1, #64	; 0x40
 8000b5c:	0018      	movs	r0, r3
 8000b5e:	f004 fb1e 	bl	800519e <HAL_GPIO_WritePin>
	// Configure backlight A+ pin to output and set high (off)
	HAL_GPIO_WritePin(ST7565_PORT, ST7565_BL_PIN, GPIO_PIN_SET);
 8000b62:	2390      	movs	r3, #144	; 0x90
 8000b64:	05db      	lsls	r3, r3, #23
 8000b66:	2201      	movs	r2, #1
 8000b68:	2104      	movs	r1, #4
 8000b6a:	0018      	movs	r0, r3
 8000b6c:	f004 fb17 	bl	800519e <HAL_GPIO_WritePin>

	// Configure A0 pin to output and set high
	HAL_GPIO_WritePin(ST7565_PORT, ST7565_A0_PIN, GPIO_PIN_SET);
 8000b70:	2390      	movs	r3, #144	; 0x90
 8000b72:	05db      	lsls	r3, r3, #23
 8000b74:	2201      	movs	r2, #1
 8000b76:	2120      	movs	r1, #32
 8000b78:	0018      	movs	r0, r3
 8000b7a:	f004 fb10 	bl	800519e <HAL_GPIO_WritePin>

	// Configure Reset pin and set high
	HAL_GPIO_WritePin(ST7565_PORT, ST7565_RST_PIN, GPIO_PIN_SET);
 8000b7e:	2390      	movs	r3, #144	; 0x90
 8000b80:	05db      	lsls	r3, r3, #23
 8000b82:	2201      	movs	r2, #1
 8000b84:	2110      	movs	r1, #16
 8000b86:	0018      	movs	r0, r3
 8000b88:	f004 fb09 	bl	800519e <HAL_GPIO_WritePin>

	// Configure select pin and set high
	HAL_GPIO_WritePin(ST7565_PORT, ST7565_CS_PIN, GPIO_PIN_SET);
 8000b8c:	2390      	movs	r3, #144	; 0x90
 8000b8e:	05db      	lsls	r3, r3, #23
 8000b90:	2201      	movs	r2, #1
 8000b92:	2108      	movs	r1, #8
 8000b94:	0018      	movs	r0, r3
 8000b96:	f004 fb02 	bl	800519e <HAL_GPIO_WritePin>

	// Reset
	HAL_GPIO_WritePin(ST7565_PORT, ST7565_CS_PIN, GPIO_PIN_RESET);    // Set CS low
 8000b9a:	2390      	movs	r3, #144	; 0x90
 8000b9c:	05db      	lsls	r3, r3, #23
 8000b9e:	2200      	movs	r2, #0
 8000ba0:	2108      	movs	r1, #8
 8000ba2:	0018      	movs	r0, r3
 8000ba4:	f004 fafb 	bl	800519e <HAL_GPIO_WritePin>
	HAL_GPIO_WritePin(ST7565_PORT, ST7565_RST_PIN, GPIO_PIN_RESET);   // Set reset low
 8000ba8:	2390      	movs	r3, #144	; 0x90
 8000baa:	05db      	lsls	r3, r3, #23
 8000bac:	2200      	movs	r2, #0
 8000bae:	2110      	movs	r1, #16
 8000bb0:	0018      	movs	r0, r3
 8000bb2:	f004 faf4 	bl	800519e <HAL_GPIO_WritePin>
	DELAY(500);                // Wait 500mS
 8000bb6:	23fa      	movs	r3, #250	; 0xfa
 8000bb8:	005b      	lsls	r3, r3, #1
 8000bba:	0018      	movs	r0, r3
 8000bbc:	f7ff ff24 	bl	8000a08 <DELAY>
	HAL_GPIO_WritePin(ST7565_PORT, ST7565_RST_PIN, GPIO_PIN_SET);   // Set reset high
 8000bc0:	2390      	movs	r3, #144	; 0x90
 8000bc2:	05db      	lsls	r3, r3, #23
 8000bc4:	2201      	movs	r2, #1
 8000bc6:	2110      	movs	r1, #16
 8000bc8:	0018      	movs	r0, r3
 8000bca:	f004 fae8 	bl	800519e <HAL_GPIO_WritePin>

	// Configure Display
	CMD(ST7565_CMD_SET_BIAS_7);                         // LCD Bias Select
 8000bce:	20a3      	movs	r0, #163	; 0xa3
 8000bd0:	f7ff feee 	bl	80009b0 <CMD>
	CMD(ST7565_CMD_SET_ADC_NORMAL);                     // ADC Select
 8000bd4:	20a0      	movs	r0, #160	; 0xa0
 8000bd6:	f7ff feeb 	bl	80009b0 <CMD>
	CMD(ST7565_CMD_SET_COM_NORMAL);                     // SHL Select
 8000bda:	20c0      	movs	r0, #192	; 0xc0
 8000bdc:	f7ff fee8 	bl	80009b0 <CMD>
	CMD(ST7565_CMD_SET_DISP_START_LINE);                // Initial Display Line
 8000be0:	2040      	movs	r0, #64	; 0x40
 8000be2:	f7ff fee5 	bl	80009b0 <CMD>
	CMD(ST7565_CMD_SET_POWER_CONTROL | 0x04); // Turn on voltage converter (VC=1, VR=0, VF=0)
 8000be6:	202c      	movs	r0, #44	; 0x2c
 8000be8:	f7ff fee2 	bl	80009b0 <CMD>
	DELAY(50);                // Wait 50mS
 8000bec:	2032      	movs	r0, #50	; 0x32
 8000bee:	f7ff ff0b 	bl	8000a08 <DELAY>
	CMD(ST7565_CMD_SET_POWER_CONTROL | 0x06); // Turn on voltage regulator (VC=1, VR=1, VF=0)
 8000bf2:	202e      	movs	r0, #46	; 0x2e
 8000bf4:	f7ff fedc 	bl	80009b0 <CMD>
	DELAY(50);                // Wait 50mS
 8000bf8:	2032      	movs	r0, #50	; 0x32
 8000bfa:	f7ff ff05 	bl	8000a08 <DELAY>
	CMD(ST7565_CMD_SET_POWER_CONTROL | 0x07);        // Turn on voltage follower
 8000bfe:	202f      	movs	r0, #47	; 0x2f
 8000c00:	f7ff fed6 	bl	80009b0 <CMD>
	DELAY(10);                // Wait 10mS
 8000c04:	200a      	movs	r0, #10
 8000c06:	f7ff feff 	bl	8000a08 <DELAY>
	CMD(ST7565_CMD_SET_RESISTOR_RATIO | 0x6);       // Set LCD operating voltage
 8000c0a:	2026      	movs	r0, #38	; 0x26
 8000c0c:	f7ff fed0 	bl	80009b0 <CMD>

	// Turn display on
	CMD(ST7565_CMD_DISPLAY_ON);
 8000c10:	20af      	movs	r0, #175	; 0xaf
 8000c12:	f7ff fecd 	bl	80009b0 <CMD>
	CMD(ST7565_CMD_SET_ALLPTS_NORMAL);
 8000c16:	20a4      	movs	r0, #164	; 0xa4
 8000c18:	f7ff feca 	bl	80009b0 <CMD>
	st7565_set_brightness(0x18);
 8000c1c:	2018      	movs	r0, #24
 8000c1e:	f000 f811 	bl	8000c44 <st7565_set_brightness>
	st7565_clear_screen();
 8000c22:	f000 f824 	bl	8000c6e <st7565_clear_screen>
	//Write the Adafruit-Logo, clear the buffer, wait and fade out
	//st7565_write_buffer(logosenso_glcd_bmp);
	//st7565_clear_buffer(logosenso_glcd_bmp);
	//DELAY(800);
	//st7565_fade_out(24);
}
 8000c26:	46c0      	nop			; (mov r8, r8)
 8000c28:	46bd      	mov	sp, r7
 8000c2a:	bd80      	pop	{r7, pc}

08000c2c <st7565_backlight_enable>:

//Enables the backlight
void st7565_backlight_enable(void) {
 8000c2c:	b580      	push	{r7, lr}
 8000c2e:	af00      	add	r7, sp, #0
	HAL_GPIO_WritePin( ST7565_PORT, ST7565_BL_PIN, GPIO_PIN_SET);
 8000c30:	2390      	movs	r3, #144	; 0x90
 8000c32:	05db      	lsls	r3, r3, #23
 8000c34:	2201      	movs	r2, #1
 8000c36:	2104      	movs	r1, #4
 8000c38:	0018      	movs	r0, r3
 8000c3a:	f004 fab0 	bl	800519e <HAL_GPIO_WritePin>
}
 8000c3e:	46c0      	nop			; (mov r8, r8)
 8000c40:	46bd      	mov	sp, r7
 8000c42:	bd80      	pop	{r7, pc}

08000c44 <st7565_set_brightness>:
void st7565_backlight_disable(void) {
	HAL_GPIO_WritePin( ST7565_PORT, ST7565_BL_PIN, GPIO_PIN_RESET);
}

//Sets the display brightness
void st7565_set_brightness(uint8_t val) {
 8000c44:	b580      	push	{r7, lr}
 8000c46:	b082      	sub	sp, #8
 8000c48:	af00      	add	r7, sp, #0
 8000c4a:	0002      	movs	r2, r0
 8000c4c:	1dfb      	adds	r3, r7, #7
 8000c4e:	701a      	strb	r2, [r3, #0]
	CMD(ST7565_CMD_SET_VOLUME_FIRST);
 8000c50:	2081      	movs	r0, #129	; 0x81
 8000c52:	f7ff fead 	bl	80009b0 <CMD>
	CMD(ST7565_CMD_SET_VOLUME_SECOND | (val & 0x3f));
 8000c56:	1dfb      	adds	r3, r7, #7
 8000c58:	781b      	ldrb	r3, [r3, #0]
 8000c5a:	223f      	movs	r2, #63	; 0x3f
 8000c5c:	4013      	ands	r3, r2
 8000c5e:	b2db      	uxtb	r3, r3
 8000c60:	0018      	movs	r0, r3
 8000c62:	f7ff fea5 	bl	80009b0 <CMD>
}
 8000c66:	46c0      	nop			; (mov r8, r8)
 8000c68:	46bd      	mov	sp, r7
 8000c6a:	b002      	add	sp, #8
 8000c6c:	bd80      	pop	{r7, pc}

08000c6e <st7565_clear_screen>:
		DELAY(100);
	}
}

//Clears the screen
void st7565_clear_screen(void) {
 8000c6e:	b580      	push	{r7, lr}
 8000c70:	b082      	sub	sp, #8
 8000c72:	af00      	add	r7, sp, #0
	uint8_t p, c;
	for (p = 0; p < 8; p++) {
 8000c74:	1dfb      	adds	r3, r7, #7
 8000c76:	2200      	movs	r2, #0
 8000c78:	701a      	strb	r2, [r3, #0]
 8000c7a:	e031      	b.n	8000ce0 <st7565_clear_screen+0x72>
		CMD(ST7565_CMD_SET_PAGE | p);
 8000c7c:	1dfb      	adds	r3, r7, #7
 8000c7e:	781b      	ldrb	r3, [r3, #0]
 8000c80:	2250      	movs	r2, #80	; 0x50
 8000c82:	4252      	negs	r2, r2
 8000c84:	4313      	orrs	r3, r2
 8000c86:	b2db      	uxtb	r3, r3
 8000c88:	0018      	movs	r0, r3
 8000c8a:	f7ff fe91 	bl	80009b0 <CMD>
		for (c = 0; c < 129; c++) {
 8000c8e:	1dbb      	adds	r3, r7, #6
 8000c90:	2200      	movs	r2, #0
 8000c92:	701a      	strb	r2, [r3, #0]
 8000c94:	e01b      	b.n	8000cce <st7565_clear_screen+0x60>
			CMD(ST7565_CMD_SET_COLUMN_LOWER | (c & 0xf));
 8000c96:	1dbb      	adds	r3, r7, #6
 8000c98:	781b      	ldrb	r3, [r3, #0]
 8000c9a:	220f      	movs	r2, #15
 8000c9c:	4013      	ands	r3, r2
 8000c9e:	b2db      	uxtb	r3, r3
 8000ca0:	0018      	movs	r0, r3
 8000ca2:	f7ff fe85 	bl	80009b0 <CMD>
			CMD(ST7565_CMD_SET_COLUMN_UPPER | ((c >> 4) & 0xf));
 8000ca6:	1dbb      	adds	r3, r7, #6
 8000ca8:	781b      	ldrb	r3, [r3, #0]
 8000caa:	091b      	lsrs	r3, r3, #4
 8000cac:	b2db      	uxtb	r3, r3
 8000cae:	b25b      	sxtb	r3, r3
 8000cb0:	2210      	movs	r2, #16
 8000cb2:	4313      	orrs	r3, r2
 8000cb4:	b25b      	sxtb	r3, r3
 8000cb6:	b2db      	uxtb	r3, r3
 8000cb8:	0018      	movs	r0, r3
 8000cba:	f7ff fe79 	bl	80009b0 <CMD>
			DATA(0x0);
 8000cbe:	2000      	movs	r0, #0
 8000cc0:	f7ff fe8c 	bl	80009dc <DATA>
		for (c = 0; c < 129; c++) {
 8000cc4:	1dbb      	adds	r3, r7, #6
 8000cc6:	781a      	ldrb	r2, [r3, #0]
 8000cc8:	1dbb      	adds	r3, r7, #6
 8000cca:	3201      	adds	r2, #1
 8000ccc:	701a      	strb	r2, [r3, #0]
 8000cce:	1dbb      	adds	r3, r7, #6
 8000cd0:	781b      	ldrb	r3, [r3, #0]
 8000cd2:	2b80      	cmp	r3, #128	; 0x80
 8000cd4:	d9df      	bls.n	8000c96 <st7565_clear_screen+0x28>
	for (p = 0; p < 8; p++) {
 8000cd6:	1dfb      	adds	r3, r7, #7
 8000cd8:	781a      	ldrb	r2, [r3, #0]
 8000cda:	1dfb      	adds	r3, r7, #7
 8000cdc:	3201      	adds	r2, #1
 8000cde:	701a      	strb	r2, [r3, #0]
 8000ce0:	1dfb      	adds	r3, r7, #7
 8000ce2:	781b      	ldrb	r3, [r3, #0]
 8000ce4:	2b07      	cmp	r3, #7
 8000ce6:	d9c9      	bls.n	8000c7c <st7565_clear_screen+0xe>
		}
	}
}
 8000ce8:	46c0      	nop			; (mov r8, r8)
 8000cea:	46bd      	mov	sp, r7
 8000cec:	b002      	add	sp, #8
 8000cee:	bd80      	pop	{r7, pc}

08000cf0 <st7565_clear_buffer>:

// clear everything
void st7565_clear_buffer(uint8_t *buff) {
 8000cf0:	b580      	push	{r7, lr}
 8000cf2:	b082      	sub	sp, #8
 8000cf4:	af00      	add	r7, sp, #0
 8000cf6:	6078      	str	r0, [r7, #4]
	memset(buff, 0, 1024);
 8000cf8:	2380      	movs	r3, #128	; 0x80
 8000cfa:	00da      	lsls	r2, r3, #3
 8000cfc:	687b      	ldr	r3, [r7, #4]
 8000cfe:	2100      	movs	r1, #0
 8000d00:	0018      	movs	r0, r3
 8000d02:	f007 fb9d 	bl	8008440 <memset>
}
 8000d06:	46c0      	nop			; (mov r8, r8)
 8000d08:	46bd      	mov	sp, r7
 8000d0a:	b002      	add	sp, #8
 8000d0c:	bd80      	pop	{r7, pc}

08000d0e <st7565_setpixel>:
#define XPOS 0
#define YPOS 1
#define DELTAY 2

//set *pixel on *x/*y with *color
void st7565_setpixel(uint8_t *buff, uint8_t x, uint8_t y, uint8_t color) {
 8000d0e:	b590      	push	{r4, r7, lr}
 8000d10:	b083      	sub	sp, #12
 8000d12:	af00      	add	r7, sp, #0
 8000d14:	6078      	str	r0, [r7, #4]
 8000d16:	000c      	movs	r4, r1
 8000d18:	0010      	movs	r0, r2
 8000d1a:	0019      	movs	r1, r3
 8000d1c:	1cfb      	adds	r3, r7, #3
 8000d1e:	1c22      	adds	r2, r4, #0
 8000d20:	701a      	strb	r2, [r3, #0]
 8000d22:	1cbb      	adds	r3, r7, #2
 8000d24:	1c02      	adds	r2, r0, #0
 8000d26:	701a      	strb	r2, [r3, #0]
 8000d28:	1c7b      	adds	r3, r7, #1
 8000d2a:	1c0a      	adds	r2, r1, #0
 8000d2c:	701a      	strb	r2, [r3, #0]
	if ((x >= LCDWIDTH) || (y >= LCDHEIGHT))
 8000d2e:	1cfb      	adds	r3, r7, #3
 8000d30:	781b      	ldrb	r3, [r3, #0]
 8000d32:	b25b      	sxtb	r3, r3
 8000d34:	2b00      	cmp	r3, #0
 8000d36:	db51      	blt.n	8000ddc <st7565_setpixel+0xce>
 8000d38:	1cbb      	adds	r3, r7, #2
 8000d3a:	781b      	ldrb	r3, [r3, #0]
 8000d3c:	2b3f      	cmp	r3, #63	; 0x3f
 8000d3e:	d84d      	bhi.n	8000ddc <st7565_setpixel+0xce>
		return;
// x is which column

	if (color)
 8000d40:	1c7b      	adds	r3, r7, #1
 8000d42:	781b      	ldrb	r3, [r3, #0]
 8000d44:	2b00      	cmp	r3, #0
 8000d46:	d023      	beq.n	8000d90 <st7565_setpixel+0x82>
		buff[x + (y / 8) * 128] |= (1 << (7 - (y % 8)));
 8000d48:	1cfb      	adds	r3, r7, #3
 8000d4a:	781a      	ldrb	r2, [r3, #0]
 8000d4c:	1cbb      	adds	r3, r7, #2
 8000d4e:	781b      	ldrb	r3, [r3, #0]
 8000d50:	08db      	lsrs	r3, r3, #3
 8000d52:	b2d8      	uxtb	r0, r3
 8000d54:	0003      	movs	r3, r0
 8000d56:	01db      	lsls	r3, r3, #7
 8000d58:	18d3      	adds	r3, r2, r3
 8000d5a:	001a      	movs	r2, r3
 8000d5c:	687b      	ldr	r3, [r7, #4]
 8000d5e:	189b      	adds	r3, r3, r2
 8000d60:	781b      	ldrb	r3, [r3, #0]
 8000d62:	b25a      	sxtb	r2, r3
 8000d64:	1cbb      	adds	r3, r7, #2
 8000d66:	781b      	ldrb	r3, [r3, #0]
 8000d68:	43db      	mvns	r3, r3
 8000d6a:	2107      	movs	r1, #7
 8000d6c:	400b      	ands	r3, r1
 8000d6e:	2101      	movs	r1, #1
 8000d70:	4099      	lsls	r1, r3
 8000d72:	000b      	movs	r3, r1
 8000d74:	b25b      	sxtb	r3, r3
 8000d76:	4313      	orrs	r3, r2
 8000d78:	b259      	sxtb	r1, r3
 8000d7a:	1cfb      	adds	r3, r7, #3
 8000d7c:	781a      	ldrb	r2, [r3, #0]
 8000d7e:	0003      	movs	r3, r0
 8000d80:	01db      	lsls	r3, r3, #7
 8000d82:	18d3      	adds	r3, r2, r3
 8000d84:	001a      	movs	r2, r3
 8000d86:	687b      	ldr	r3, [r7, #4]
 8000d88:	189b      	adds	r3, r3, r2
 8000d8a:	b2ca      	uxtb	r2, r1
 8000d8c:	701a      	strb	r2, [r3, #0]
 8000d8e:	e026      	b.n	8000dde <st7565_setpixel+0xd0>
	else
		buff[x + (y / 8) * 128] &= ~(1 << (7 - (y % 8)));
 8000d90:	1cfb      	adds	r3, r7, #3
 8000d92:	781a      	ldrb	r2, [r3, #0]
 8000d94:	1cbb      	adds	r3, r7, #2
 8000d96:	781b      	ldrb	r3, [r3, #0]
 8000d98:	08db      	lsrs	r3, r3, #3
 8000d9a:	b2d8      	uxtb	r0, r3
 8000d9c:	0003      	movs	r3, r0
 8000d9e:	01db      	lsls	r3, r3, #7
 8000da0:	18d3      	adds	r3, r2, r3
 8000da2:	001a      	movs	r2, r3
 8000da4:	687b      	ldr	r3, [r7, #4]
 8000da6:	189b      	adds	r3, r3, r2
 8000da8:	781b      	ldrb	r3, [r3, #0]
 8000daa:	b25b      	sxtb	r3, r3
 8000dac:	1cba      	adds	r2, r7, #2
 8000dae:	7812      	ldrb	r2, [r2, #0]
 8000db0:	43d2      	mvns	r2, r2
 8000db2:	2107      	movs	r1, #7
 8000db4:	400a      	ands	r2, r1
 8000db6:	2101      	movs	r1, #1
 8000db8:	4091      	lsls	r1, r2
 8000dba:	000a      	movs	r2, r1
 8000dbc:	b252      	sxtb	r2, r2
 8000dbe:	43d2      	mvns	r2, r2
 8000dc0:	b252      	sxtb	r2, r2
 8000dc2:	4013      	ands	r3, r2
 8000dc4:	b259      	sxtb	r1, r3
 8000dc6:	1cfb      	adds	r3, r7, #3
 8000dc8:	781a      	ldrb	r2, [r3, #0]
 8000dca:	0003      	movs	r3, r0
 8000dcc:	01db      	lsls	r3, r3, #7
 8000dce:	18d3      	adds	r3, r2, r3
 8000dd0:	001a      	movs	r2, r3
 8000dd2:	687b      	ldr	r3, [r7, #4]
 8000dd4:	189b      	adds	r3, r3, r2
 8000dd6:	b2ca      	uxtb	r2, r1
 8000dd8:	701a      	strb	r2, [r3, #0]
 8000dda:	e000      	b.n	8000dde <st7565_setpixel+0xd0>
		return;
 8000ddc:	46c0      	nop			; (mov r8, r8)
}
 8000dde:	46bd      	mov	sp, r7
 8000de0:	b003      	add	sp, #12
 8000de2:	bd90      	pop	{r4, r7, pc}

08000de4 <st7565_drawbitmap>:

//draw pixel at *x/*y from *bitmap
void st7565_drawbitmap(uint8_t *buff, uint8_t x, uint8_t y,
		const uint8_t *bitmap, uint8_t w, uint8_t h, uint8_t color) {
 8000de4:	b580      	push	{r7, lr}
 8000de6:	b086      	sub	sp, #24
 8000de8:	af00      	add	r7, sp, #0
 8000dea:	60f8      	str	r0, [r7, #12]
 8000dec:	0008      	movs	r0, r1
 8000dee:	0011      	movs	r1, r2
 8000df0:	607b      	str	r3, [r7, #4]
 8000df2:	230b      	movs	r3, #11
 8000df4:	18fb      	adds	r3, r7, r3
 8000df6:	1c02      	adds	r2, r0, #0
 8000df8:	701a      	strb	r2, [r3, #0]
 8000dfa:	230a      	movs	r3, #10
 8000dfc:	18fb      	adds	r3, r7, r3
 8000dfe:	1c0a      	adds	r2, r1, #0
 8000e00:	701a      	strb	r2, [r3, #0]
	uint8_t j, i;
	for (j = 0; j < h; j++) {
 8000e02:	2317      	movs	r3, #23
 8000e04:	18fb      	adds	r3, r7, r3
 8000e06:	2200      	movs	r2, #0
 8000e08:	701a      	strb	r2, [r3, #0]
 8000e0a:	e049      	b.n	8000ea0 <st7565_drawbitmap+0xbc>
		for (i = 0; i < w; i++) {
 8000e0c:	2316      	movs	r3, #22
 8000e0e:	18fb      	adds	r3, r7, r3
 8000e10:	2200      	movs	r2, #0
 8000e12:	701a      	strb	r2, [r3, #0]
 8000e14:	e036      	b.n	8000e84 <st7565_drawbitmap+0xa0>
			if (*(bitmap + i + (j / 8) * w) & (1 << (j % 8))) {
 8000e16:	2316      	movs	r3, #22
 8000e18:	18fb      	adds	r3, r7, r3
 8000e1a:	781b      	ldrb	r3, [r3, #0]
 8000e1c:	2017      	movs	r0, #23
 8000e1e:	183a      	adds	r2, r7, r0
 8000e20:	7812      	ldrb	r2, [r2, #0]
 8000e22:	08d2      	lsrs	r2, r2, #3
 8000e24:	b2d2      	uxtb	r2, r2
 8000e26:	0011      	movs	r1, r2
 8000e28:	2220      	movs	r2, #32
 8000e2a:	18ba      	adds	r2, r7, r2
 8000e2c:	7812      	ldrb	r2, [r2, #0]
 8000e2e:	434a      	muls	r2, r1
 8000e30:	189b      	adds	r3, r3, r2
 8000e32:	687a      	ldr	r2, [r7, #4]
 8000e34:	18d3      	adds	r3, r2, r3
 8000e36:	781b      	ldrb	r3, [r3, #0]
 8000e38:	0019      	movs	r1, r3
 8000e3a:	183b      	adds	r3, r7, r0
 8000e3c:	781b      	ldrb	r3, [r3, #0]
 8000e3e:	2207      	movs	r2, #7
 8000e40:	4013      	ands	r3, r2
 8000e42:	4119      	asrs	r1, r3
 8000e44:	000b      	movs	r3, r1
 8000e46:	2201      	movs	r2, #1
 8000e48:	4013      	ands	r3, r2
 8000e4a:	d015      	beq.n	8000e78 <st7565_drawbitmap+0x94>
				st7565_setpixel(buff, x + i, y + j, color);
 8000e4c:	230b      	movs	r3, #11
 8000e4e:	18fa      	adds	r2, r7, r3
 8000e50:	2316      	movs	r3, #22
 8000e52:	18fb      	adds	r3, r7, r3
 8000e54:	7812      	ldrb	r2, [r2, #0]
 8000e56:	781b      	ldrb	r3, [r3, #0]
 8000e58:	18d3      	adds	r3, r2, r3
 8000e5a:	b2d9      	uxtb	r1, r3
 8000e5c:	230a      	movs	r3, #10
 8000e5e:	18fa      	adds	r2, r7, r3
 8000e60:	2317      	movs	r3, #23
 8000e62:	18fb      	adds	r3, r7, r3
 8000e64:	7812      	ldrb	r2, [r2, #0]
 8000e66:	781b      	ldrb	r3, [r3, #0]
 8000e68:	18d3      	adds	r3, r2, r3
 8000e6a:	b2da      	uxtb	r2, r3
 8000e6c:	2328      	movs	r3, #40	; 0x28
 8000e6e:	18fb      	adds	r3, r7, r3
 8000e70:	781b      	ldrb	r3, [r3, #0]
 8000e72:	68f8      	ldr	r0, [r7, #12]
 8000e74:	f7ff ff4b 	bl	8000d0e <st7565_setpixel>
		for (i = 0; i < w; i++) {
 8000e78:	2116      	movs	r1, #22
 8000e7a:	187b      	adds	r3, r7, r1
 8000e7c:	781a      	ldrb	r2, [r3, #0]
 8000e7e:	187b      	adds	r3, r7, r1
 8000e80:	3201      	adds	r2, #1
 8000e82:	701a      	strb	r2, [r3, #0]
 8000e84:	2316      	movs	r3, #22
 8000e86:	18fb      	adds	r3, r7, r3
 8000e88:	2220      	movs	r2, #32
 8000e8a:	18b9      	adds	r1, r7, r2
 8000e8c:	781a      	ldrb	r2, [r3, #0]
 8000e8e:	780b      	ldrb	r3, [r1, #0]
 8000e90:	429a      	cmp	r2, r3
 8000e92:	d3c0      	bcc.n	8000e16 <st7565_drawbitmap+0x32>
	for (j = 0; j < h; j++) {
 8000e94:	2117      	movs	r1, #23
 8000e96:	187b      	adds	r3, r7, r1
 8000e98:	781a      	ldrb	r2, [r3, #0]
 8000e9a:	187b      	adds	r3, r7, r1
 8000e9c:	3201      	adds	r2, #1
 8000e9e:	701a      	strb	r2, [r3, #0]
 8000ea0:	2317      	movs	r3, #23
 8000ea2:	18fa      	adds	r2, r7, r3
 8000ea4:	2324      	movs	r3, #36	; 0x24
 8000ea6:	18fb      	adds	r3, r7, r3
 8000ea8:	7812      	ldrb	r2, [r2, #0]
 8000eaa:	781b      	ldrb	r3, [r3, #0]
 8000eac:	429a      	cmp	r2, r3
 8000eae:	d3ad      	bcc.n	8000e0c <st7565_drawbitmap+0x28>
			}
		}
	}
}
 8000eb0:	46c0      	nop			; (mov r8, r8)
 8000eb2:	46bd      	mov	sp, r7
 8000eb4:	b006      	add	sp, #24
 8000eb6:	bd80      	pop	{r7, pc}

08000eb8 <st7565_drawstring>:

//draw a sting at *x/*y
void st7565_drawstring(uint8_t *buff, uint8_t x, uint8_t line, uint8_t *c) {
 8000eb8:	b5b0      	push	{r4, r5, r7, lr}
 8000eba:	b084      	sub	sp, #16
 8000ebc:	af00      	add	r7, sp, #0
 8000ebe:	60f8      	str	r0, [r7, #12]
 8000ec0:	0008      	movs	r0, r1
 8000ec2:	0011      	movs	r1, r2
 8000ec4:	607b      	str	r3, [r7, #4]
 8000ec6:	230b      	movs	r3, #11
 8000ec8:	18fb      	adds	r3, r7, r3
 8000eca:	1c02      	adds	r2, r0, #0
 8000ecc:	701a      	strb	r2, [r3, #0]
 8000ece:	230a      	movs	r3, #10
 8000ed0:	18fb      	adds	r3, r7, r3
 8000ed2:	1c0a      	adds	r2, r1, #0
 8000ed4:	701a      	strb	r2, [r3, #0]
	while (c[0] != 0) {
 8000ed6:	e029      	b.n	8000f2c <st7565_drawstring+0x74>
		st7565_drawchar(buff, x, line, c[0]);
 8000ed8:	687b      	ldr	r3, [r7, #4]
 8000eda:	781c      	ldrb	r4, [r3, #0]
 8000edc:	230a      	movs	r3, #10
 8000ede:	18fb      	adds	r3, r7, r3
 8000ee0:	781a      	ldrb	r2, [r3, #0]
 8000ee2:	210b      	movs	r1, #11
 8000ee4:	000d      	movs	r5, r1
 8000ee6:	187b      	adds	r3, r7, r1
 8000ee8:	7819      	ldrb	r1, [r3, #0]
 8000eea:	68f8      	ldr	r0, [r7, #12]
 8000eec:	0023      	movs	r3, r4
 8000eee:	f000 f827 	bl	8000f40 <st7565_drawchar>
		c++;
 8000ef2:	687b      	ldr	r3, [r7, #4]
 8000ef4:	3301      	adds	r3, #1
 8000ef6:	607b      	str	r3, [r7, #4]
		x += 6; // 6 pixels wide
 8000ef8:	0029      	movs	r1, r5
 8000efa:	187b      	adds	r3, r7, r1
 8000efc:	187a      	adds	r2, r7, r1
 8000efe:	7812      	ldrb	r2, [r2, #0]
 8000f00:	3206      	adds	r2, #6
 8000f02:	701a      	strb	r2, [r3, #0]
		if (x + 6 >= LCDWIDTH) {
 8000f04:	187b      	adds	r3, r7, r1
 8000f06:	781b      	ldrb	r3, [r3, #0]
 8000f08:	3306      	adds	r3, #6
 8000f0a:	2b7f      	cmp	r3, #127	; 0x7f
 8000f0c:	dd09      	ble.n	8000f22 <st7565_drawstring+0x6a>
			x = 0; // ran out of this line
 8000f0e:	230b      	movs	r3, #11
 8000f10:	18fb      	adds	r3, r7, r3
 8000f12:	2200      	movs	r2, #0
 8000f14:	701a      	strb	r2, [r3, #0]
			line++;
 8000f16:	210a      	movs	r1, #10
 8000f18:	187b      	adds	r3, r7, r1
 8000f1a:	781a      	ldrb	r2, [r3, #0]
 8000f1c:	187b      	adds	r3, r7, r1
 8000f1e:	3201      	adds	r2, #1
 8000f20:	701a      	strb	r2, [r3, #0]
		}
		if (line >= (LCDHEIGHT / 8))
 8000f22:	230a      	movs	r3, #10
 8000f24:	18fb      	adds	r3, r7, r3
 8000f26:	781b      	ldrb	r3, [r3, #0]
 8000f28:	2b07      	cmp	r3, #7
 8000f2a:	d804      	bhi.n	8000f36 <st7565_drawstring+0x7e>
	while (c[0] != 0) {
 8000f2c:	687b      	ldr	r3, [r7, #4]
 8000f2e:	781b      	ldrb	r3, [r3, #0]
 8000f30:	2b00      	cmp	r3, #0
 8000f32:	d1d1      	bne.n	8000ed8 <st7565_drawstring+0x20>
 8000f34:	e000      	b.n	8000f38 <st7565_drawstring+0x80>
			return; // ran out of space :(
 8000f36:	46c0      	nop			; (mov r8, r8)
	}
}
 8000f38:	46bd      	mov	sp, r7
 8000f3a:	b004      	add	sp, #16
 8000f3c:	bdb0      	pop	{r4, r5, r7, pc}
	...

08000f40 <st7565_drawchar>:

//draw a single character at *x/*y
void st7565_drawchar(uint8_t *buff, uint8_t x, uint8_t line, uint8_t c) {
 8000f40:	b590      	push	{r4, r7, lr}
 8000f42:	b085      	sub	sp, #20
 8000f44:	af00      	add	r7, sp, #0
 8000f46:	6078      	str	r0, [r7, #4]
 8000f48:	000c      	movs	r4, r1
 8000f4a:	0010      	movs	r0, r2
 8000f4c:	0019      	movs	r1, r3
 8000f4e:	1cfb      	adds	r3, r7, #3
 8000f50:	1c22      	adds	r2, r4, #0
 8000f52:	701a      	strb	r2, [r3, #0]
 8000f54:	1cbb      	adds	r3, r7, #2
 8000f56:	1c02      	adds	r2, r0, #0
 8000f58:	701a      	strb	r2, [r3, #0]
 8000f5a:	1c7b      	adds	r3, r7, #1
 8000f5c:	1c0a      	adds	r2, r1, #0
 8000f5e:	701a      	strb	r2, [r3, #0]
	uint8_t i;
	for (i = 0; i < 5; i++) {
 8000f60:	230f      	movs	r3, #15
 8000f62:	18fb      	adds	r3, r7, r3
 8000f64:	2200      	movs	r2, #0
 8000f66:	701a      	strb	r2, [r3, #0]
 8000f68:	e020      	b.n	8000fac <st7565_drawchar+0x6c>
		buff[x + (line * 128)] = *(lcdfont5x7 + (c * 5) + i);
 8000f6a:	1c7b      	adds	r3, r7, #1
 8000f6c:	781a      	ldrb	r2, [r3, #0]
 8000f6e:	0013      	movs	r3, r2
 8000f70:	009b      	lsls	r3, r3, #2
 8000f72:	189b      	adds	r3, r3, r2
 8000f74:	001a      	movs	r2, r3
 8000f76:	200f      	movs	r0, #15
 8000f78:	183b      	adds	r3, r7, r0
 8000f7a:	781b      	ldrb	r3, [r3, #0]
 8000f7c:	18d2      	adds	r2, r2, r3
 8000f7e:	4b10      	ldr	r3, [pc, #64]	; (8000fc0 <st7565_drawchar+0x80>)
 8000f80:	18d2      	adds	r2, r2, r3
 8000f82:	1cfb      	adds	r3, r7, #3
 8000f84:	7819      	ldrb	r1, [r3, #0]
 8000f86:	1cbb      	adds	r3, r7, #2
 8000f88:	781b      	ldrb	r3, [r3, #0]
 8000f8a:	01db      	lsls	r3, r3, #7
 8000f8c:	18cb      	adds	r3, r1, r3
 8000f8e:	0019      	movs	r1, r3
 8000f90:	687b      	ldr	r3, [r7, #4]
 8000f92:	185b      	adds	r3, r3, r1
 8000f94:	7812      	ldrb	r2, [r2, #0]
 8000f96:	701a      	strb	r2, [r3, #0]
		x++;
 8000f98:	1cfb      	adds	r3, r7, #3
 8000f9a:	781a      	ldrb	r2, [r3, #0]
 8000f9c:	1cfb      	adds	r3, r7, #3
 8000f9e:	3201      	adds	r2, #1
 8000fa0:	701a      	strb	r2, [r3, #0]
	for (i = 0; i < 5; i++) {
 8000fa2:	183b      	adds	r3, r7, r0
 8000fa4:	781a      	ldrb	r2, [r3, #0]
 8000fa6:	183b      	adds	r3, r7, r0
 8000fa8:	3201      	adds	r2, #1
 8000faa:	701a      	strb	r2, [r3, #0]
 8000fac:	230f      	movs	r3, #15
 8000fae:	18fb      	adds	r3, r7, r3
 8000fb0:	781b      	ldrb	r3, [r3, #0]
 8000fb2:	2b04      	cmp	r3, #4
 8000fb4:	d9d9      	bls.n	8000f6a <st7565_drawchar+0x2a>
	}
}
 8000fb6:	46c0      	nop			; (mov r8, r8)
 8000fb8:	46bd      	mov	sp, r7
 8000fba:	b005      	add	sp, #20
 8000fbc:	bd90      	pop	{r4, r7, pc}
 8000fbe:	46c0      	nop			; (mov r8, r8)
 8000fc0:	0800ced8 	.word	0x0800ced8

08000fc4 <st7565_drawfhd>:
//==========================================================
// Placing Digit Bitmaps
//===========================================================
// display first hour digit (fhd)
void st7565_drawfhd(uint8_t fhd, uint8_t* LCD_Buffer)
    {
 8000fc4:	b580      	push	{r7, lr}
 8000fc6:	b086      	sub	sp, #24
 8000fc8:	af04      	add	r7, sp, #16
 8000fca:	0002      	movs	r2, r0
 8000fcc:	6039      	str	r1, [r7, #0]
 8000fce:	1dfb      	adds	r3, r7, #7
 8000fd0:	701a      	strb	r2, [r3, #0]
        switch(fhd) {
 8000fd2:	1dfb      	adds	r3, r7, #7
 8000fd4:	781b      	ldrb	r3, [r3, #0]
 8000fd6:	2b01      	cmp	r3, #1
 8000fd8:	d012      	beq.n	8001000 <st7565_drawfhd+0x3c>
 8000fda:	2b02      	cmp	r3, #2
 8000fdc:	d01e      	beq.n	800101c <st7565_drawfhd+0x58>
 8000fde:	2b00      	cmp	r3, #0
 8000fe0:	d000      	beq.n	8000fe4 <st7565_drawfhd+0x20>
            case 0: st7565_drawbitmap(LCD_Buffer, 12, 1, clock_zero, 128, 64, 10); break;
            case 1: st7565_drawbitmap(LCD_Buffer, 17, 1, clock_one, 128, 64, 10); break;
            case 2: st7565_drawbitmap(LCD_Buffer, 12, 1, clock_two, 128, 64, 10); break;
        }
    }   
 8000fe2:	e029      	b.n	8001038 <st7565_drawfhd+0x74>
            case 0: st7565_drawbitmap(LCD_Buffer, 12, 1, clock_zero, 128, 64, 10); break;
 8000fe4:	4a16      	ldr	r2, [pc, #88]	; (8001040 <st7565_drawfhd+0x7c>)
 8000fe6:	6838      	ldr	r0, [r7, #0]
 8000fe8:	230a      	movs	r3, #10
 8000fea:	9302      	str	r3, [sp, #8]
 8000fec:	2340      	movs	r3, #64	; 0x40
 8000fee:	9301      	str	r3, [sp, #4]
 8000ff0:	2380      	movs	r3, #128	; 0x80
 8000ff2:	9300      	str	r3, [sp, #0]
 8000ff4:	0013      	movs	r3, r2
 8000ff6:	2201      	movs	r2, #1
 8000ff8:	210c      	movs	r1, #12
 8000ffa:	f7ff fef3 	bl	8000de4 <st7565_drawbitmap>
 8000ffe:	e01b      	b.n	8001038 <st7565_drawfhd+0x74>
            case 1: st7565_drawbitmap(LCD_Buffer, 17, 1, clock_one, 128, 64, 10); break;
 8001000:	4a10      	ldr	r2, [pc, #64]	; (8001044 <st7565_drawfhd+0x80>)
 8001002:	6838      	ldr	r0, [r7, #0]
 8001004:	230a      	movs	r3, #10
 8001006:	9302      	str	r3, [sp, #8]
 8001008:	2340      	movs	r3, #64	; 0x40
 800100a:	9301      	str	r3, [sp, #4]
 800100c:	2380      	movs	r3, #128	; 0x80
 800100e:	9300      	str	r3, [sp, #0]
 8001010:	0013      	movs	r3, r2
 8001012:	2201      	movs	r2, #1
 8001014:	2111      	movs	r1, #17
 8001016:	f7ff fee5 	bl	8000de4 <st7565_drawbitmap>
 800101a:	e00d      	b.n	8001038 <st7565_drawfhd+0x74>
            case 2: st7565_drawbitmap(LCD_Buffer, 12, 1, clock_two, 128, 64, 10); break;
 800101c:	4a0a      	ldr	r2, [pc, #40]	; (8001048 <st7565_drawfhd+0x84>)
 800101e:	6838      	ldr	r0, [r7, #0]
 8001020:	230a      	movs	r3, #10
 8001022:	9302      	str	r3, [sp, #8]
 8001024:	2340      	movs	r3, #64	; 0x40
 8001026:	9301      	str	r3, [sp, #4]
 8001028:	2380      	movs	r3, #128	; 0x80
 800102a:	9300      	str	r3, [sp, #0]
 800102c:	0013      	movs	r3, r2
 800102e:	2201      	movs	r2, #1
 8001030:	210c      	movs	r1, #12
 8001032:	f7ff fed7 	bl	8000de4 <st7565_drawbitmap>
 8001036:	46c0      	nop			; (mov r8, r8)
    }   
 8001038:	46c0      	nop			; (mov r8, r8)
 800103a:	46bd      	mov	sp, r7
 800103c:	b002      	add	sp, #8
 800103e:	bd80      	pop	{r7, pc}
 8001040:	080086d8 	.word	0x080086d8
 8001044:	08008ad8 	.word	0x08008ad8
 8001048:	08008ed8 	.word	0x08008ed8

0800104c <st7565_drawshd>:
    
// display second hour digit (shd)
void st7565_drawshd(uint8_t shd, uint8_t* LCD_Buffer)
    {
 800104c:	b580      	push	{r7, lr}
 800104e:	b086      	sub	sp, #24
 8001050:	af04      	add	r7, sp, #16
 8001052:	0002      	movs	r2, r0
 8001054:	6039      	str	r1, [r7, #0]
 8001056:	1dfb      	adds	r3, r7, #7
 8001058:	701a      	strb	r2, [r3, #0]
        switch(shd) {
 800105a:	1dfb      	adds	r3, r7, #7
 800105c:	781b      	ldrb	r3, [r3, #0]
 800105e:	2b09      	cmp	r3, #9
 8001060:	d900      	bls.n	8001064 <st7565_drawshd+0x18>
 8001062:	e090      	b.n	8001186 <st7565_drawshd+0x13a>
 8001064:	009a      	lsls	r2, r3, #2
 8001066:	4b4a      	ldr	r3, [pc, #296]	; (8001190 <st7565_drawshd+0x144>)
 8001068:	18d3      	adds	r3, r2, r3
 800106a:	681b      	ldr	r3, [r3, #0]
 800106c:	469f      	mov	pc, r3
            case 0: st7565_drawbitmap(LCD_Buffer, 37, 1, clock_zero, 128, 64, 10); break;
 800106e:	4a49      	ldr	r2, [pc, #292]	; (8001194 <st7565_drawshd+0x148>)
 8001070:	6838      	ldr	r0, [r7, #0]
 8001072:	230a      	movs	r3, #10
 8001074:	9302      	str	r3, [sp, #8]
 8001076:	2340      	movs	r3, #64	; 0x40
 8001078:	9301      	str	r3, [sp, #4]
 800107a:	2380      	movs	r3, #128	; 0x80
 800107c:	9300      	str	r3, [sp, #0]
 800107e:	0013      	movs	r3, r2
 8001080:	2201      	movs	r2, #1
 8001082:	2125      	movs	r1, #37	; 0x25
 8001084:	f7ff feae 	bl	8000de4 <st7565_drawbitmap>
 8001088:	e07d      	b.n	8001186 <st7565_drawshd+0x13a>
            case 1: st7565_drawbitmap(LCD_Buffer, 37, 1, clock_one, 128, 64, 10); break;
 800108a:	4a43      	ldr	r2, [pc, #268]	; (8001198 <st7565_drawshd+0x14c>)
 800108c:	6838      	ldr	r0, [r7, #0]
 800108e:	230a      	movs	r3, #10
 8001090:	9302      	str	r3, [sp, #8]
 8001092:	2340      	movs	r3, #64	; 0x40
 8001094:	9301      	str	r3, [sp, #4]
 8001096:	2380      	movs	r3, #128	; 0x80
 8001098:	9300      	str	r3, [sp, #0]
 800109a:	0013      	movs	r3, r2
 800109c:	2201      	movs	r2, #1
 800109e:	2125      	movs	r1, #37	; 0x25
 80010a0:	f7ff fea0 	bl	8000de4 <st7565_drawbitmap>
 80010a4:	e06f      	b.n	8001186 <st7565_drawshd+0x13a>
            case 2: st7565_drawbitmap(LCD_Buffer, 37, 1, clock_two, 128, 64, 10); break;
 80010a6:	4a3d      	ldr	r2, [pc, #244]	; (800119c <st7565_drawshd+0x150>)
 80010a8:	6838      	ldr	r0, [r7, #0]
 80010aa:	230a      	movs	r3, #10
 80010ac:	9302      	str	r3, [sp, #8]
 80010ae:	2340      	movs	r3, #64	; 0x40
 80010b0:	9301      	str	r3, [sp, #4]
 80010b2:	2380      	movs	r3, #128	; 0x80
 80010b4:	9300      	str	r3, [sp, #0]
 80010b6:	0013      	movs	r3, r2
 80010b8:	2201      	movs	r2, #1
 80010ba:	2125      	movs	r1, #37	; 0x25
 80010bc:	f7ff fe92 	bl	8000de4 <st7565_drawbitmap>
 80010c0:	e061      	b.n	8001186 <st7565_drawshd+0x13a>
            case 3: st7565_drawbitmap(LCD_Buffer, 37, 1, clock_three, 128, 64, 10); break;
 80010c2:	4a37      	ldr	r2, [pc, #220]	; (80011a0 <st7565_drawshd+0x154>)
 80010c4:	6838      	ldr	r0, [r7, #0]
 80010c6:	230a      	movs	r3, #10
 80010c8:	9302      	str	r3, [sp, #8]
 80010ca:	2340      	movs	r3, #64	; 0x40
 80010cc:	9301      	str	r3, [sp, #4]
 80010ce:	2380      	movs	r3, #128	; 0x80
 80010d0:	9300      	str	r3, [sp, #0]
 80010d2:	0013      	movs	r3, r2
 80010d4:	2201      	movs	r2, #1
 80010d6:	2125      	movs	r1, #37	; 0x25
 80010d8:	f7ff fe84 	bl	8000de4 <st7565_drawbitmap>
 80010dc:	e053      	b.n	8001186 <st7565_drawshd+0x13a>
            case 4: st7565_drawbitmap(LCD_Buffer, 37, 1, clock_four, 128, 64, 10); break;
 80010de:	4a31      	ldr	r2, [pc, #196]	; (80011a4 <st7565_drawshd+0x158>)
 80010e0:	6838      	ldr	r0, [r7, #0]
 80010e2:	230a      	movs	r3, #10
 80010e4:	9302      	str	r3, [sp, #8]
 80010e6:	2340      	movs	r3, #64	; 0x40
 80010e8:	9301      	str	r3, [sp, #4]
 80010ea:	2380      	movs	r3, #128	; 0x80
 80010ec:	9300      	str	r3, [sp, #0]
 80010ee:	0013      	movs	r3, r2
 80010f0:	2201      	movs	r2, #1
 80010f2:	2125      	movs	r1, #37	; 0x25
 80010f4:	f7ff fe76 	bl	8000de4 <st7565_drawbitmap>
 80010f8:	e045      	b.n	8001186 <st7565_drawshd+0x13a>
            case 5: st7565_drawbitmap(LCD_Buffer, 37, 2, clock_five, 128, 64, 10); break;
 80010fa:	4a2b      	ldr	r2, [pc, #172]	; (80011a8 <st7565_drawshd+0x15c>)
 80010fc:	6838      	ldr	r0, [r7, #0]
 80010fe:	230a      	movs	r3, #10
 8001100:	9302      	str	r3, [sp, #8]
 8001102:	2340      	movs	r3, #64	; 0x40
 8001104:	9301      	str	r3, [sp, #4]
 8001106:	2380      	movs	r3, #128	; 0x80
 8001108:	9300      	str	r3, [sp, #0]
 800110a:	0013      	movs	r3, r2
 800110c:	2202      	movs	r2, #2
 800110e:	2125      	movs	r1, #37	; 0x25
 8001110:	f7ff fe68 	bl	8000de4 <st7565_drawbitmap>
 8001114:	e037      	b.n	8001186 <st7565_drawshd+0x13a>
            case 6: st7565_drawbitmap(LCD_Buffer, 37, 1, clock_six, 128, 64, 10); break;
 8001116:	4a25      	ldr	r2, [pc, #148]	; (80011ac <st7565_drawshd+0x160>)
 8001118:	6838      	ldr	r0, [r7, #0]
 800111a:	230a      	movs	r3, #10
 800111c:	9302      	str	r3, [sp, #8]
 800111e:	2340      	movs	r3, #64	; 0x40
 8001120:	9301      	str	r3, [sp, #4]
 8001122:	2380      	movs	r3, #128	; 0x80
 8001124:	9300      	str	r3, [sp, #0]
 8001126:	0013      	movs	r3, r2
 8001128:	2201      	movs	r2, #1
 800112a:	2125      	movs	r1, #37	; 0x25
 800112c:	f7ff fe5a 	bl	8000de4 <st7565_drawbitmap>
 8001130:	e029      	b.n	8001186 <st7565_drawshd+0x13a>
            case 7: st7565_drawbitmap(LCD_Buffer, 37, 1, clock_seven, 128, 64, 10); break;
 8001132:	4a1f      	ldr	r2, [pc, #124]	; (80011b0 <st7565_drawshd+0x164>)
 8001134:	6838      	ldr	r0, [r7, #0]
 8001136:	230a      	movs	r3, #10
 8001138:	9302      	str	r3, [sp, #8]
 800113a:	2340      	movs	r3, #64	; 0x40
 800113c:	9301      	str	r3, [sp, #4]
 800113e:	2380      	movs	r3, #128	; 0x80
 8001140:	9300      	str	r3, [sp, #0]
 8001142:	0013      	movs	r3, r2
 8001144:	2201      	movs	r2, #1
 8001146:	2125      	movs	r1, #37	; 0x25
 8001148:	f7ff fe4c 	bl	8000de4 <st7565_drawbitmap>
 800114c:	e01b      	b.n	8001186 <st7565_drawshd+0x13a>
            case 8: st7565_drawbitmap(LCD_Buffer, 37, 0, clock_eight, 128, 64, 10); break;
 800114e:	4a19      	ldr	r2, [pc, #100]	; (80011b4 <st7565_drawshd+0x168>)
 8001150:	6838      	ldr	r0, [r7, #0]
 8001152:	230a      	movs	r3, #10
 8001154:	9302      	str	r3, [sp, #8]
 8001156:	2340      	movs	r3, #64	; 0x40
 8001158:	9301      	str	r3, [sp, #4]
 800115a:	2380      	movs	r3, #128	; 0x80
 800115c:	9300      	str	r3, [sp, #0]
 800115e:	0013      	movs	r3, r2
 8001160:	2200      	movs	r2, #0
 8001162:	2125      	movs	r1, #37	; 0x25
 8001164:	f7ff fe3e 	bl	8000de4 <st7565_drawbitmap>
 8001168:	e00d      	b.n	8001186 <st7565_drawshd+0x13a>
            case 9: st7565_drawbitmap(LCD_Buffer, 37, 0, clock_nine, 128, 64, 10); break;
 800116a:	4a13      	ldr	r2, [pc, #76]	; (80011b8 <st7565_drawshd+0x16c>)
 800116c:	6838      	ldr	r0, [r7, #0]
 800116e:	230a      	movs	r3, #10
 8001170:	9302      	str	r3, [sp, #8]
 8001172:	2340      	movs	r3, #64	; 0x40
 8001174:	9301      	str	r3, [sp, #4]
 8001176:	2380      	movs	r3, #128	; 0x80
 8001178:	9300      	str	r3, [sp, #0]
 800117a:	0013      	movs	r3, r2
 800117c:	2200      	movs	r2, #0
 800117e:	2125      	movs	r1, #37	; 0x25
 8001180:	f7ff fe30 	bl	8000de4 <st7565_drawbitmap>
 8001184:	46c0      	nop			; (mov r8, r8)
            
        }
    }
 8001186:	46c0      	nop			; (mov r8, r8)
 8001188:	46bd      	mov	sp, r7
 800118a:	b002      	add	sp, #8
 800118c:	bd80      	pop	{r7, pc}
 800118e:	46c0      	nop			; (mov r8, r8)
 8001190:	0800d3d4 	.word	0x0800d3d4
 8001194:	080086d8 	.word	0x080086d8
 8001198:	08008ad8 	.word	0x08008ad8
 800119c:	08008ed8 	.word	0x08008ed8
 80011a0:	080092d8 	.word	0x080092d8
 80011a4:	080096d8 	.word	0x080096d8
 80011a8:	08009ad8 	.word	0x08009ad8
 80011ac:	08009ed8 	.word	0x08009ed8
 80011b0:	0800a2d8 	.word	0x0800a2d8
 80011b4:	0800a6d8 	.word	0x0800a6d8
 80011b8:	0800aad8 	.word	0x0800aad8

080011bc <st7565_drawdts>:
    
// display clock dots (dts)
void st7565_drawdts(uint8_t* LCD_Buffer)
    {
 80011bc:	b580      	push	{r7, lr}
 80011be:	b086      	sub	sp, #24
 80011c0:	af04      	add	r7, sp, #16
 80011c2:	6078      	str	r0, [r7, #4]
    st7565_drawbitmap(LCD_Buffer, 59, 5, clock_dots, 128, 64, 10);
 80011c4:	4a08      	ldr	r2, [pc, #32]	; (80011e8 <st7565_drawdts+0x2c>)
 80011c6:	6878      	ldr	r0, [r7, #4]
 80011c8:	230a      	movs	r3, #10
 80011ca:	9302      	str	r3, [sp, #8]
 80011cc:	2340      	movs	r3, #64	; 0x40
 80011ce:	9301      	str	r3, [sp, #4]
 80011d0:	2380      	movs	r3, #128	; 0x80
 80011d2:	9300      	str	r3, [sp, #0]
 80011d4:	0013      	movs	r3, r2
 80011d6:	2205      	movs	r2, #5
 80011d8:	213b      	movs	r1, #59	; 0x3b
 80011da:	f7ff fe03 	bl	8000de4 <st7565_drawbitmap>
    }
 80011de:	46c0      	nop			; (mov r8, r8)
 80011e0:	46bd      	mov	sp, r7
 80011e2:	b002      	add	sp, #8
 80011e4:	bd80      	pop	{r7, pc}
 80011e6:	46c0      	nop			; (mov r8, r8)
 80011e8:	0800aed8 	.word	0x0800aed8

080011ec <st7565_drawfmd>:

// display first minute digit (fmd)
void st7565_drawfmd(uint8_t fmd, uint8_t* LCD_Buffer)
    {
 80011ec:	b580      	push	{r7, lr}
 80011ee:	b086      	sub	sp, #24
 80011f0:	af04      	add	r7, sp, #16
 80011f2:	0002      	movs	r2, r0
 80011f4:	6039      	str	r1, [r7, #0]
 80011f6:	1dfb      	adds	r3, r7, #7
 80011f8:	701a      	strb	r2, [r3, #0]
        switch(fmd) {
 80011fa:	1dfb      	adds	r3, r7, #7
 80011fc:	781b      	ldrb	r3, [r3, #0]
 80011fe:	2b05      	cmp	r3, #5
 8001200:	d858      	bhi.n	80012b4 <st7565_drawfmd+0xc8>
 8001202:	009a      	lsls	r2, r3, #2
 8001204:	4b2d      	ldr	r3, [pc, #180]	; (80012bc <st7565_drawfmd+0xd0>)
 8001206:	18d3      	adds	r3, r2, r3
 8001208:	681b      	ldr	r3, [r3, #0]
 800120a:	469f      	mov	pc, r3
            case 0: st7565_drawbitmap(LCD_Buffer, 72, 1, clock_zero, 128, 64, 10); break;
 800120c:	4a2c      	ldr	r2, [pc, #176]	; (80012c0 <st7565_drawfmd+0xd4>)
 800120e:	6838      	ldr	r0, [r7, #0]
 8001210:	230a      	movs	r3, #10
 8001212:	9302      	str	r3, [sp, #8]
 8001214:	2340      	movs	r3, #64	; 0x40
 8001216:	9301      	str	r3, [sp, #4]
 8001218:	2380      	movs	r3, #128	; 0x80
 800121a:	9300      	str	r3, [sp, #0]
 800121c:	0013      	movs	r3, r2
 800121e:	2201      	movs	r2, #1
 8001220:	2148      	movs	r1, #72	; 0x48
 8001222:	f7ff fddf 	bl	8000de4 <st7565_drawbitmap>
 8001226:	e045      	b.n	80012b4 <st7565_drawfmd+0xc8>
            case 1: st7565_drawbitmap(LCD_Buffer, 77, 1, clock_one, 128, 64, 10); break;
 8001228:	4a26      	ldr	r2, [pc, #152]	; (80012c4 <st7565_drawfmd+0xd8>)
 800122a:	6838      	ldr	r0, [r7, #0]
 800122c:	230a      	movs	r3, #10
 800122e:	9302      	str	r3, [sp, #8]
 8001230:	2340      	movs	r3, #64	; 0x40
 8001232:	9301      	str	r3, [sp, #4]
 8001234:	2380      	movs	r3, #128	; 0x80
 8001236:	9300      	str	r3, [sp, #0]
 8001238:	0013      	movs	r3, r2
 800123a:	2201      	movs	r2, #1
 800123c:	214d      	movs	r1, #77	; 0x4d
 800123e:	f7ff fdd1 	bl	8000de4 <st7565_drawbitmap>
 8001242:	e037      	b.n	80012b4 <st7565_drawfmd+0xc8>
            case 2: st7565_drawbitmap(LCD_Buffer, 72, 1, clock_two, 128, 64, 10); break;
 8001244:	4a20      	ldr	r2, [pc, #128]	; (80012c8 <st7565_drawfmd+0xdc>)
 8001246:	6838      	ldr	r0, [r7, #0]
 8001248:	230a      	movs	r3, #10
 800124a:	9302      	str	r3, [sp, #8]
 800124c:	2340      	movs	r3, #64	; 0x40
 800124e:	9301      	str	r3, [sp, #4]
 8001250:	2380      	movs	r3, #128	; 0x80
 8001252:	9300      	str	r3, [sp, #0]
 8001254:	0013      	movs	r3, r2
 8001256:	2201      	movs	r2, #1
 8001258:	2148      	movs	r1, #72	; 0x48
 800125a:	f7ff fdc3 	bl	8000de4 <st7565_drawbitmap>
 800125e:	e029      	b.n	80012b4 <st7565_drawfmd+0xc8>
            case 3: st7565_drawbitmap(LCD_Buffer, 72, 1, clock_three, 128, 64, 10); break;
 8001260:	4a1a      	ldr	r2, [pc, #104]	; (80012cc <st7565_drawfmd+0xe0>)
 8001262:	6838      	ldr	r0, [r7, #0]
 8001264:	230a      	movs	r3, #10
 8001266:	9302      	str	r3, [sp, #8]
 8001268:	2340      	movs	r3, #64	; 0x40
 800126a:	9301      	str	r3, [sp, #4]
 800126c:	2380      	movs	r3, #128	; 0x80
 800126e:	9300      	str	r3, [sp, #0]
 8001270:	0013      	movs	r3, r2
 8001272:	2201      	movs	r2, #1
 8001274:	2148      	movs	r1, #72	; 0x48
 8001276:	f7ff fdb5 	bl	8000de4 <st7565_drawbitmap>
 800127a:	e01b      	b.n	80012b4 <st7565_drawfmd+0xc8>
            case 4: st7565_drawbitmap(LCD_Buffer, 72, 1, clock_four, 128, 64, 10); break;
 800127c:	4a14      	ldr	r2, [pc, #80]	; (80012d0 <st7565_drawfmd+0xe4>)
 800127e:	6838      	ldr	r0, [r7, #0]
 8001280:	230a      	movs	r3, #10
 8001282:	9302      	str	r3, [sp, #8]
 8001284:	2340      	movs	r3, #64	; 0x40
 8001286:	9301      	str	r3, [sp, #4]
 8001288:	2380      	movs	r3, #128	; 0x80
 800128a:	9300      	str	r3, [sp, #0]
 800128c:	0013      	movs	r3, r2
 800128e:	2201      	movs	r2, #1
 8001290:	2148      	movs	r1, #72	; 0x48
 8001292:	f7ff fda7 	bl	8000de4 <st7565_drawbitmap>
 8001296:	e00d      	b.n	80012b4 <st7565_drawfmd+0xc8>
            case 5: st7565_drawbitmap(LCD_Buffer, 72, 2, clock_five, 128, 64, 10); break;
 8001298:	4a0e      	ldr	r2, [pc, #56]	; (80012d4 <st7565_drawfmd+0xe8>)
 800129a:	6838      	ldr	r0, [r7, #0]
 800129c:	230a      	movs	r3, #10
 800129e:	9302      	str	r3, [sp, #8]
 80012a0:	2340      	movs	r3, #64	; 0x40
 80012a2:	9301      	str	r3, [sp, #4]
 80012a4:	2380      	movs	r3, #128	; 0x80
 80012a6:	9300      	str	r3, [sp, #0]
 80012a8:	0013      	movs	r3, r2
 80012aa:	2202      	movs	r2, #2
 80012ac:	2148      	movs	r1, #72	; 0x48
 80012ae:	f7ff fd99 	bl	8000de4 <st7565_drawbitmap>
 80012b2:	46c0      	nop			; (mov r8, r8)
        }
    }
 80012b4:	46c0      	nop			; (mov r8, r8)
 80012b6:	46bd      	mov	sp, r7
 80012b8:	b002      	add	sp, #8
 80012ba:	bd80      	pop	{r7, pc}
 80012bc:	0800d3fc 	.word	0x0800d3fc
 80012c0:	080086d8 	.word	0x080086d8
 80012c4:	08008ad8 	.word	0x08008ad8
 80012c8:	08008ed8 	.word	0x08008ed8
 80012cc:	080092d8 	.word	0x080092d8
 80012d0:	080096d8 	.word	0x080096d8
 80012d4:	08009ad8 	.word	0x08009ad8

080012d8 <st7565_drawsmd>:
    
// display second minute digit (smd)
void st7565_drawsmd(uint8_t smd, uint8_t* LCD_Buffer)
    {
 80012d8:	b580      	push	{r7, lr}
 80012da:	b086      	sub	sp, #24
 80012dc:	af04      	add	r7, sp, #16
 80012de:	0002      	movs	r2, r0
 80012e0:	6039      	str	r1, [r7, #0]
 80012e2:	1dfb      	adds	r3, r7, #7
 80012e4:	701a      	strb	r2, [r3, #0]
        switch(smd) {
 80012e6:	1dfb      	adds	r3, r7, #7
 80012e8:	781b      	ldrb	r3, [r3, #0]
 80012ea:	2b09      	cmp	r3, #9
 80012ec:	d900      	bls.n	80012f0 <st7565_drawsmd+0x18>
 80012ee:	e090      	b.n	8001412 <st7565_drawsmd+0x13a>
 80012f0:	009a      	lsls	r2, r3, #2
 80012f2:	4b4a      	ldr	r3, [pc, #296]	; (800141c <st7565_drawsmd+0x144>)
 80012f4:	18d3      	adds	r3, r2, r3
 80012f6:	681b      	ldr	r3, [r3, #0]
 80012f8:	469f      	mov	pc, r3
            case 0: st7565_drawbitmap(LCD_Buffer, 92, 1, clock_zero, 128, 64, 10); break;
 80012fa:	4a49      	ldr	r2, [pc, #292]	; (8001420 <st7565_drawsmd+0x148>)
 80012fc:	6838      	ldr	r0, [r7, #0]
 80012fe:	230a      	movs	r3, #10
 8001300:	9302      	str	r3, [sp, #8]
 8001302:	2340      	movs	r3, #64	; 0x40
 8001304:	9301      	str	r3, [sp, #4]
 8001306:	2380      	movs	r3, #128	; 0x80
 8001308:	9300      	str	r3, [sp, #0]
 800130a:	0013      	movs	r3, r2
 800130c:	2201      	movs	r2, #1
 800130e:	215c      	movs	r1, #92	; 0x5c
 8001310:	f7ff fd68 	bl	8000de4 <st7565_drawbitmap>
 8001314:	e07d      	b.n	8001412 <st7565_drawsmd+0x13a>
            case 1: st7565_drawbitmap(LCD_Buffer, 92, 1, clock_one, 128, 64, 10); break;
 8001316:	4a43      	ldr	r2, [pc, #268]	; (8001424 <st7565_drawsmd+0x14c>)
 8001318:	6838      	ldr	r0, [r7, #0]
 800131a:	230a      	movs	r3, #10
 800131c:	9302      	str	r3, [sp, #8]
 800131e:	2340      	movs	r3, #64	; 0x40
 8001320:	9301      	str	r3, [sp, #4]
 8001322:	2380      	movs	r3, #128	; 0x80
 8001324:	9300      	str	r3, [sp, #0]
 8001326:	0013      	movs	r3, r2
 8001328:	2201      	movs	r2, #1
 800132a:	215c      	movs	r1, #92	; 0x5c
 800132c:	f7ff fd5a 	bl	8000de4 <st7565_drawbitmap>
 8001330:	e06f      	b.n	8001412 <st7565_drawsmd+0x13a>
            case 2: st7565_drawbitmap(LCD_Buffer, 92, 1, clock_two, 128, 64, 10); break;
 8001332:	4a3d      	ldr	r2, [pc, #244]	; (8001428 <st7565_drawsmd+0x150>)
 8001334:	6838      	ldr	r0, [r7, #0]
 8001336:	230a      	movs	r3, #10
 8001338:	9302      	str	r3, [sp, #8]
 800133a:	2340      	movs	r3, #64	; 0x40
 800133c:	9301      	str	r3, [sp, #4]
 800133e:	2380      	movs	r3, #128	; 0x80
 8001340:	9300      	str	r3, [sp, #0]
 8001342:	0013      	movs	r3, r2
 8001344:	2201      	movs	r2, #1
 8001346:	215c      	movs	r1, #92	; 0x5c
 8001348:	f7ff fd4c 	bl	8000de4 <st7565_drawbitmap>
 800134c:	e061      	b.n	8001412 <st7565_drawsmd+0x13a>
            case 3: st7565_drawbitmap(LCD_Buffer, 92, 1, clock_three, 128, 64, 10); break;
 800134e:	4a37      	ldr	r2, [pc, #220]	; (800142c <st7565_drawsmd+0x154>)
 8001350:	6838      	ldr	r0, [r7, #0]
 8001352:	230a      	movs	r3, #10
 8001354:	9302      	str	r3, [sp, #8]
 8001356:	2340      	movs	r3, #64	; 0x40
 8001358:	9301      	str	r3, [sp, #4]
 800135a:	2380      	movs	r3, #128	; 0x80
 800135c:	9300      	str	r3, [sp, #0]
 800135e:	0013      	movs	r3, r2
 8001360:	2201      	movs	r2, #1
 8001362:	215c      	movs	r1, #92	; 0x5c
 8001364:	f7ff fd3e 	bl	8000de4 <st7565_drawbitmap>
 8001368:	e053      	b.n	8001412 <st7565_drawsmd+0x13a>
            case 4: st7565_drawbitmap(LCD_Buffer, 92, 1, clock_four, 128, 64, 10); break;
 800136a:	4a31      	ldr	r2, [pc, #196]	; (8001430 <st7565_drawsmd+0x158>)
 800136c:	6838      	ldr	r0, [r7, #0]
 800136e:	230a      	movs	r3, #10
 8001370:	9302      	str	r3, [sp, #8]
 8001372:	2340      	movs	r3, #64	; 0x40
 8001374:	9301      	str	r3, [sp, #4]
 8001376:	2380      	movs	r3, #128	; 0x80
 8001378:	9300      	str	r3, [sp, #0]
 800137a:	0013      	movs	r3, r2
 800137c:	2201      	movs	r2, #1
 800137e:	215c      	movs	r1, #92	; 0x5c
 8001380:	f7ff fd30 	bl	8000de4 <st7565_drawbitmap>
 8001384:	e045      	b.n	8001412 <st7565_drawsmd+0x13a>
            case 5: st7565_drawbitmap(LCD_Buffer, 92, 2, clock_five, 128, 64, 10); break;
 8001386:	4a2b      	ldr	r2, [pc, #172]	; (8001434 <st7565_drawsmd+0x15c>)
 8001388:	6838      	ldr	r0, [r7, #0]
 800138a:	230a      	movs	r3, #10
 800138c:	9302      	str	r3, [sp, #8]
 800138e:	2340      	movs	r3, #64	; 0x40
 8001390:	9301      	str	r3, [sp, #4]
 8001392:	2380      	movs	r3, #128	; 0x80
 8001394:	9300      	str	r3, [sp, #0]
 8001396:	0013      	movs	r3, r2
 8001398:	2202      	movs	r2, #2
 800139a:	215c      	movs	r1, #92	; 0x5c
 800139c:	f7ff fd22 	bl	8000de4 <st7565_drawbitmap>
 80013a0:	e037      	b.n	8001412 <st7565_drawsmd+0x13a>
            case 6: st7565_drawbitmap(LCD_Buffer, 92, 1, clock_six, 128, 64, 10); break;
 80013a2:	4a25      	ldr	r2, [pc, #148]	; (8001438 <st7565_drawsmd+0x160>)
 80013a4:	6838      	ldr	r0, [r7, #0]
 80013a6:	230a      	movs	r3, #10
 80013a8:	9302      	str	r3, [sp, #8]
 80013aa:	2340      	movs	r3, #64	; 0x40
 80013ac:	9301      	str	r3, [sp, #4]
 80013ae:	2380      	movs	r3, #128	; 0x80
 80013b0:	9300      	str	r3, [sp, #0]
 80013b2:	0013      	movs	r3, r2
 80013b4:	2201      	movs	r2, #1
 80013b6:	215c      	movs	r1, #92	; 0x5c
 80013b8:	f7ff fd14 	bl	8000de4 <st7565_drawbitmap>
 80013bc:	e029      	b.n	8001412 <st7565_drawsmd+0x13a>
            case 7: st7565_drawbitmap(LCD_Buffer, 92, 1, clock_seven, 128, 64, 10); break;
 80013be:	4a1f      	ldr	r2, [pc, #124]	; (800143c <st7565_drawsmd+0x164>)
 80013c0:	6838      	ldr	r0, [r7, #0]
 80013c2:	230a      	movs	r3, #10
 80013c4:	9302      	str	r3, [sp, #8]
 80013c6:	2340      	movs	r3, #64	; 0x40
 80013c8:	9301      	str	r3, [sp, #4]
 80013ca:	2380      	movs	r3, #128	; 0x80
 80013cc:	9300      	str	r3, [sp, #0]
 80013ce:	0013      	movs	r3, r2
 80013d0:	2201      	movs	r2, #1
 80013d2:	215c      	movs	r1, #92	; 0x5c
 80013d4:	f7ff fd06 	bl	8000de4 <st7565_drawbitmap>
 80013d8:	e01b      	b.n	8001412 <st7565_drawsmd+0x13a>
            case 8: st7565_drawbitmap(LCD_Buffer, 92, 0, clock_eight, 128, 64, 10); break;
 80013da:	4a19      	ldr	r2, [pc, #100]	; (8001440 <st7565_drawsmd+0x168>)
 80013dc:	6838      	ldr	r0, [r7, #0]
 80013de:	230a      	movs	r3, #10
 80013e0:	9302      	str	r3, [sp, #8]
 80013e2:	2340      	movs	r3, #64	; 0x40
 80013e4:	9301      	str	r3, [sp, #4]
 80013e6:	2380      	movs	r3, #128	; 0x80
 80013e8:	9300      	str	r3, [sp, #0]
 80013ea:	0013      	movs	r3, r2
 80013ec:	2200      	movs	r2, #0
 80013ee:	215c      	movs	r1, #92	; 0x5c
 80013f0:	f7ff fcf8 	bl	8000de4 <st7565_drawbitmap>
 80013f4:	e00d      	b.n	8001412 <st7565_drawsmd+0x13a>
            case 9: st7565_drawbitmap(LCD_Buffer, 92, 0, clock_nine, 128, 64, 10); break;
 80013f6:	4a13      	ldr	r2, [pc, #76]	; (8001444 <st7565_drawsmd+0x16c>)
 80013f8:	6838      	ldr	r0, [r7, #0]
 80013fa:	230a      	movs	r3, #10
 80013fc:	9302      	str	r3, [sp, #8]
 80013fe:	2340      	movs	r3, #64	; 0x40
 8001400:	9301      	str	r3, [sp, #4]
 8001402:	2380      	movs	r3, #128	; 0x80
 8001404:	9300      	str	r3, [sp, #0]
 8001406:	0013      	movs	r3, r2
 8001408:	2200      	movs	r2, #0
 800140a:	215c      	movs	r1, #92	; 0x5c
 800140c:	f7ff fcea 	bl	8000de4 <st7565_drawbitmap>
 8001410:	46c0      	nop			; (mov r8, r8)
            
        }
    }
 8001412:	46c0      	nop			; (mov r8, r8)
 8001414:	46bd      	mov	sp, r7
 8001416:	b002      	add	sp, #8
 8001418:	bd80      	pop	{r7, pc}
 800141a:	46c0      	nop			; (mov r8, r8)
 800141c:	0800d414 	.word	0x0800d414
 8001420:	080086d8 	.word	0x080086d8
 8001424:	08008ad8 	.word	0x08008ad8
 8001428:	08008ed8 	.word	0x08008ed8
 800142c:	080092d8 	.word	0x080092d8
 8001430:	080096d8 	.word	0x080096d8
 8001434:	08009ad8 	.word	0x08009ad8
 8001438:	08009ed8 	.word	0x08009ed8
 800143c:	0800a2d8 	.word	0x0800a2d8
 8001440:	0800a6d8 	.word	0x0800a6d8
 8001444:	0800aad8 	.word	0x0800aad8

08001448 <st7565_drawtempsymbol>:
//==========================================================
// Temperature functions
//==========================================================
// Draw temperature symbol
void st7565_drawtempsymbol(uint8_t* LCD_Buffer)
    {
 8001448:	b580      	push	{r7, lr}
 800144a:	b086      	sub	sp, #24
 800144c:	af04      	add	r7, sp, #16
 800144e:	6078      	str	r0, [r7, #4]
    st7565_drawbitmap(LCD_Buffer, 15, 42, symbol_temp, 128, 64, 10);
 8001450:	4a08      	ldr	r2, [pc, #32]	; (8001474 <st7565_drawtempsymbol+0x2c>)
 8001452:	6878      	ldr	r0, [r7, #4]
 8001454:	230a      	movs	r3, #10
 8001456:	9302      	str	r3, [sp, #8]
 8001458:	2340      	movs	r3, #64	; 0x40
 800145a:	9301      	str	r3, [sp, #4]
 800145c:	2380      	movs	r3, #128	; 0x80
 800145e:	9300      	str	r3, [sp, #0]
 8001460:	0013      	movs	r3, r2
 8001462:	222a      	movs	r2, #42	; 0x2a
 8001464:	210f      	movs	r1, #15
 8001466:	f7ff fcbd 	bl	8000de4 <st7565_drawbitmap>
    }
 800146a:	46c0      	nop			; (mov r8, r8)
 800146c:	46bd      	mov	sp, r7
 800146e:	b002      	add	sp, #8
 8001470:	bd80      	pop	{r7, pc}
 8001472:	46c0      	nop			; (mov r8, r8)
 8001474:	0800b2d8 	.word	0x0800b2d8

08001478 <st7565_drawtemp>:
    
//Draw temperature 
void st7565_drawtemp(uint8_t temp[] , uint8_t* LCD_Buffer)
    {
 8001478:	b580      	push	{r7, lr}
 800147a:	b086      	sub	sp, #24
 800147c:	af04      	add	r7, sp, #16
 800147e:	6078      	str	r0, [r7, #4]
 8001480:	6039      	str	r1, [r7, #0]
    st7565_drawstring(LCD_Buffer, 30, 6, temp);
 8001482:	687b      	ldr	r3, [r7, #4]
 8001484:	6838      	ldr	r0, [r7, #0]
 8001486:	2206      	movs	r2, #6
 8001488:	211e      	movs	r1, #30
 800148a:	f7ff fd15 	bl	8000eb8 <st7565_drawstring>
    st7565_drawbitmap(LCD_Buffer, 42, 47, symbol_deg, 128, 64, 10);
 800148e:	4a08      	ldr	r2, [pc, #32]	; (80014b0 <st7565_drawtemp+0x38>)
 8001490:	6838      	ldr	r0, [r7, #0]
 8001492:	230a      	movs	r3, #10
 8001494:	9302      	str	r3, [sp, #8]
 8001496:	2340      	movs	r3, #64	; 0x40
 8001498:	9301      	str	r3, [sp, #4]
 800149a:	2380      	movs	r3, #128	; 0x80
 800149c:	9300      	str	r3, [sp, #0]
 800149e:	0013      	movs	r3, r2
 80014a0:	222f      	movs	r2, #47	; 0x2f
 80014a2:	212a      	movs	r1, #42	; 0x2a
 80014a4:	f7ff fc9e 	bl	8000de4 <st7565_drawbitmap>
    }
 80014a8:	46c0      	nop			; (mov r8, r8)
 80014aa:	46bd      	mov	sp, r7
 80014ac:	b002      	add	sp, #8
 80014ae:	bd80      	pop	{r7, pc}
 80014b0:	0800c6d8 	.word	0x0800c6d8

080014b4 <st7565_drawhumidsymbol>:
//==========================================================
// Humidity functions
//==========================================================
// Draw humidity symbol
void st7565_drawhumidsymbol(uint8_t* LCD_Buffer)
    {
 80014b4:	b580      	push	{r7, lr}
 80014b6:	b086      	sub	sp, #24
 80014b8:	af04      	add	r7, sp, #16
 80014ba:	6078      	str	r0, [r7, #4]
    st7565_drawbitmap(LCD_Buffer, 65, 42, symbol_humid, 128, 64, 10);
 80014bc:	4a08      	ldr	r2, [pc, #32]	; (80014e0 <st7565_drawhumidsymbol+0x2c>)
 80014be:	6878      	ldr	r0, [r7, #4]
 80014c0:	230a      	movs	r3, #10
 80014c2:	9302      	str	r3, [sp, #8]
 80014c4:	2340      	movs	r3, #64	; 0x40
 80014c6:	9301      	str	r3, [sp, #4]
 80014c8:	2380      	movs	r3, #128	; 0x80
 80014ca:	9300      	str	r3, [sp, #0]
 80014cc:	0013      	movs	r3, r2
 80014ce:	222a      	movs	r2, #42	; 0x2a
 80014d0:	2141      	movs	r1, #65	; 0x41
 80014d2:	f7ff fc87 	bl	8000de4 <st7565_drawbitmap>
    }
 80014d6:	46c0      	nop			; (mov r8, r8)
 80014d8:	46bd      	mov	sp, r7
 80014da:	b002      	add	sp, #8
 80014dc:	bd80      	pop	{r7, pc}
 80014de:	46c0      	nop			; (mov r8, r8)
 80014e0:	0800b6d8 	.word	0x0800b6d8

080014e4 <st7565_drawhumid>:

// Draw humidity level
void st7565_drawhumid(uint8_t hum[], uint8_t* LCD_Buffer)
    {
 80014e4:	b580      	push	{r7, lr}
 80014e6:	b082      	sub	sp, #8
 80014e8:	af00      	add	r7, sp, #0
 80014ea:	6078      	str	r0, [r7, #4]
 80014ec:	6039      	str	r1, [r7, #0]
    st7565_drawstring(LCD_Buffer, 82, 6, hum);
 80014ee:	687b      	ldr	r3, [r7, #4]
 80014f0:	6838      	ldr	r0, [r7, #0]
 80014f2:	2206      	movs	r2, #6
 80014f4:	2152      	movs	r1, #82	; 0x52
 80014f6:	f7ff fcdf 	bl	8000eb8 <st7565_drawstring>
    st7565_drawstring(LCD_Buffer, 95, 6, "%");
 80014fa:	4b05      	ldr	r3, [pc, #20]	; (8001510 <st7565_drawhumid+0x2c>)
 80014fc:	6838      	ldr	r0, [r7, #0]
 80014fe:	2206      	movs	r2, #6
 8001500:	215f      	movs	r1, #95	; 0x5f
 8001502:	f7ff fcd9 	bl	8000eb8 <st7565_drawstring>
    }
 8001506:	46c0      	nop			; (mov r8, r8)
 8001508:	46bd      	mov	sp, r7
 800150a:	b002      	add	sp, #8
 800150c:	bd80      	pop	{r7, pc}
 800150e:	46c0      	nop			; (mov r8, r8)
 8001510:	080084e8 	.word	0x080084e8

08001514 <st7565_drawalarmsymbol>:
//==========================================================
// Alarmclock symbols
//==========================================================
// Draw alarm symbol
void st7565_drawalarmsymbol(uint8_t* LCD_Buffer)
    {
 8001514:	b580      	push	{r7, lr}
 8001516:	b086      	sub	sp, #24
 8001518:	af04      	add	r7, sp, #16
 800151a:	6078      	str	r0, [r7, #4]
    st7565_drawbitmap(LCD_Buffer, 110, 20, symbol_alarm, 128, 64, 10);
 800151c:	4a08      	ldr	r2, [pc, #32]	; (8001540 <st7565_drawalarmsymbol+0x2c>)
 800151e:	6878      	ldr	r0, [r7, #4]
 8001520:	230a      	movs	r3, #10
 8001522:	9302      	str	r3, [sp, #8]
 8001524:	2340      	movs	r3, #64	; 0x40
 8001526:	9301      	str	r3, [sp, #4]
 8001528:	2380      	movs	r3, #128	; 0x80
 800152a:	9300      	str	r3, [sp, #0]
 800152c:	0013      	movs	r3, r2
 800152e:	2214      	movs	r2, #20
 8001530:	216e      	movs	r1, #110	; 0x6e
 8001532:	f7ff fc57 	bl	8000de4 <st7565_drawbitmap>
    }
 8001536:	46c0      	nop			; (mov r8, r8)
 8001538:	46bd      	mov	sp, r7
 800153a:	b002      	add	sp, #8
 800153c:	bd80      	pop	{r7, pc}
 800153e:	46c0      	nop			; (mov r8, r8)
 8001540:	0800bad8 	.word	0x0800bad8

08001544 <st7565_drawsnsymbol>:

// Draw snooze symbol 
void st7565_drawsnsymbol(uint8_t* LCD_Buffer)
    {
 8001544:	b580      	push	{r7, lr}
 8001546:	b086      	sub	sp, #24
 8001548:	af04      	add	r7, sp, #16
 800154a:	6078      	str	r0, [r7, #4]
    st7565_drawbitmap(LCD_Buffer, 113, 5, symbol_snooze, 128, 64, 10);
 800154c:	4a08      	ldr	r2, [pc, #32]	; (8001570 <st7565_drawsnsymbol+0x2c>)
 800154e:	6878      	ldr	r0, [r7, #4]
 8001550:	230a      	movs	r3, #10
 8001552:	9302      	str	r3, [sp, #8]
 8001554:	2340      	movs	r3, #64	; 0x40
 8001556:	9301      	str	r3, [sp, #4]
 8001558:	2380      	movs	r3, #128	; 0x80
 800155a:	9300      	str	r3, [sp, #0]
 800155c:	0013      	movs	r3, r2
 800155e:	2205      	movs	r2, #5
 8001560:	2171      	movs	r1, #113	; 0x71
 8001562:	f7ff fc3f 	bl	8000de4 <st7565_drawbitmap>

    }
 8001566:	46c0      	nop			; (mov r8, r8)
 8001568:	46bd      	mov	sp, r7
 800156a:	b002      	add	sp, #8
 800156c:	bd80      	pop	{r7, pc}
 800156e:	46c0      	nop			; (mov r8, r8)
 8001570:	0800bed8 	.word	0x0800bed8

08001574 <st7565_drawcursor>:
   
//==========================================================
// Draw cursor
//========================================================== 
void st7565_drawcursor(uint8_t* LCD_Buffer, uint8_t position)
    {
 8001574:	b580      	push	{r7, lr}
 8001576:	b086      	sub	sp, #24
 8001578:	af04      	add	r7, sp, #16
 800157a:	6078      	str	r0, [r7, #4]
 800157c:	000a      	movs	r2, r1
 800157e:	1cfb      	adds	r3, r7, #3
 8001580:	701a      	strb	r2, [r3, #0]
    switch (position) {
 8001582:	1cfb      	adds	r3, r7, #3
 8001584:	781b      	ldrb	r3, [r3, #0]
 8001586:	2b07      	cmp	r3, #7
 8001588:	d866      	bhi.n	8001658 <st7565_drawcursor+0xe4>
 800158a:	009a      	lsls	r2, r3, #2
 800158c:	4b34      	ldr	r3, [pc, #208]	; (8001660 <st7565_drawcursor+0xec>)
 800158e:	18d3      	adds	r3, r2, r3
 8001590:	681b      	ldr	r3, [r3, #0]
 8001592:	469f      	mov	pc, r3
        case 1: st7565_drawbitmap(LCD_Buffer, 2, 7, cursor, 128, 64, 10); break;
 8001594:	4a33      	ldr	r2, [pc, #204]	; (8001664 <st7565_drawcursor+0xf0>)
 8001596:	6878      	ldr	r0, [r7, #4]
 8001598:	230a      	movs	r3, #10
 800159a:	9302      	str	r3, [sp, #8]
 800159c:	2340      	movs	r3, #64	; 0x40
 800159e:	9301      	str	r3, [sp, #4]
 80015a0:	2380      	movs	r3, #128	; 0x80
 80015a2:	9300      	str	r3, [sp, #0]
 80015a4:	0013      	movs	r3, r2
 80015a6:	2207      	movs	r2, #7
 80015a8:	2102      	movs	r1, #2
 80015aa:	f7ff fc1b 	bl	8000de4 <st7565_drawbitmap>
 80015ae:	e053      	b.n	8001658 <st7565_drawcursor+0xe4>
        case 2: st7565_drawbitmap(LCD_Buffer, 2, 15, cursor, 128, 64, 10); break;
 80015b0:	4a2c      	ldr	r2, [pc, #176]	; (8001664 <st7565_drawcursor+0xf0>)
 80015b2:	6878      	ldr	r0, [r7, #4]
 80015b4:	230a      	movs	r3, #10
 80015b6:	9302      	str	r3, [sp, #8]
 80015b8:	2340      	movs	r3, #64	; 0x40
 80015ba:	9301      	str	r3, [sp, #4]
 80015bc:	2380      	movs	r3, #128	; 0x80
 80015be:	9300      	str	r3, [sp, #0]
 80015c0:	0013      	movs	r3, r2
 80015c2:	220f      	movs	r2, #15
 80015c4:	2102      	movs	r1, #2
 80015c6:	f7ff fc0d 	bl	8000de4 <st7565_drawbitmap>
 80015ca:	e045      	b.n	8001658 <st7565_drawcursor+0xe4>
        case 3: st7565_drawbitmap(LCD_Buffer, 2, 23, cursor, 128, 64, 10); break;
 80015cc:	4a25      	ldr	r2, [pc, #148]	; (8001664 <st7565_drawcursor+0xf0>)
 80015ce:	6878      	ldr	r0, [r7, #4]
 80015d0:	230a      	movs	r3, #10
 80015d2:	9302      	str	r3, [sp, #8]
 80015d4:	2340      	movs	r3, #64	; 0x40
 80015d6:	9301      	str	r3, [sp, #4]
 80015d8:	2380      	movs	r3, #128	; 0x80
 80015da:	9300      	str	r3, [sp, #0]
 80015dc:	0013      	movs	r3, r2
 80015de:	2217      	movs	r2, #23
 80015e0:	2102      	movs	r1, #2
 80015e2:	f7ff fbff 	bl	8000de4 <st7565_drawbitmap>
 80015e6:	e037      	b.n	8001658 <st7565_drawcursor+0xe4>
        case 4: st7565_drawbitmap(LCD_Buffer, 2, 31, cursor, 128, 64, 10); break;
 80015e8:	4a1e      	ldr	r2, [pc, #120]	; (8001664 <st7565_drawcursor+0xf0>)
 80015ea:	6878      	ldr	r0, [r7, #4]
 80015ec:	230a      	movs	r3, #10
 80015ee:	9302      	str	r3, [sp, #8]
 80015f0:	2340      	movs	r3, #64	; 0x40
 80015f2:	9301      	str	r3, [sp, #4]
 80015f4:	2380      	movs	r3, #128	; 0x80
 80015f6:	9300      	str	r3, [sp, #0]
 80015f8:	0013      	movs	r3, r2
 80015fa:	221f      	movs	r2, #31
 80015fc:	2102      	movs	r1, #2
 80015fe:	f7ff fbf1 	bl	8000de4 <st7565_drawbitmap>
 8001602:	e029      	b.n	8001658 <st7565_drawcursor+0xe4>
        case 5: st7565_drawbitmap(LCD_Buffer, 2, 39, cursor, 128, 64, 10); break;
 8001604:	4a17      	ldr	r2, [pc, #92]	; (8001664 <st7565_drawcursor+0xf0>)
 8001606:	6878      	ldr	r0, [r7, #4]
 8001608:	230a      	movs	r3, #10
 800160a:	9302      	str	r3, [sp, #8]
 800160c:	2340      	movs	r3, #64	; 0x40
 800160e:	9301      	str	r3, [sp, #4]
 8001610:	2380      	movs	r3, #128	; 0x80
 8001612:	9300      	str	r3, [sp, #0]
 8001614:	0013      	movs	r3, r2
 8001616:	2227      	movs	r2, #39	; 0x27
 8001618:	2102      	movs	r1, #2
 800161a:	f7ff fbe3 	bl	8000de4 <st7565_drawbitmap>
 800161e:	e01b      	b.n	8001658 <st7565_drawcursor+0xe4>
        case 6: st7565_drawbitmap(LCD_Buffer, 2, 47, cursor, 128, 64, 10); break;
 8001620:	4a10      	ldr	r2, [pc, #64]	; (8001664 <st7565_drawcursor+0xf0>)
 8001622:	6878      	ldr	r0, [r7, #4]
 8001624:	230a      	movs	r3, #10
 8001626:	9302      	str	r3, [sp, #8]
 8001628:	2340      	movs	r3, #64	; 0x40
 800162a:	9301      	str	r3, [sp, #4]
 800162c:	2380      	movs	r3, #128	; 0x80
 800162e:	9300      	str	r3, [sp, #0]
 8001630:	0013      	movs	r3, r2
 8001632:	222f      	movs	r2, #47	; 0x2f
 8001634:	2102      	movs	r1, #2
 8001636:	f7ff fbd5 	bl	8000de4 <st7565_drawbitmap>
 800163a:	e00d      	b.n	8001658 <st7565_drawcursor+0xe4>
        case 7: st7565_drawbitmap(LCD_Buffer, 2, 55, cursor, 128, 64, 10); break;
 800163c:	4a09      	ldr	r2, [pc, #36]	; (8001664 <st7565_drawcursor+0xf0>)
 800163e:	6878      	ldr	r0, [r7, #4]
 8001640:	230a      	movs	r3, #10
 8001642:	9302      	str	r3, [sp, #8]
 8001644:	2340      	movs	r3, #64	; 0x40
 8001646:	9301      	str	r3, [sp, #4]
 8001648:	2380      	movs	r3, #128	; 0x80
 800164a:	9300      	str	r3, [sp, #0]
 800164c:	0013      	movs	r3, r2
 800164e:	2237      	movs	r2, #55	; 0x37
 8001650:	2102      	movs	r1, #2
 8001652:	f7ff fbc7 	bl	8000de4 <st7565_drawbitmap>
 8001656:	46c0      	nop			; (mov r8, r8)
        }
    }
 8001658:	46c0      	nop			; (mov r8, r8)
 800165a:	46bd      	mov	sp, r7
 800165c:	b002      	add	sp, #8
 800165e:	bd80      	pop	{r7, pc}
 8001660:	0800d43c 	.word	0x0800d43c
 8001664:	0800cad8 	.word	0x0800cad8

08001668 <st7565_drawmenu>:

//==========================================================
// Draw menu
//========================================================== 
void st7565_drawmenu(uint8_t* LCD_Buffer, menu_t type)
    {
 8001668:	b580      	push	{r7, lr}
 800166a:	b082      	sub	sp, #8
 800166c:	af00      	add	r7, sp, #0
 800166e:	6078      	str	r0, [r7, #4]
 8001670:	000a      	movs	r2, r1
 8001672:	1cfb      	adds	r3, r7, #3
 8001674:	701a      	strb	r2, [r3, #0]
    switch (type) {
 8001676:	1cfb      	adds	r3, r7, #3
 8001678:	781b      	ldrb	r3, [r3, #0]
 800167a:	2b05      	cmp	r3, #5
 800167c:	d900      	bls.n	8001680 <st7565_drawmenu+0x18>
 800167e:	e0be      	b.n	80017fe <st7565_drawmenu+0x196>
 8001680:	009a      	lsls	r2, r3, #2
 8001682:	4b61      	ldr	r3, [pc, #388]	; (8001808 <st7565_drawmenu+0x1a0>)
 8001684:	18d3      	adds	r3, r2, r3
 8001686:	681b      	ldr	r3, [r3, #0]
 8001688:	469f      	mov	pc, r3
        case main_m:
            st7565_drawstring(LCD_Buffer, 40, 0, "MAIN MENU");
 800168a:	4b60      	ldr	r3, [pc, #384]	; (800180c <st7565_drawmenu+0x1a4>)
 800168c:	6878      	ldr	r0, [r7, #4]
 800168e:	2200      	movs	r2, #0
 8001690:	2128      	movs	r1, #40	; 0x28
 8001692:	f7ff fc11 	bl	8000eb8 <st7565_drawstring>
            st7565_drawstring(LCD_Buffer, 8, 1, " Clock Settings");
 8001696:	4b5e      	ldr	r3, [pc, #376]	; (8001810 <st7565_drawmenu+0x1a8>)
 8001698:	6878      	ldr	r0, [r7, #4]
 800169a:	2201      	movs	r2, #1
 800169c:	2108      	movs	r1, #8
 800169e:	f7ff fc0b 	bl	8000eb8 <st7565_drawstring>
            st7565_drawstring(LCD_Buffer, 8, 2, " Moodlight");
 80016a2:	4b5c      	ldr	r3, [pc, #368]	; (8001814 <st7565_drawmenu+0x1ac>)
 80016a4:	6878      	ldr	r0, [r7, #4]
 80016a6:	2202      	movs	r2, #2
 80016a8:	2108      	movs	r1, #8
 80016aa:	f7ff fc05 	bl	8000eb8 <st7565_drawstring>
            st7565_drawstring(LCD_Buffer, 8, 3, " Bluetooth");
 80016ae:	4b5a      	ldr	r3, [pc, #360]	; (8001818 <st7565_drawmenu+0x1b0>)
 80016b0:	6878      	ldr	r0, [r7, #4]
 80016b2:	2203      	movs	r2, #3
 80016b4:	2108      	movs	r1, #8
 80016b6:	f7ff fbff 	bl	8000eb8 <st7565_drawstring>
            st7565_drawstring(LCD_Buffer, 8, 4, " Music");
 80016ba:	4b58      	ldr	r3, [pc, #352]	; (800181c <st7565_drawmenu+0x1b4>)
 80016bc:	6878      	ldr	r0, [r7, #4]
 80016be:	2204      	movs	r2, #4
 80016c0:	2108      	movs	r1, #8
 80016c2:	f7ff fbf9 	bl	8000eb8 <st7565_drawstring>
            st7565_drawstring(LCD_Buffer, 8, 5, " Return");
 80016c6:	4b56      	ldr	r3, [pc, #344]	; (8001820 <st7565_drawmenu+0x1b8>)
 80016c8:	6878      	ldr	r0, [r7, #4]
 80016ca:	2205      	movs	r2, #5
 80016cc:	2108      	movs	r1, #8
 80016ce:	f7ff fbf3 	bl	8000eb8 <st7565_drawstring>
            break;
 80016d2:	e094      	b.n	80017fe <st7565_drawmenu+0x196>

        case clock:
            st7565_drawstring(LCD_Buffer, 50, 0, "CLOCK");
 80016d4:	4b53      	ldr	r3, [pc, #332]	; (8001824 <st7565_drawmenu+0x1bc>)
 80016d6:	6878      	ldr	r0, [r7, #4]
 80016d8:	2200      	movs	r2, #0
 80016da:	2132      	movs	r1, #50	; 0x32
 80016dc:	f7ff fbec 	bl	8000eb8 <st7565_drawstring>
            st7565_drawstring(LCD_Buffer, 8, 1, " Time & Date");
 80016e0:	4b51      	ldr	r3, [pc, #324]	; (8001828 <st7565_drawmenu+0x1c0>)
 80016e2:	6878      	ldr	r0, [r7, #4]
 80016e4:	2201      	movs	r2, #1
 80016e6:	2108      	movs	r1, #8
 80016e8:	f7ff fbe6 	bl	8000eb8 <st7565_drawstring>
            st7565_drawstring(LCD_Buffer, 8, 2, " Alarm");
 80016ec:	4b4f      	ldr	r3, [pc, #316]	; (800182c <st7565_drawmenu+0x1c4>)
 80016ee:	6878      	ldr	r0, [r7, #4]
 80016f0:	2202      	movs	r2, #2
 80016f2:	2108      	movs	r1, #8
 80016f4:	f7ff fbe0 	bl	8000eb8 <st7565_drawstring>
            st7565_drawstring(LCD_Buffer, 8, 3, " Return");
 80016f8:	4b49      	ldr	r3, [pc, #292]	; (8001820 <st7565_drawmenu+0x1b8>)
 80016fa:	6878      	ldr	r0, [r7, #4]
 80016fc:	2203      	movs	r2, #3
 80016fe:	2108      	movs	r1, #8
 8001700:	f7ff fbda 	bl	8000eb8 <st7565_drawstring>
            break;
 8001704:	e07b      	b.n	80017fe <st7565_drawmenu+0x196>

        case moodlight:
            st7565_drawstring(LCD_Buffer, 40, 0, "MOODLIGHT");
 8001706:	4b4a      	ldr	r3, [pc, #296]	; (8001830 <st7565_drawmenu+0x1c8>)
 8001708:	6878      	ldr	r0, [r7, #4]
 800170a:	2200      	movs	r2, #0
 800170c:	2128      	movs	r1, #40	; 0x28
 800170e:	f7ff fbd3 	bl	8000eb8 <st7565_drawstring>
            st7565_drawstring(LCD_Buffer, 8, 1, " Colors");
 8001712:	4b48      	ldr	r3, [pc, #288]	; (8001834 <st7565_drawmenu+0x1cc>)
 8001714:	6878      	ldr	r0, [r7, #4]
 8001716:	2201      	movs	r2, #1
 8001718:	2108      	movs	r1, #8
 800171a:	f7ff fbcd 	bl	8000eb8 <st7565_drawstring>
            st7565_drawstring(LCD_Buffer, 8, 2, " Custom");
 800171e:	4b46      	ldr	r3, [pc, #280]	; (8001838 <st7565_drawmenu+0x1d0>)
 8001720:	6878      	ldr	r0, [r7, #4]
 8001722:	2202      	movs	r2, #2
 8001724:	2108      	movs	r1, #8
 8001726:	f7ff fbc7 	bl	8000eb8 <st7565_drawstring>
            st7565_drawstring(LCD_Buffer, 8, 3, " Return");
 800172a:	4b3d      	ldr	r3, [pc, #244]	; (8001820 <st7565_drawmenu+0x1b8>)
 800172c:	6878      	ldr	r0, [r7, #4]
 800172e:	2203      	movs	r2, #3
 8001730:	2108      	movs	r1, #8
 8001732:	f7ff fbc1 	bl	8000eb8 <st7565_drawstring>
            break;
 8001736:	e062      	b.n	80017fe <st7565_drawmenu+0x196>
        
        case bluetooth:
            st7565_drawstring(LCD_Buffer, 50, 0, "BLUETOOTH");
 8001738:	4b40      	ldr	r3, [pc, #256]	; (800183c <st7565_drawmenu+0x1d4>)
 800173a:	6878      	ldr	r0, [r7, #4]
 800173c:	2200      	movs	r2, #0
 800173e:	2132      	movs	r1, #50	; 0x32
 8001740:	f7ff fbba 	bl	8000eb8 <st7565_drawstring>
            st7565_drawstring(LCD_Buffer, 8, 1, " Pair");
 8001744:	4b3e      	ldr	r3, [pc, #248]	; (8001840 <st7565_drawmenu+0x1d8>)
 8001746:	6878      	ldr	r0, [r7, #4]
 8001748:	2201      	movs	r2, #1
 800174a:	2108      	movs	r1, #8
 800174c:	f7ff fbb4 	bl	8000eb8 <st7565_drawstring>
            st7565_drawstring(LCD_Buffer, 8, 2, " Settings");
 8001750:	4b3c      	ldr	r3, [pc, #240]	; (8001844 <st7565_drawmenu+0x1dc>)
 8001752:	6878      	ldr	r0, [r7, #4]
 8001754:	2202      	movs	r2, #2
 8001756:	2108      	movs	r1, #8
 8001758:	f7ff fbae 	bl	8000eb8 <st7565_drawstring>
            st7565_drawstring(LCD_Buffer, 8, 3, " Return");
 800175c:	4b30      	ldr	r3, [pc, #192]	; (8001820 <st7565_drawmenu+0x1b8>)
 800175e:	6878      	ldr	r0, [r7, #4]
 8001760:	2203      	movs	r2, #3
 8001762:	2108      	movs	r1, #8
 8001764:	f7ff fba8 	bl	8000eb8 <st7565_drawstring>
            break;
 8001768:	e049      	b.n	80017fe <st7565_drawmenu+0x196>
        
        case music:
            st7565_drawstring(LCD_Buffer, 50, 0, "MUSIC");
 800176a:	4b37      	ldr	r3, [pc, #220]	; (8001848 <st7565_drawmenu+0x1e0>)
 800176c:	6878      	ldr	r0, [r7, #4]
 800176e:	2200      	movs	r2, #0
 8001770:	2132      	movs	r1, #50	; 0x32
 8001772:	f7ff fba1 	bl	8000eb8 <st7565_drawstring>
            st7565_drawstring(LCD_Buffer, 8, 1, " Player");
 8001776:	4b35      	ldr	r3, [pc, #212]	; (800184c <st7565_drawmenu+0x1e4>)
 8001778:	6878      	ldr	r0, [r7, #4]
 800177a:	2201      	movs	r2, #1
 800177c:	2108      	movs	r1, #8
 800177e:	f7ff fb9b 	bl	8000eb8 <st7565_drawstring>
            st7565_drawstring(LCD_Buffer, 8, 2, " Volume");
 8001782:	4b33      	ldr	r3, [pc, #204]	; (8001850 <st7565_drawmenu+0x1e8>)
 8001784:	6878      	ldr	r0, [r7, #4]
 8001786:	2202      	movs	r2, #2
 8001788:	2108      	movs	r1, #8
 800178a:	f7ff fb95 	bl	8000eb8 <st7565_drawstring>
            st7565_drawstring(LCD_Buffer, 8, 3, " Return");
 800178e:	4b24      	ldr	r3, [pc, #144]	; (8001820 <st7565_drawmenu+0x1b8>)
 8001790:	6878      	ldr	r0, [r7, #4]
 8001792:	2203      	movs	r2, #3
 8001794:	2108      	movs	r1, #8
 8001796:	f7ff fb8f 	bl	8000eb8 <st7565_drawstring>
            break;
 800179a:	e030      	b.n	80017fe <st7565_drawmenu+0x196>

        case colors:
        	st7565_drawstring(LCD_Buffer, 40, 0, " COLORS");
 800179c:	4b2d      	ldr	r3, [pc, #180]	; (8001854 <st7565_drawmenu+0x1ec>)
 800179e:	6878      	ldr	r0, [r7, #4]
 80017a0:	2200      	movs	r2, #0
 80017a2:	2128      	movs	r1, #40	; 0x28
 80017a4:	f7ff fb88 	bl	8000eb8 <st7565_drawstring>
        	st7565_drawstring(LCD_Buffer, 8, 1, " White");
 80017a8:	4b2b      	ldr	r3, [pc, #172]	; (8001858 <st7565_drawmenu+0x1f0>)
 80017aa:	6878      	ldr	r0, [r7, #4]
 80017ac:	2201      	movs	r2, #1
 80017ae:	2108      	movs	r1, #8
 80017b0:	f7ff fb82 	bl	8000eb8 <st7565_drawstring>
        	st7565_drawstring(LCD_Buffer, 8, 2, " Red");
 80017b4:	4b29      	ldr	r3, [pc, #164]	; (800185c <st7565_drawmenu+0x1f4>)
 80017b6:	6878      	ldr	r0, [r7, #4]
 80017b8:	2202      	movs	r2, #2
 80017ba:	2108      	movs	r1, #8
 80017bc:	f7ff fb7c 	bl	8000eb8 <st7565_drawstring>
        	st7565_drawstring(LCD_Buffer, 8, 3, " Green");
 80017c0:	4b27      	ldr	r3, [pc, #156]	; (8001860 <st7565_drawmenu+0x1f8>)
 80017c2:	6878      	ldr	r0, [r7, #4]
 80017c4:	2203      	movs	r2, #3
 80017c6:	2108      	movs	r1, #8
 80017c8:	f7ff fb76 	bl	8000eb8 <st7565_drawstring>
        	st7565_drawstring(LCD_Buffer, 8, 4, " Blue");
 80017cc:	4b25      	ldr	r3, [pc, #148]	; (8001864 <st7565_drawmenu+0x1fc>)
 80017ce:	6878      	ldr	r0, [r7, #4]
 80017d0:	2204      	movs	r2, #4
 80017d2:	2108      	movs	r1, #8
 80017d4:	f7ff fb70 	bl	8000eb8 <st7565_drawstring>
        	st7565_drawstring(LCD_Buffer, 8, 5, " Yellow");
 80017d8:	4b23      	ldr	r3, [pc, #140]	; (8001868 <st7565_drawmenu+0x200>)
 80017da:	6878      	ldr	r0, [r7, #4]
 80017dc:	2205      	movs	r2, #5
 80017de:	2108      	movs	r1, #8
 80017e0:	f7ff fb6a 	bl	8000eb8 <st7565_drawstring>
        	st7565_drawstring(LCD_Buffer, 8, 6, " Purple");
 80017e4:	4b21      	ldr	r3, [pc, #132]	; (800186c <st7565_drawmenu+0x204>)
 80017e6:	6878      	ldr	r0, [r7, #4]
 80017e8:	2206      	movs	r2, #6
 80017ea:	2108      	movs	r1, #8
 80017ec:	f7ff fb64 	bl	8000eb8 <st7565_drawstring>
        	st7565_drawstring(LCD_Buffer, 8, 7, " Return");
 80017f0:	4b0b      	ldr	r3, [pc, #44]	; (8001820 <st7565_drawmenu+0x1b8>)
 80017f2:	6878      	ldr	r0, [r7, #4]
 80017f4:	2207      	movs	r2, #7
 80017f6:	2108      	movs	r1, #8
 80017f8:	f7ff fb5e 	bl	8000eb8 <st7565_drawstring>
        	break;
 80017fc:	46c0      	nop			; (mov r8, r8)
        }
    }
 80017fe:	46c0      	nop			; (mov r8, r8)
 8001800:	46bd      	mov	sp, r7
 8001802:	b002      	add	sp, #8
 8001804:	bd80      	pop	{r7, pc}
 8001806:	46c0      	nop			; (mov r8, r8)
 8001808:	0800d45c 	.word	0x0800d45c
 800180c:	080084ec 	.word	0x080084ec
 8001810:	080084f8 	.word	0x080084f8
 8001814:	08008508 	.word	0x08008508
 8001818:	08008514 	.word	0x08008514
 800181c:	08008520 	.word	0x08008520
 8001820:	08008528 	.word	0x08008528
 8001824:	08008530 	.word	0x08008530
 8001828:	08008538 	.word	0x08008538
 800182c:	08008548 	.word	0x08008548
 8001830:	08008550 	.word	0x08008550
 8001834:	0800855c 	.word	0x0800855c
 8001838:	08008564 	.word	0x08008564
 800183c:	0800856c 	.word	0x0800856c
 8001840:	08008578 	.word	0x08008578
 8001844:	08008580 	.word	0x08008580
 8001848:	0800858c 	.word	0x0800858c
 800184c:	08008594 	.word	0x08008594
 8001850:	0800859c 	.word	0x0800859c
 8001854:	080085a4 	.word	0x080085a4
 8001858:	080085ac 	.word	0x080085ac
 800185c:	080085b4 	.word	0x080085b4
 8001860:	080085bc 	.word	0x080085bc
 8001864:	080085c4 	.word	0x080085c4
 8001868:	080085cc 	.word	0x080085cc
 800186c:	080085d4 	.word	0x080085d4

08001870 <st7565_drawmenu_custom>:

//==========================================================
// Draw custom menu
//==========================================================
void st7565_drawmenu_custom(uint8_t* LCD_Buffer, uint8_t led_intens_w, uint8_t led_intens_r, uint8_t led_intens_g, uint8_t led_intens_b)
    {
 8001870:	b5f0      	push	{r4, r5, r6, r7, lr}
 8001872:	b087      	sub	sp, #28
 8001874:	af00      	add	r7, sp, #0
 8001876:	6078      	str	r0, [r7, #4]
 8001878:	000c      	movs	r4, r1
 800187a:	0010      	movs	r0, r2
 800187c:	0019      	movs	r1, r3
 800187e:	1cfb      	adds	r3, r7, #3
 8001880:	1c22      	adds	r2, r4, #0
 8001882:	701a      	strb	r2, [r3, #0]
 8001884:	1cbb      	adds	r3, r7, #2
 8001886:	1c02      	adds	r2, r0, #0
 8001888:	701a      	strb	r2, [r3, #0]
 800188a:	1c7b      	adds	r3, r7, #1
 800188c:	1c0a      	adds	r2, r1, #0
 800188e:	701a      	strb	r2, [r3, #0]
			uint8_t intens_w[1];
			uint8_t intens_r[1];
			uint8_t intens_g[1];
			uint8_t intens_b[1];

			itoa(led_intens_w, intens_w, 10);
 8001890:	1cfb      	adds	r3, r7, #3
 8001892:	781b      	ldrb	r3, [r3, #0]
 8001894:	2414      	movs	r4, #20
 8001896:	1939      	adds	r1, r7, r4
 8001898:	220a      	movs	r2, #10
 800189a:	0018      	movs	r0, r3
 800189c:	f006 fdcc 	bl	8008438 <itoa>
			itoa(led_intens_r, intens_r, 10);
 80018a0:	1cbb      	adds	r3, r7, #2
 80018a2:	781b      	ldrb	r3, [r3, #0]
 80018a4:	2510      	movs	r5, #16
 80018a6:	1979      	adds	r1, r7, r5
 80018a8:	220a      	movs	r2, #10
 80018aa:	0018      	movs	r0, r3
 80018ac:	f006 fdc4 	bl	8008438 <itoa>
			itoa(led_intens_g, intens_g, 10);
 80018b0:	1c7b      	adds	r3, r7, #1
 80018b2:	781b      	ldrb	r3, [r3, #0]
 80018b4:	260c      	movs	r6, #12
 80018b6:	19b9      	adds	r1, r7, r6
 80018b8:	220a      	movs	r2, #10
 80018ba:	0018      	movs	r0, r3
 80018bc:	f006 fdbc 	bl	8008438 <itoa>
			itoa(led_intens_b, intens_b, 10);
 80018c0:	2328      	movs	r3, #40	; 0x28
 80018c2:	2208      	movs	r2, #8
 80018c4:	4694      	mov	ip, r2
 80018c6:	44bc      	add	ip, r7
 80018c8:	4463      	add	r3, ip
 80018ca:	781b      	ldrb	r3, [r3, #0]
 80018cc:	2208      	movs	r2, #8
 80018ce:	18b9      	adds	r1, r7, r2
 80018d0:	220a      	movs	r2, #10
 80018d2:	0018      	movs	r0, r3
 80018d4:	f006 fdb0 	bl	8008438 <itoa>

			st7565_drawstring(LCD_Buffer, 40, 0, "CUSTOM COLOR");
 80018d8:	4b2c      	ldr	r3, [pc, #176]	; (800198c <st7565_drawmenu_custom+0x11c>)
 80018da:	6878      	ldr	r0, [r7, #4]
 80018dc:	2200      	movs	r2, #0
 80018de:	2128      	movs	r1, #40	; 0x28
 80018e0:	f7ff faea 	bl	8000eb8 <st7565_drawstring>
        	st7565_drawstring(LCD_Buffer, 8,  1, " White:");
 80018e4:	4b2a      	ldr	r3, [pc, #168]	; (8001990 <st7565_drawmenu_custom+0x120>)
 80018e6:	6878      	ldr	r0, [r7, #4]
 80018e8:	2201      	movs	r2, #1
 80018ea:	2108      	movs	r1, #8
 80018ec:	f7ff fae4 	bl	8000eb8 <st7565_drawstring>
        	st7565_drawstring(LCD_Buffer, 50, 1, intens_w);
 80018f0:	193b      	adds	r3, r7, r4
 80018f2:	6878      	ldr	r0, [r7, #4]
 80018f4:	2201      	movs	r2, #1
 80018f6:	2132      	movs	r1, #50	; 0x32
 80018f8:	f7ff fade 	bl	8000eb8 <st7565_drawstring>
        	st7565_drawstring(LCD_Buffer, 70, 1, " %");
 80018fc:	4b25      	ldr	r3, [pc, #148]	; (8001994 <st7565_drawmenu_custom+0x124>)
 80018fe:	6878      	ldr	r0, [r7, #4]
 8001900:	2201      	movs	r2, #1
 8001902:	2146      	movs	r1, #70	; 0x46
 8001904:	f7ff fad8 	bl	8000eb8 <st7565_drawstring>
        	st7565_drawstring(LCD_Buffer, 8,  2, " Red:");
 8001908:	4b23      	ldr	r3, [pc, #140]	; (8001998 <st7565_drawmenu_custom+0x128>)
 800190a:	6878      	ldr	r0, [r7, #4]
 800190c:	2202      	movs	r2, #2
 800190e:	2108      	movs	r1, #8
 8001910:	f7ff fad2 	bl	8000eb8 <st7565_drawstring>
        	st7565_drawstring(LCD_Buffer, 50, 2, intens_r);
 8001914:	197b      	adds	r3, r7, r5
 8001916:	6878      	ldr	r0, [r7, #4]
 8001918:	2202      	movs	r2, #2
 800191a:	2132      	movs	r1, #50	; 0x32
 800191c:	f7ff facc 	bl	8000eb8 <st7565_drawstring>
        	st7565_drawstring(LCD_Buffer, 70, 2, " %");
 8001920:	4b1c      	ldr	r3, [pc, #112]	; (8001994 <st7565_drawmenu_custom+0x124>)
 8001922:	6878      	ldr	r0, [r7, #4]
 8001924:	2202      	movs	r2, #2
 8001926:	2146      	movs	r1, #70	; 0x46
 8001928:	f7ff fac6 	bl	8000eb8 <st7565_drawstring>
        	st7565_drawstring(LCD_Buffer, 8,  3, " Green:");
 800192c:	4b1b      	ldr	r3, [pc, #108]	; (800199c <st7565_drawmenu_custom+0x12c>)
 800192e:	6878      	ldr	r0, [r7, #4]
 8001930:	2203      	movs	r2, #3
 8001932:	2108      	movs	r1, #8
 8001934:	f7ff fac0 	bl	8000eb8 <st7565_drawstring>
        	st7565_drawstring(LCD_Buffer, 50, 3, intens_g);
 8001938:	19bb      	adds	r3, r7, r6
 800193a:	6878      	ldr	r0, [r7, #4]
 800193c:	2203      	movs	r2, #3
 800193e:	2132      	movs	r1, #50	; 0x32
 8001940:	f7ff faba 	bl	8000eb8 <st7565_drawstring>
        	st7565_drawstring(LCD_Buffer, 70, 3, " %");
 8001944:	4b13      	ldr	r3, [pc, #76]	; (8001994 <st7565_drawmenu_custom+0x124>)
 8001946:	6878      	ldr	r0, [r7, #4]
 8001948:	2203      	movs	r2, #3
 800194a:	2146      	movs	r1, #70	; 0x46
 800194c:	f7ff fab4 	bl	8000eb8 <st7565_drawstring>
        	st7565_drawstring(LCD_Buffer, 8,  4, " Blue:");
 8001950:	4b13      	ldr	r3, [pc, #76]	; (80019a0 <st7565_drawmenu_custom+0x130>)
 8001952:	6878      	ldr	r0, [r7, #4]
 8001954:	2204      	movs	r2, #4
 8001956:	2108      	movs	r1, #8
 8001958:	f7ff faae 	bl	8000eb8 <st7565_drawstring>
        	st7565_drawstring(LCD_Buffer, 50, 4, intens_b);
 800195c:	2208      	movs	r2, #8
 800195e:	18bb      	adds	r3, r7, r2
 8001960:	6878      	ldr	r0, [r7, #4]
 8001962:	2204      	movs	r2, #4
 8001964:	2132      	movs	r1, #50	; 0x32
 8001966:	f7ff faa7 	bl	8000eb8 <st7565_drawstring>
        	st7565_drawstring(LCD_Buffer, 70, 4, " %");
 800196a:	4b0a      	ldr	r3, [pc, #40]	; (8001994 <st7565_drawmenu_custom+0x124>)
 800196c:	6878      	ldr	r0, [r7, #4]
 800196e:	2204      	movs	r2, #4
 8001970:	2146      	movs	r1, #70	; 0x46
 8001972:	f7ff faa1 	bl	8000eb8 <st7565_drawstring>
        	st7565_drawstring(LCD_Buffer, 8,  5, " Return");
 8001976:	4b0b      	ldr	r3, [pc, #44]	; (80019a4 <st7565_drawmenu_custom+0x134>)
 8001978:	6878      	ldr	r0, [r7, #4]
 800197a:	2205      	movs	r2, #5
 800197c:	2108      	movs	r1, #8
 800197e:	f7ff fa9b 	bl	8000eb8 <st7565_drawstring>
    }
 8001982:	46c0      	nop			; (mov r8, r8)
 8001984:	46bd      	mov	sp, r7
 8001986:	b007      	add	sp, #28
 8001988:	bdf0      	pop	{r4, r5, r6, r7, pc}
 800198a:	46c0      	nop			; (mov r8, r8)
 800198c:	080085dc 	.word	0x080085dc
 8001990:	080085ec 	.word	0x080085ec
 8001994:	080085f4 	.word	0x080085f4
 8001998:	080085f8 	.word	0x080085f8
 800199c:	08008600 	.word	0x08008600
 80019a0:	08008608 	.word	0x08008608
 80019a4:	08008528 	.word	0x08008528

080019a8 <st7565_drawmenu_settime>:

//==========================================================
// Draw set time menu
//==========================================================
void st7565_drawmenu_settime(uint8_t* LCD_Buffer, uint8_t set_hour, uint8_t set_min, uint8_t set_day, uint8_t set_mon, uint8_t set_year)
{
 80019a8:	b5f0      	push	{r4, r5, r6, r7, lr}
 80019aa:	b089      	sub	sp, #36	; 0x24
 80019ac:	af00      	add	r7, sp, #0
 80019ae:	6078      	str	r0, [r7, #4]
 80019b0:	000c      	movs	r4, r1
 80019b2:	0010      	movs	r0, r2
 80019b4:	0019      	movs	r1, r3
 80019b6:	1cfb      	adds	r3, r7, #3
 80019b8:	1c22      	adds	r2, r4, #0
 80019ba:	701a      	strb	r2, [r3, #0]
 80019bc:	1cbb      	adds	r3, r7, #2
 80019be:	1c02      	adds	r2, r0, #0
 80019c0:	701a      	strb	r2, [r3, #0]
 80019c2:	1c7b      	adds	r3, r7, #1
 80019c4:	1c0a      	adds	r2, r1, #0
 80019c6:	701a      	strb	r2, [r3, #0]
	uint8_t min[1];
	uint8_t day[1];
	uint8_t mon[1];
	uint8_t year[1];

	itoa(set_hour, hour, 10);
 80019c8:	1cfb      	adds	r3, r7, #3
 80019ca:	781b      	ldrb	r3, [r3, #0]
 80019cc:	241c      	movs	r4, #28
 80019ce:	1939      	adds	r1, r7, r4
 80019d0:	220a      	movs	r2, #10
 80019d2:	0018      	movs	r0, r3
 80019d4:	f006 fd30 	bl	8008438 <itoa>
	itoa(set_min, min, 10);
 80019d8:	1cbb      	adds	r3, r7, #2
 80019da:	781b      	ldrb	r3, [r3, #0]
 80019dc:	2518      	movs	r5, #24
 80019de:	1979      	adds	r1, r7, r5
 80019e0:	220a      	movs	r2, #10
 80019e2:	0018      	movs	r0, r3
 80019e4:	f006 fd28 	bl	8008438 <itoa>
	itoa(set_day, day, 10);
 80019e8:	1c7b      	adds	r3, r7, #1
 80019ea:	781b      	ldrb	r3, [r3, #0]
 80019ec:	2614      	movs	r6, #20
 80019ee:	19b9      	adds	r1, r7, r6
 80019f0:	220a      	movs	r2, #10
 80019f2:	0018      	movs	r0, r3
 80019f4:	f006 fd20 	bl	8008438 <itoa>
	itoa(set_mon, mon, 10);
 80019f8:	2330      	movs	r3, #48	; 0x30
 80019fa:	2208      	movs	r2, #8
 80019fc:	4694      	mov	ip, r2
 80019fe:	44bc      	add	ip, r7
 8001a00:	4463      	add	r3, ip
 8001a02:	781b      	ldrb	r3, [r3, #0]
 8001a04:	2210      	movs	r2, #16
 8001a06:	18b9      	adds	r1, r7, r2
 8001a08:	220a      	movs	r2, #10
 8001a0a:	0018      	movs	r0, r3
 8001a0c:	f006 fd14 	bl	8008438 <itoa>
	itoa(set_year, year, 10);
 8001a10:	2334      	movs	r3, #52	; 0x34
 8001a12:	2208      	movs	r2, #8
 8001a14:	4694      	mov	ip, r2
 8001a16:	44bc      	add	ip, r7
 8001a18:	4463      	add	r3, ip
 8001a1a:	781b      	ldrb	r3, [r3, #0]
 8001a1c:	210c      	movs	r1, #12
 8001a1e:	1879      	adds	r1, r7, r1
 8001a20:	220a      	movs	r2, #10
 8001a22:	0018      	movs	r0, r3
 8001a24:	f006 fd08 	bl	8008438 <itoa>

	st7565_drawstring(LCD_Buffer, 40, 0, "SET TIME");
 8001a28:	4b29      	ldr	r3, [pc, #164]	; (8001ad0 <st7565_drawmenu_settime+0x128>)
 8001a2a:	6878      	ldr	r0, [r7, #4]
 8001a2c:	2200      	movs	r2, #0
 8001a2e:	2128      	movs	r1, #40	; 0x28
 8001a30:	f7ff fa42 	bl	8000eb8 <st7565_drawstring>
	st7565_drawstring(LCD_Buffer, 8,  1, " Set hour:");
 8001a34:	4b27      	ldr	r3, [pc, #156]	; (8001ad4 <st7565_drawmenu_settime+0x12c>)
 8001a36:	6878      	ldr	r0, [r7, #4]
 8001a38:	2201      	movs	r2, #1
 8001a3a:	2108      	movs	r1, #8
 8001a3c:	f7ff fa3c 	bl	8000eb8 <st7565_drawstring>
	st7565_drawstring(LCD_Buffer, 80, 1, hour);
 8001a40:	193b      	adds	r3, r7, r4
 8001a42:	6878      	ldr	r0, [r7, #4]
 8001a44:	2201      	movs	r2, #1
 8001a46:	2150      	movs	r1, #80	; 0x50
 8001a48:	f7ff fa36 	bl	8000eb8 <st7565_drawstring>
	st7565_drawstring(LCD_Buffer, 8,  2, " Set minute:");
 8001a4c:	4b22      	ldr	r3, [pc, #136]	; (8001ad8 <st7565_drawmenu_settime+0x130>)
 8001a4e:	6878      	ldr	r0, [r7, #4]
 8001a50:	2202      	movs	r2, #2
 8001a52:	2108      	movs	r1, #8
 8001a54:	f7ff fa30 	bl	8000eb8 <st7565_drawstring>
	st7565_drawstring(LCD_Buffer, 80, 2, min);
 8001a58:	197b      	adds	r3, r7, r5
 8001a5a:	6878      	ldr	r0, [r7, #4]
 8001a5c:	2202      	movs	r2, #2
 8001a5e:	2150      	movs	r1, #80	; 0x50
 8001a60:	f7ff fa2a 	bl	8000eb8 <st7565_drawstring>
	st7565_drawstring(LCD_Buffer, 8,  3, " Set Day:");
 8001a64:	4b1d      	ldr	r3, [pc, #116]	; (8001adc <st7565_drawmenu_settime+0x134>)
 8001a66:	6878      	ldr	r0, [r7, #4]
 8001a68:	2203      	movs	r2, #3
 8001a6a:	2108      	movs	r1, #8
 8001a6c:	f7ff fa24 	bl	8000eb8 <st7565_drawstring>
	st7565_drawstring(LCD_Buffer, 80, 3, day);
 8001a70:	19bb      	adds	r3, r7, r6
 8001a72:	6878      	ldr	r0, [r7, #4]
 8001a74:	2203      	movs	r2, #3
 8001a76:	2150      	movs	r1, #80	; 0x50
 8001a78:	f7ff fa1e 	bl	8000eb8 <st7565_drawstring>
	st7565_drawstring(LCD_Buffer, 8,  4, " Set Month:");
 8001a7c:	4b18      	ldr	r3, [pc, #96]	; (8001ae0 <st7565_drawmenu_settime+0x138>)
 8001a7e:	6878      	ldr	r0, [r7, #4]
 8001a80:	2204      	movs	r2, #4
 8001a82:	2108      	movs	r1, #8
 8001a84:	f7ff fa18 	bl	8000eb8 <st7565_drawstring>
	st7565_drawstring(LCD_Buffer, 80, 4, mon);
 8001a88:	2210      	movs	r2, #16
 8001a8a:	18bb      	adds	r3, r7, r2
 8001a8c:	6878      	ldr	r0, [r7, #4]
 8001a8e:	2204      	movs	r2, #4
 8001a90:	2150      	movs	r1, #80	; 0x50
 8001a92:	f7ff fa11 	bl	8000eb8 <st7565_drawstring>
	st7565_drawstring(LCD_Buffer, 8,  5, " Set Year:");
 8001a96:	4b13      	ldr	r3, [pc, #76]	; (8001ae4 <st7565_drawmenu_settime+0x13c>)
 8001a98:	6878      	ldr	r0, [r7, #4]
 8001a9a:	2205      	movs	r2, #5
 8001a9c:	2108      	movs	r1, #8
 8001a9e:	f7ff fa0b 	bl	8000eb8 <st7565_drawstring>
	st7565_drawstring(LCD_Buffer, 80,  5, "20");
 8001aa2:	4b11      	ldr	r3, [pc, #68]	; (8001ae8 <st7565_drawmenu_settime+0x140>)
 8001aa4:	6878      	ldr	r0, [r7, #4]
 8001aa6:	2205      	movs	r2, #5
 8001aa8:	2150      	movs	r1, #80	; 0x50
 8001aaa:	f7ff fa05 	bl	8000eb8 <st7565_drawstring>
	st7565_drawstring(LCD_Buffer, 92, 5, year);
 8001aae:	210c      	movs	r1, #12
 8001ab0:	187b      	adds	r3, r7, r1
 8001ab2:	6878      	ldr	r0, [r7, #4]
 8001ab4:	2205      	movs	r2, #5
 8001ab6:	215c      	movs	r1, #92	; 0x5c
 8001ab8:	f7ff f9fe 	bl	8000eb8 <st7565_drawstring>
	st7565_drawstring(LCD_Buffer, 8,  6, " Return");
 8001abc:	4b0b      	ldr	r3, [pc, #44]	; (8001aec <st7565_drawmenu_settime+0x144>)
 8001abe:	6878      	ldr	r0, [r7, #4]
 8001ac0:	2206      	movs	r2, #6
 8001ac2:	2108      	movs	r1, #8
 8001ac4:	f7ff f9f8 	bl	8000eb8 <st7565_drawstring>
}
 8001ac8:	46c0      	nop			; (mov r8, r8)
 8001aca:	46bd      	mov	sp, r7
 8001acc:	b009      	add	sp, #36	; 0x24
 8001ace:	bdf0      	pop	{r4, r5, r6, r7, pc}
 8001ad0:	08008610 	.word	0x08008610
 8001ad4:	0800861c 	.word	0x0800861c
 8001ad8:	08008628 	.word	0x08008628
 8001adc:	08008638 	.word	0x08008638
 8001ae0:	08008644 	.word	0x08008644
 8001ae4:	08008650 	.word	0x08008650
 8001ae8:	0800865c 	.word	0x0800865c
 8001aec:	08008528 	.word	0x08008528

08001af0 <st7565_drawmenu_setalarm>:

//==========================================================
// Draw alarm menu
//==========================================================
void st7565_drawmenu_setalarm(uint8_t* LCD_Buffer, uint8_t set_al_hr, uint8_t set_al_min)
{
 8001af0:	b5b0      	push	{r4, r5, r7, lr}
 8001af2:	b084      	sub	sp, #16
 8001af4:	af00      	add	r7, sp, #0
 8001af6:	6078      	str	r0, [r7, #4]
 8001af8:	0008      	movs	r0, r1
 8001afa:	0011      	movs	r1, r2
 8001afc:	1cfb      	adds	r3, r7, #3
 8001afe:	1c02      	adds	r2, r0, #0
 8001b00:	701a      	strb	r2, [r3, #0]
 8001b02:	1cbb      	adds	r3, r7, #2
 8001b04:	1c0a      	adds	r2, r1, #0
 8001b06:	701a      	strb	r2, [r3, #0]
	uint8_t al_hr[1];
	uint8_t al_min[1];

	itoa(set_al_hr, al_hr, 10);
 8001b08:	1cfb      	adds	r3, r7, #3
 8001b0a:	781b      	ldrb	r3, [r3, #0]
 8001b0c:	240c      	movs	r4, #12
 8001b0e:	1939      	adds	r1, r7, r4
 8001b10:	220a      	movs	r2, #10
 8001b12:	0018      	movs	r0, r3
 8001b14:	f006 fc90 	bl	8008438 <itoa>
	itoa(set_al_min, al_min, 10);
 8001b18:	1cbb      	adds	r3, r7, #2
 8001b1a:	781b      	ldrb	r3, [r3, #0]
 8001b1c:	2508      	movs	r5, #8
 8001b1e:	1979      	adds	r1, r7, r5
 8001b20:	220a      	movs	r2, #10
 8001b22:	0018      	movs	r0, r3
 8001b24:	f006 fc88 	bl	8008438 <itoa>

	st7565_drawstring(LCD_Buffer, 40, 0, "SET ALARM");
 8001b28:	4b13      	ldr	r3, [pc, #76]	; (8001b78 <st7565_drawmenu_setalarm+0x88>)
 8001b2a:	6878      	ldr	r0, [r7, #4]
 8001b2c:	2200      	movs	r2, #0
 8001b2e:	2128      	movs	r1, #40	; 0x28
 8001b30:	f7ff f9c2 	bl	8000eb8 <st7565_drawstring>
	st7565_drawstring(LCD_Buffer, 8,  1, " Set Hour:");
 8001b34:	4b11      	ldr	r3, [pc, #68]	; (8001b7c <st7565_drawmenu_setalarm+0x8c>)
 8001b36:	6878      	ldr	r0, [r7, #4]
 8001b38:	2201      	movs	r2, #1
 8001b3a:	2108      	movs	r1, #8
 8001b3c:	f7ff f9bc 	bl	8000eb8 <st7565_drawstring>
	st7565_drawstring(LCD_Buffer, 80, 1, al_hr);
 8001b40:	193b      	adds	r3, r7, r4
 8001b42:	6878      	ldr	r0, [r7, #4]
 8001b44:	2201      	movs	r2, #1
 8001b46:	2150      	movs	r1, #80	; 0x50
 8001b48:	f7ff f9b6 	bl	8000eb8 <st7565_drawstring>
	st7565_drawstring(LCD_Buffer, 8,  2, " Set Minute:");
 8001b4c:	4b0c      	ldr	r3, [pc, #48]	; (8001b80 <st7565_drawmenu_setalarm+0x90>)
 8001b4e:	6878      	ldr	r0, [r7, #4]
 8001b50:	2202      	movs	r2, #2
 8001b52:	2108      	movs	r1, #8
 8001b54:	f7ff f9b0 	bl	8000eb8 <st7565_drawstring>
	st7565_drawstring(LCD_Buffer, 80, 2, al_min);
 8001b58:	197b      	adds	r3, r7, r5
 8001b5a:	6878      	ldr	r0, [r7, #4]
 8001b5c:	2202      	movs	r2, #2
 8001b5e:	2150      	movs	r1, #80	; 0x50
 8001b60:	f7ff f9aa 	bl	8000eb8 <st7565_drawstring>
	st7565_drawstring(LCD_Buffer, 8,  3, " Return");
 8001b64:	4b07      	ldr	r3, [pc, #28]	; (8001b84 <st7565_drawmenu_setalarm+0x94>)
 8001b66:	6878      	ldr	r0, [r7, #4]
 8001b68:	2203      	movs	r2, #3
 8001b6a:	2108      	movs	r1, #8
 8001b6c:	f7ff f9a4 	bl	8000eb8 <st7565_drawstring>
}
 8001b70:	46c0      	nop			; (mov r8, r8)
 8001b72:	46bd      	mov	sp, r7
 8001b74:	b004      	add	sp, #16
 8001b76:	bdb0      	pop	{r4, r5, r7, pc}
 8001b78:	08008660 	.word	0x08008660
 8001b7c:	0800866c 	.word	0x0800866c
 8001b80:	08008678 	.word	0x08008678
 8001b84:	08008528 	.word	0x08008528

08001b88 <main>:
/**
  * @brief  The application entry point.
  * @retval int
  */
int main(void)
{
 8001b88:	b590      	push	{r4, r7, lr}
 8001b8a:	b087      	sub	sp, #28
 8001b8c:	af04      	add	r7, sp, #16
  /* USER CODE END 1 */

  /* MCU Configuration--------------------------------------------------------*/

  /* Reset of all peripherals, Initializes the Flash interface and the Systick. */
  HAL_Init();
 8001b8e:	f002 fcc9 	bl	8004524 <HAL_Init>
  /* USER CODE BEGIN Init */

  /* USER CODE END Init */

  /* Configure the system clock */
  SystemClock_Config();
 8001b92:	f000 f89f 	bl	8001cd4 <SystemClock_Config>
  /* USER CODE BEGIN SysInit */

  /* USER CODE END SysInit */

  /* Initialize all configured peripherals */
  MX_GPIO_Init();
 8001b96:	f7fe fda3 	bl	80006e0 <MX_GPIO_Init>
  MX_RTC_Init();
 8001b9a:	f000 f919 	bl	8001dd0 <MX_RTC_Init>
  MX_TIM1_Init();
 8001b9e:	f002 f9a5 	bl	8003eec <MX_TIM1_Init>
  MX_TIM15_Init();
 8001ba2:	f002 fb19 	bl	80041d8 <MX_TIM15_Init>
  MX_USART1_UART_Init();
 8001ba6:	f002 fc39 	bl	800441c <MX_USART1_UART_Init>
  MX_ADC_Init();
 8001baa:	f7fe fc5b 	bl	8000464 <MX_ADC_Init>
  MX_I2C2_Init();
 8001bae:	f7fe fe67 	bl	8000880 <MX_I2C2_Init>
  MX_TIM3_Init();
 8001bb2:	f002 fa71 	bl	8004098 <MX_TIM3_Init>
  MX_TIM6_Init();
 8001bb6:	f002 fac5 	bl	8004144 <MX_TIM6_Init>
  MX_TIM14_Init();
 8001bba:	f002 fae7 	bl	800418c <MX_TIM14_Init>
  /* USER CODE BEGIN 2 */
	HAL_GPIO_WritePin(LEDUP_GPIO_Port, LEDUP_Pin, GPIO_PIN_SET);
 8001bbe:	4b3b      	ldr	r3, [pc, #236]	; (8001cac <main+0x124>)
 8001bc0:	2201      	movs	r2, #1
 8001bc2:	2110      	movs	r1, #16
 8001bc4:	0018      	movs	r0, r3
 8001bc6:	f003 faea 	bl	800519e <HAL_GPIO_WritePin>
	HAL_GPIO_WritePin(LEDDN_GPIO_Port, LEDDN_Pin, GPIO_PIN_SET);
 8001bca:	4b38      	ldr	r3, [pc, #224]	; (8001cac <main+0x124>)
 8001bcc:	2201      	movs	r2, #1
 8001bce:	2102      	movs	r1, #2
 8001bd0:	0018      	movs	r0, r3
 8001bd2:	f003 fae4 	bl	800519e <HAL_GPIO_WritePin>
	HAL_GPIO_WritePin(LEDLT_GPIO_Port, LEDLT_Pin, GPIO_PIN_SET);
 8001bd6:	4b35      	ldr	r3, [pc, #212]	; (8001cac <main+0x124>)
 8001bd8:	2201      	movs	r2, #1
 8001bda:	2120      	movs	r1, #32
 8001bdc:	0018      	movs	r0, r3
 8001bde:	f003 fade 	bl	800519e <HAL_GPIO_WritePin>
	HAL_GPIO_WritePin(LEDRT_GPIO_Port, LEDRT_Pin, GPIO_PIN_SET);
 8001be2:	4b32      	ldr	r3, [pc, #200]	; (8001cac <main+0x124>)
 8001be4:	2201      	movs	r2, #1
 8001be6:	2101      	movs	r1, #1
 8001be8:	0018      	movs	r0, r3
 8001bea:	f003 fad8 	bl	800519e <HAL_GPIO_WritePin>
	
	
	__HAL_TIM_SET_COMPARE(&htim1, PWM_CH_R, 200);
 8001bee:	4b30      	ldr	r3, [pc, #192]	; (8001cb0 <main+0x128>)
 8001bf0:	681b      	ldr	r3, [r3, #0]
 8001bf2:	22c8      	movs	r2, #200	; 0xc8
 8001bf4:	635a      	str	r2, [r3, #52]	; 0x34
	HAL_TIM_PWM_Start(&htim1, PWM_CH_R);
 8001bf6:	4b2e      	ldr	r3, [pc, #184]	; (8001cb0 <main+0x128>)
 8001bf8:	2100      	movs	r1, #0
 8001bfa:	0018      	movs	r0, r3
 8001bfc:	f005 f998 	bl	8006f30 <HAL_TIM_PWM_Start>
	//HAL_TIM_Base_Start_IT(&htim3);	// UI timer
	//HAL_TIM_Base_Start_IT(&htim6);	// Sensor timer
	
	//HAL_I2C_Master_Transmit(&hi2c2, SHTC3_ADDR, 
    
    st7565_init();
 8001c00:	f7fe ff9f 	bl	8000b42 <st7565_init>


//=======================================================================
// Show Startup Screen
//=======================================================================
    st7565_backlight_enable(); 
 8001c04:	f7ff f812 	bl	8000c2c <st7565_backlight_enable>
    st7565_set_brightness(0); 
 8001c08:	2000      	movs	r0, #0
 8001c0a:	f7ff f81b 	bl	8000c44 <st7565_set_brightness>
    HAL_Delay(10);
 8001c0e:	200a      	movs	r0, #10
 8001c10:	f002 fcec 	bl	80045ec <HAL_Delay>
   
// Show startup screen
    st7565_clear_buffer(LCD_Buffer);
 8001c14:	4b27      	ldr	r3, [pc, #156]	; (8001cb4 <main+0x12c>)
 8001c16:	0018      	movs	r0, r3
 8001c18:	f7ff f86a 	bl	8000cf0 <st7565_clear_buffer>
    st7565_drawbitmap(LCD_Buffer, 0, 0, atom_symbol, 128, 64, 10);
 8001c1c:	4a26      	ldr	r2, [pc, #152]	; (8001cb8 <main+0x130>)
 8001c1e:	4825      	ldr	r0, [pc, #148]	; (8001cb4 <main+0x12c>)
 8001c20:	230a      	movs	r3, #10
 8001c22:	9302      	str	r3, [sp, #8]
 8001c24:	2340      	movs	r3, #64	; 0x40
 8001c26:	9301      	str	r3, [sp, #4]
 8001c28:	2380      	movs	r3, #128	; 0x80
 8001c2a:	9300      	str	r3, [sp, #0]
 8001c2c:	0013      	movs	r3, r2
 8001c2e:	2200      	movs	r2, #0
 8001c30:	2100      	movs	r1, #0
 8001c32:	f7ff f8d7 	bl	8000de4 <st7565_drawbitmap>
    st7565_drawstring(LCD_Buffer, 22, 7, "Moodlight 2020");
 8001c36:	4b21      	ldr	r3, [pc, #132]	; (8001cbc <main+0x134>)
 8001c38:	481e      	ldr	r0, [pc, #120]	; (8001cb4 <main+0x12c>)
 8001c3a:	2207      	movs	r2, #7
 8001c3c:	2116      	movs	r1, #22
 8001c3e:	f7ff f93b 	bl	8000eb8 <st7565_drawstring>
    st7565_drawstring(LCD_Buffer, 0, 0, "Manuel");
 8001c42:	4b1f      	ldr	r3, [pc, #124]	; (8001cc0 <main+0x138>)
 8001c44:	481b      	ldr	r0, [pc, #108]	; (8001cb4 <main+0x12c>)
 8001c46:	2200      	movs	r2, #0
 8001c48:	2100      	movs	r1, #0
 8001c4a:	f7ff f935 	bl	8000eb8 <st7565_drawstring>
    st7565_drawstring(LCD_Buffer, 0, 1, "Schmid");
 8001c4e:	4b1d      	ldr	r3, [pc, #116]	; (8001cc4 <main+0x13c>)
 8001c50:	4818      	ldr	r0, [pc, #96]	; (8001cb4 <main+0x12c>)
 8001c52:	2201      	movs	r2, #1
 8001c54:	2100      	movs	r1, #0
 8001c56:	f7ff f92f 	bl	8000eb8 <st7565_drawstring>
    st7565_drawstring(LCD_Buffer, 85, 0, "Lukas");
 8001c5a:	4b1b      	ldr	r3, [pc, #108]	; (8001cc8 <main+0x140>)
 8001c5c:	4815      	ldr	r0, [pc, #84]	; (8001cb4 <main+0x12c>)
 8001c5e:	2200      	movs	r2, #0
 8001c60:	2155      	movs	r1, #85	; 0x55
 8001c62:	f7ff f929 	bl	8000eb8 <st7565_drawstring>
    st7565_drawstring(LCD_Buffer, 85, 1, "Eugster");
 8001c66:	4b19      	ldr	r3, [pc, #100]	; (8001ccc <main+0x144>)
 8001c68:	4812      	ldr	r0, [pc, #72]	; (8001cb4 <main+0x12c>)
 8001c6a:	2201      	movs	r2, #1
 8001c6c:	2155      	movs	r1, #85	; 0x55
 8001c6e:	f7ff f923 	bl	8000eb8 <st7565_drawstring>
	st7565_write_buffer(LCD_Buffer);
 8001c72:	4b10      	ldr	r3, [pc, #64]	; (8001cb4 <main+0x12c>)
 8001c74:	0018      	movs	r0, r3
 8001c76:	f7fe fed3 	bl	8000a20 <st7565_write_buffer>
    
    HAL_Delay(3000);
 8001c7a:	4b15      	ldr	r3, [pc, #84]	; (8001cd0 <main+0x148>)
 8001c7c:	0018      	movs	r0, r3
 8001c7e:	f002 fcb5 	bl	80045ec <HAL_Delay>
    st7565_clear_buffer(LCD_Buffer);
 8001c82:	4b0c      	ldr	r3, [pc, #48]	; (8001cb4 <main+0x12c>)
 8001c84:	0018      	movs	r0, r3
 8001c86:	f7ff f833 	bl	8000cf0 <st7565_clear_buffer>
//=======================================================================
  
    event_t event;
    fsm_init();
 8001c8a:	f000 f91b 	bl	8001ec4 <fsm_init>
    
    while(1) {
        event = eh_get_event();
 8001c8e:	1dfc      	adds	r4, r7, #7
 8001c90:	f7fe fc92 	bl	80005b8 <eh_get_event>
 8001c94:	0003      	movs	r3, r0
 8001c96:	7023      	strb	r3, [r4, #0]
        if(event != EV_NO_EVENT) {
 8001c98:	1dfb      	adds	r3, r7, #7
 8001c9a:	781b      	ldrb	r3, [r3, #0]
 8001c9c:	2b00      	cmp	r3, #0
 8001c9e:	d0f6      	beq.n	8001c8e <main+0x106>
            fsm_handle_event(event);
 8001ca0:	1dfb      	adds	r3, r7, #7
 8001ca2:	781b      	ldrb	r3, [r3, #0]
 8001ca4:	0018      	movs	r0, r3
 8001ca6:	f000 f921 	bl	8001eec <fsm_handle_event>
        event = eh_get_event();
 8001caa:	e7f0      	b.n	8001c8e <main+0x106>
 8001cac:	48000400 	.word	0x48000400
 8001cb0:	200005bc 	.word	0x200005bc
 8001cb4:	200000d8 	.word	0x200000d8
 8001cb8:	0800c2d8 	.word	0x0800c2d8
 8001cbc:	08008688 	.word	0x08008688
 8001cc0:	08008698 	.word	0x08008698
 8001cc4:	080086a0 	.word	0x080086a0
 8001cc8:	080086a8 	.word	0x080086a8
 8001ccc:	080086b0 	.word	0x080086b0
 8001cd0:	00000bb8 	.word	0x00000bb8

08001cd4 <SystemClock_Config>:
/**
  * @brief System Clock Configuration
  * @retval None
  */
void SystemClock_Config(void)
{
 8001cd4:	b590      	push	{r4, r7, lr}
 8001cd6:	b095      	sub	sp, #84	; 0x54
 8001cd8:	af00      	add	r7, sp, #0
  RCC_OscInitTypeDef RCC_OscInitStruct = {0};
 8001cda:	2420      	movs	r4, #32
 8001cdc:	193b      	adds	r3, r7, r4
 8001cde:	0018      	movs	r0, r3
 8001ce0:	2330      	movs	r3, #48	; 0x30
 8001ce2:	001a      	movs	r2, r3
 8001ce4:	2100      	movs	r1, #0
 8001ce6:	f006 fbab 	bl	8008440 <memset>
  RCC_ClkInitTypeDef RCC_ClkInitStruct = {0};
 8001cea:	2310      	movs	r3, #16
 8001cec:	18fb      	adds	r3, r7, r3
 8001cee:	0018      	movs	r0, r3
 8001cf0:	2310      	movs	r3, #16
 8001cf2:	001a      	movs	r2, r3
 8001cf4:	2100      	movs	r1, #0
 8001cf6:	f006 fba3 	bl	8008440 <memset>
  RCC_PeriphCLKInitTypeDef PeriphClkInit = {0};
 8001cfa:	003b      	movs	r3, r7
 8001cfc:	0018      	movs	r0, r3
 8001cfe:	2310      	movs	r3, #16
 8001d00:	001a      	movs	r2, r3
 8001d02:	2100      	movs	r1, #0
 8001d04:	f006 fb9c 	bl	8008440 <memset>

  /** Configure LSE Drive Capability 
  */
  HAL_PWR_EnableBkUpAccess();
 8001d08:	f004 f8fc 	bl	8005f04 <HAL_PWR_EnableBkUpAccess>
  __HAL_RCC_LSEDRIVE_CONFIG(RCC_LSEDRIVE_HIGH);
 8001d0c:	4b2b      	ldr	r3, [pc, #172]	; (8001dbc <SystemClock_Config+0xe8>)
 8001d0e:	6a1a      	ldr	r2, [r3, #32]
 8001d10:	4b2a      	ldr	r3, [pc, #168]	; (8001dbc <SystemClock_Config+0xe8>)
 8001d12:	2118      	movs	r1, #24
 8001d14:	430a      	orrs	r2, r1
 8001d16:	621a      	str	r2, [r3, #32]
  /** Initializes the CPU, AHB and APB busses clocks 
  */
  RCC_OscInitStruct.OscillatorType = RCC_OSCILLATORTYPE_HSI14|RCC_OSCILLATORTYPE_HSE
 8001d18:	0021      	movs	r1, r4
 8001d1a:	187b      	adds	r3, r7, r1
 8001d1c:	2215      	movs	r2, #21
 8001d1e:	601a      	str	r2, [r3, #0]
                              |RCC_OSCILLATORTYPE_LSE;
  RCC_OscInitStruct.HSEState = RCC_HSE_ON;
 8001d20:	187b      	adds	r3, r7, r1
 8001d22:	2201      	movs	r2, #1
 8001d24:	605a      	str	r2, [r3, #4]
  RCC_OscInitStruct.LSEState = RCC_LSE_ON;
 8001d26:	187b      	adds	r3, r7, r1
 8001d28:	2201      	movs	r2, #1
 8001d2a:	609a      	str	r2, [r3, #8]
  RCC_OscInitStruct.HSI14State = RCC_HSI14_ON;
 8001d2c:	187b      	adds	r3, r7, r1
 8001d2e:	2201      	movs	r2, #1
 8001d30:	615a      	str	r2, [r3, #20]
  RCC_OscInitStruct.HSI14CalibrationValue = 16;
 8001d32:	187b      	adds	r3, r7, r1
 8001d34:	2210      	movs	r2, #16
 8001d36:	619a      	str	r2, [r3, #24]
  RCC_OscInitStruct.PLL.PLLState = RCC_PLL_ON;
 8001d38:	187b      	adds	r3, r7, r1
 8001d3a:	2202      	movs	r2, #2
 8001d3c:	621a      	str	r2, [r3, #32]
  RCC_OscInitStruct.PLL.PLLSource = RCC_PLLSOURCE_HSE;
 8001d3e:	187b      	adds	r3, r7, r1
 8001d40:	2280      	movs	r2, #128	; 0x80
 8001d42:	0252      	lsls	r2, r2, #9
 8001d44:	625a      	str	r2, [r3, #36]	; 0x24
  RCC_OscInitStruct.PLL.PLLMUL = RCC_PLL_MUL6;
 8001d46:	187b      	adds	r3, r7, r1
 8001d48:	2280      	movs	r2, #128	; 0x80
 8001d4a:	0352      	lsls	r2, r2, #13
 8001d4c:	629a      	str	r2, [r3, #40]	; 0x28
  RCC_OscInitStruct.PLL.PREDIV = RCC_PREDIV_DIV1;
 8001d4e:	187b      	adds	r3, r7, r1
 8001d50:	2200      	movs	r2, #0
 8001d52:	62da      	str	r2, [r3, #44]	; 0x2c
  if (HAL_RCC_OscConfig(&RCC_OscInitStruct) != HAL_OK)
 8001d54:	187b      	adds	r3, r7, r1
 8001d56:	0018      	movs	r0, r3
 8001d58:	f004 f8e2 	bl	8005f20 <HAL_RCC_OscConfig>
 8001d5c:	1e03      	subs	r3, r0, #0
 8001d5e:	d001      	beq.n	8001d64 <SystemClock_Config+0x90>
  {
    Error_Handler();
 8001d60:	f000 f830 	bl	8001dc4 <Error_Handler>
  }
  /** Initializes the CPU, AHB and APB busses clocks 
  */
  RCC_ClkInitStruct.ClockType = RCC_CLOCKTYPE_HCLK|RCC_CLOCKTYPE_SYSCLK
 8001d64:	2110      	movs	r1, #16
 8001d66:	187b      	adds	r3, r7, r1
 8001d68:	2207      	movs	r2, #7
 8001d6a:	601a      	str	r2, [r3, #0]
                              |RCC_CLOCKTYPE_PCLK1;
  RCC_ClkInitStruct.SYSCLKSource = RCC_SYSCLKSOURCE_PLLCLK;
 8001d6c:	187b      	adds	r3, r7, r1
 8001d6e:	2202      	movs	r2, #2
 8001d70:	605a      	str	r2, [r3, #4]
  RCC_ClkInitStruct.AHBCLKDivider = RCC_SYSCLK_DIV1;
 8001d72:	187b      	adds	r3, r7, r1
 8001d74:	2200      	movs	r2, #0
 8001d76:	609a      	str	r2, [r3, #8]
  RCC_ClkInitStruct.APB1CLKDivider = RCC_HCLK_DIV1;
 8001d78:	187b      	adds	r3, r7, r1
 8001d7a:	2200      	movs	r2, #0
 8001d7c:	60da      	str	r2, [r3, #12]

  if (HAL_RCC_ClockConfig(&RCC_ClkInitStruct, FLASH_LATENCY_1) != HAL_OK)
 8001d7e:	187b      	adds	r3, r7, r1
 8001d80:	2101      	movs	r1, #1
 8001d82:	0018      	movs	r0, r3
 8001d84:	f004 fbe8 	bl	8006558 <HAL_RCC_ClockConfig>
 8001d88:	1e03      	subs	r3, r0, #0
 8001d8a:	d001      	beq.n	8001d90 <SystemClock_Config+0xbc>
  {
    Error_Handler();
 8001d8c:	f000 f81a 	bl	8001dc4 <Error_Handler>
  }
  PeriphClkInit.PeriphClockSelection = RCC_PERIPHCLK_USART1|RCC_PERIPHCLK_RTC;
 8001d90:	003b      	movs	r3, r7
 8001d92:	4a0b      	ldr	r2, [pc, #44]	; (8001dc0 <SystemClock_Config+0xec>)
 8001d94:	601a      	str	r2, [r3, #0]
  PeriphClkInit.Usart1ClockSelection = RCC_USART1CLKSOURCE_PCLK1;
 8001d96:	003b      	movs	r3, r7
 8001d98:	2200      	movs	r2, #0
 8001d9a:	609a      	str	r2, [r3, #8]
  PeriphClkInit.RTCClockSelection = RCC_RTCCLKSOURCE_LSE;
 8001d9c:	003b      	movs	r3, r7
 8001d9e:	2280      	movs	r2, #128	; 0x80
 8001da0:	0052      	lsls	r2, r2, #1
 8001da2:	605a      	str	r2, [r3, #4]
  if (HAL_RCCEx_PeriphCLKConfig(&PeriphClkInit) != HAL_OK)
 8001da4:	003b      	movs	r3, r7
 8001da6:	0018      	movs	r0, r3
 8001da8:	f004 fd28 	bl	80067fc <HAL_RCCEx_PeriphCLKConfig>
 8001dac:	1e03      	subs	r3, r0, #0
 8001dae:	d001      	beq.n	8001db4 <SystemClock_Config+0xe0>
  {
    Error_Handler();
 8001db0:	f000 f808 	bl	8001dc4 <Error_Handler>
  }
}
 8001db4:	46c0      	nop			; (mov r8, r8)
 8001db6:	46bd      	mov	sp, r7
 8001db8:	b015      	add	sp, #84	; 0x54
 8001dba:	bd90      	pop	{r4, r7, pc}
 8001dbc:	40021000 	.word	0x40021000
 8001dc0:	00010001 	.word	0x00010001

08001dc4 <Error_Handler>:
/**
  * @brief  This function is executed in case of error occurrence.
  * @retval None
  */
void Error_Handler(void)
{
 8001dc4:	b580      	push	{r7, lr}
 8001dc6:	af00      	add	r7, sp, #0
  /* USER CODE BEGIN Error_Handler_Debug */
  /* User can add his own implementation to report the HAL error return state */

  /* USER CODE END Error_Handler_Debug */
}
 8001dc8:	46c0      	nop			; (mov r8, r8)
 8001dca:	46bd      	mov	sp, r7
 8001dcc:	bd80      	pop	{r7, pc}
	...

08001dd0 <MX_RTC_Init>:

RTC_HandleTypeDef hrtc;

/* RTC init function */
void MX_RTC_Init(void)
{
 8001dd0:	b580      	push	{r7, lr}
 8001dd2:	b086      	sub	sp, #24
 8001dd4:	af00      	add	r7, sp, #0
  RTC_TimeTypeDef sTime = {0};
 8001dd6:	1d3b      	adds	r3, r7, #4
 8001dd8:	0018      	movs	r0, r3
 8001dda:	2314      	movs	r3, #20
 8001ddc:	001a      	movs	r2, r3
 8001dde:	2100      	movs	r1, #0
 8001de0:	f006 fb2e 	bl	8008440 <memset>
  RTC_DateTypeDef sDate = {0};
 8001de4:	003b      	movs	r3, r7
 8001de6:	2200      	movs	r2, #0
 8001de8:	601a      	str	r2, [r3, #0]

  /** Initialize RTC Only 
  */
  hrtc.Instance = RTC;
 8001dea:	4b28      	ldr	r3, [pc, #160]	; (8001e8c <MX_RTC_Init+0xbc>)
 8001dec:	4a28      	ldr	r2, [pc, #160]	; (8001e90 <MX_RTC_Init+0xc0>)
 8001dee:	601a      	str	r2, [r3, #0]
  hrtc.Init.HourFormat = RTC_HOURFORMAT_24;
 8001df0:	4b26      	ldr	r3, [pc, #152]	; (8001e8c <MX_RTC_Init+0xbc>)
 8001df2:	2200      	movs	r2, #0
 8001df4:	605a      	str	r2, [r3, #4]
  hrtc.Init.AsynchPrediv = 127;
 8001df6:	4b25      	ldr	r3, [pc, #148]	; (8001e8c <MX_RTC_Init+0xbc>)
 8001df8:	227f      	movs	r2, #127	; 0x7f
 8001dfa:	609a      	str	r2, [r3, #8]
  hrtc.Init.SynchPrediv = 255;
 8001dfc:	4b23      	ldr	r3, [pc, #140]	; (8001e8c <MX_RTC_Init+0xbc>)
 8001dfe:	22ff      	movs	r2, #255	; 0xff
 8001e00:	60da      	str	r2, [r3, #12]
  hrtc.Init.OutPut = RTC_OUTPUT_DISABLE;
 8001e02:	4b22      	ldr	r3, [pc, #136]	; (8001e8c <MX_RTC_Init+0xbc>)
 8001e04:	2200      	movs	r2, #0
 8001e06:	611a      	str	r2, [r3, #16]
  hrtc.Init.OutPutPolarity = RTC_OUTPUT_POLARITY_HIGH;
 8001e08:	4b20      	ldr	r3, [pc, #128]	; (8001e8c <MX_RTC_Init+0xbc>)
 8001e0a:	2200      	movs	r2, #0
 8001e0c:	615a      	str	r2, [r3, #20]
  hrtc.Init.OutPutType = RTC_OUTPUT_TYPE_OPENDRAIN;
 8001e0e:	4b1f      	ldr	r3, [pc, #124]	; (8001e8c <MX_RTC_Init+0xbc>)
 8001e10:	2200      	movs	r2, #0
 8001e12:	619a      	str	r2, [r3, #24]
  if (HAL_RTC_Init(&hrtc) != HAL_OK)
 8001e14:	4b1d      	ldr	r3, [pc, #116]	; (8001e8c <MX_RTC_Init+0xbc>)
 8001e16:	0018      	movs	r0, r3
 8001e18:	f004 fdbe 	bl	8006998 <HAL_RTC_Init>
 8001e1c:	1e03      	subs	r3, r0, #0
 8001e1e:	d001      	beq.n	8001e24 <MX_RTC_Init+0x54>
  {
    Error_Handler();
 8001e20:	f7ff ffd0 	bl	8001dc4 <Error_Handler>
    
  /* USER CODE END Check_RTC_BKUP */

  /** Initialize RTC and set the Time and Date 
  */
  sTime.Hours = 0x0;
 8001e24:	1d3b      	adds	r3, r7, #4
 8001e26:	2200      	movs	r2, #0
 8001e28:	701a      	strb	r2, [r3, #0]
  sTime.Minutes = 0x0;
 8001e2a:	1d3b      	adds	r3, r7, #4
 8001e2c:	2200      	movs	r2, #0
 8001e2e:	705a      	strb	r2, [r3, #1]
  sTime.Seconds = 0x0;
 8001e30:	1d3b      	adds	r3, r7, #4
 8001e32:	2200      	movs	r2, #0
 8001e34:	709a      	strb	r2, [r3, #2]
  sTime.DayLightSaving = RTC_DAYLIGHTSAVING_NONE;
 8001e36:	1d3b      	adds	r3, r7, #4
 8001e38:	2200      	movs	r2, #0
 8001e3a:	60da      	str	r2, [r3, #12]
  sTime.StoreOperation = RTC_STOREOPERATION_RESET;
 8001e3c:	1d3b      	adds	r3, r7, #4
 8001e3e:	2200      	movs	r2, #0
 8001e40:	611a      	str	r2, [r3, #16]
  if (HAL_RTC_SetTime(&hrtc, &sTime, RTC_FORMAT_BCD) != HAL_OK)
 8001e42:	1d39      	adds	r1, r7, #4
 8001e44:	4b11      	ldr	r3, [pc, #68]	; (8001e8c <MX_RTC_Init+0xbc>)
 8001e46:	2201      	movs	r2, #1
 8001e48:	0018      	movs	r0, r3
 8001e4a:	f004 fe39 	bl	8006ac0 <HAL_RTC_SetTime>
 8001e4e:	1e03      	subs	r3, r0, #0
 8001e50:	d001      	beq.n	8001e56 <MX_RTC_Init+0x86>
  {
    Error_Handler();
 8001e52:	f7ff ffb7 	bl	8001dc4 <Error_Handler>
  }
  sDate.WeekDay = RTC_WEEKDAY_MONDAY;
 8001e56:	003b      	movs	r3, r7
 8001e58:	2201      	movs	r2, #1
 8001e5a:	701a      	strb	r2, [r3, #0]
  sDate.Month = RTC_MONTH_JANUARY;
 8001e5c:	003b      	movs	r3, r7
 8001e5e:	2201      	movs	r2, #1
 8001e60:	705a      	strb	r2, [r3, #1]
  sDate.Date = 0x1;
 8001e62:	003b      	movs	r3, r7
 8001e64:	2201      	movs	r2, #1
 8001e66:	709a      	strb	r2, [r3, #2]
  sDate.Year = 0x0;
 8001e68:	003b      	movs	r3, r7
 8001e6a:	2200      	movs	r2, #0
 8001e6c:	70da      	strb	r2, [r3, #3]

  if (HAL_RTC_SetDate(&hrtc, &sDate, RTC_FORMAT_BCD) != HAL_OK)
 8001e6e:	0039      	movs	r1, r7
 8001e70:	4b06      	ldr	r3, [pc, #24]	; (8001e8c <MX_RTC_Init+0xbc>)
 8001e72:	2201      	movs	r2, #1
 8001e74:	0018      	movs	r0, r3
 8001e76:	f004 fedf 	bl	8006c38 <HAL_RTC_SetDate>
 8001e7a:	1e03      	subs	r3, r0, #0
 8001e7c:	d001      	beq.n	8001e82 <MX_RTC_Init+0xb2>
  {
    Error_Handler();
 8001e7e:	f7ff ffa1 	bl	8001dc4 <Error_Handler>
  }

}
 8001e82:	46c0      	nop			; (mov r8, r8)
 8001e84:	46bd      	mov	sp, r7
 8001e86:	b006      	add	sp, #24
 8001e88:	bd80      	pop	{r7, pc}
 8001e8a:	46c0      	nop			; (mov r8, r8)
 8001e8c:	200004dc 	.word	0x200004dc
 8001e90:	40002800 	.word	0x40002800

08001e94 <HAL_RTC_MspInit>:

void HAL_RTC_MspInit(RTC_HandleTypeDef* rtcHandle)
{
 8001e94:	b580      	push	{r7, lr}
 8001e96:	b082      	sub	sp, #8
 8001e98:	af00      	add	r7, sp, #0
 8001e9a:	6078      	str	r0, [r7, #4]

  if(rtcHandle->Instance==RTC)
 8001e9c:	687b      	ldr	r3, [r7, #4]
 8001e9e:	681b      	ldr	r3, [r3, #0]
 8001ea0:	4a06      	ldr	r2, [pc, #24]	; (8001ebc <HAL_RTC_MspInit+0x28>)
 8001ea2:	4293      	cmp	r3, r2
 8001ea4:	d106      	bne.n	8001eb4 <HAL_RTC_MspInit+0x20>
  {
  /* USER CODE BEGIN RTC_MspInit 0 */

  /* USER CODE END RTC_MspInit 0 */
    /* RTC clock enable */
    __HAL_RCC_RTC_ENABLE();
 8001ea6:	4b06      	ldr	r3, [pc, #24]	; (8001ec0 <HAL_RTC_MspInit+0x2c>)
 8001ea8:	6a1a      	ldr	r2, [r3, #32]
 8001eaa:	4b05      	ldr	r3, [pc, #20]	; (8001ec0 <HAL_RTC_MspInit+0x2c>)
 8001eac:	2180      	movs	r1, #128	; 0x80
 8001eae:	0209      	lsls	r1, r1, #8
 8001eb0:	430a      	orrs	r2, r1
 8001eb2:	621a      	str	r2, [r3, #32]
  /* USER CODE BEGIN RTC_MspInit 1 */

  /* USER CODE END RTC_MspInit 1 */
  }
}
 8001eb4:	46c0      	nop			; (mov r8, r8)
 8001eb6:	46bd      	mov	sp, r7
 8001eb8:	b002      	add	sp, #8
 8001eba:	bd80      	pop	{r7, pc}
 8001ebc:	40002800 	.word	0x40002800
 8001ec0:	40021000 	.word	0x40021000

08001ec4 <fsm_init>:
// current FSM state 
static state_t state = HOME_SCREEN;


void fsm_init(void)
{
 8001ec4:	b580      	push	{r7, lr}
 8001ec6:	af00      	add	r7, sp, #0
    state = HOME_SCREEN;
 8001ec8:	4b07      	ldr	r3, [pc, #28]	; (8001ee8 <fsm_init+0x24>)
 8001eca:	2200      	movs	r2, #0
 8001ecc:	701a      	strb	r2, [r3, #0]
    ah_draw_time();
 8001ece:	f7fe f9d1 	bl	8000274 <ah_draw_time>
    ah_draw_date();
 8001ed2:	f7fe fa09 	bl	80002e8 <ah_draw_date>
    ah_draw_sensor();
 8001ed6:	f7fe fa3d 	bl	8000354 <ah_draw_sensor>
    // later to be moved to seperate states
    ah_draw_snooze();
 8001eda:	f7fe fa71 	bl	80003c0 <ah_draw_snooze>
    ah_draw_alarm();
 8001ede:	f7fe fa7f 	bl	80003e0 <ah_draw_alarm>

}
 8001ee2:	46c0      	nop			; (mov r8, r8)
 8001ee4:	46bd      	mov	sp, r7
 8001ee6:	bd80      	pop	{r7, pc}
 8001ee8:	20000040 	.word	0x20000040

08001eec <fsm_handle_event>:

// State Machine

void fsm_handle_event(event_t event)
{
 8001eec:	b5b0      	push	{r4, r5, r7, lr}
 8001eee:	b084      	sub	sp, #16
 8001ef0:	af02      	add	r7, sp, #8
 8001ef2:	0002      	movs	r2, r0
 8001ef4:	1dfb      	adds	r3, r7, #7
 8001ef6:	701a      	strb	r2, [r3, #0]
    switch(state) {
 8001ef8:	4bd7      	ldr	r3, [pc, #860]	; (8002258 <fsm_handle_event+0x36c>)
 8001efa:	781b      	ldrb	r3, [r3, #0]
 8001efc:	2b26      	cmp	r3, #38	; 0x26
 8001efe:	d901      	bls.n	8001f04 <fsm_handle_event+0x18>
 8001f00:	f001 ff65 	bl	8003dce <fsm_handle_event+0x1ee2>
 8001f04:	009a      	lsls	r2, r3, #2
 8001f06:	4bd5      	ldr	r3, [pc, #852]	; (800225c <fsm_handle_event+0x370>)
 8001f08:	18d3      	adds	r3, r2, r3
 8001f0a:	681b      	ldr	r3, [r3, #0]
 8001f0c:	469f      	mov	pc, r3
        case HOME_SCREEN:  
            switch (event) {
 8001f0e:	1dfb      	adds	r3, r7, #7
 8001f10:	781b      	ldrb	r3, [r3, #0]
 8001f12:	2b05      	cmp	r3, #5
 8001f14:	d111      	bne.n	8001f3a <fsm_handle_event+0x4e>
                case EV_BUTTON_SL:
                	st7565_clear_buffer(LCD_Buffer);
 8001f16:	4bd2      	ldr	r3, [pc, #840]	; (8002260 <fsm_handle_event+0x374>)
 8001f18:	0018      	movs	r0, r3
 8001f1a:	f7fe fee9 	bl	8000cf0 <st7565_clear_buffer>
                    ah_menu(main_m);
 8001f1e:	2000      	movs	r0, #0
 8001f20:	f7fe fa82 	bl	8000428 <ah_menu>
                    ah_draw_cursor(1);
 8001f24:	2001      	movs	r0, #1
 8001f26:	f7fe fa6b 	bl	8000400 <ah_draw_cursor>
                    st7565_write_buffer(LCD_Buffer);
 8001f2a:	4bcd      	ldr	r3, [pc, #820]	; (8002260 <fsm_handle_event+0x374>)
 8001f2c:	0018      	movs	r0, r3
 8001f2e:	f7fe fd77 	bl	8000a20 <st7565_write_buffer>
                    state = MENU_MAIN_CLOCK;
 8001f32:	4bc9      	ldr	r3, [pc, #804]	; (8002258 <fsm_handle_event+0x36c>)
 8001f34:	2201      	movs	r2, #1
 8001f36:	701a      	strb	r2, [r3, #0]
                    break;
 8001f38:	e003      	b.n	8001f42 <fsm_handle_event+0x56>
                
                default:
                    state = HOME_SCREEN;
 8001f3a:	4bc7      	ldr	r3, [pc, #796]	; (8002258 <fsm_handle_event+0x36c>)
 8001f3c:	2200      	movs	r2, #0
 8001f3e:	701a      	strb	r2, [r3, #0]
                    break;
 8001f40:	46c0      	nop			; (mov r8, r8)
            }
        break;
 8001f42:	f001 ff44 	bl	8003dce <fsm_handle_event+0x1ee2>

        case MENU_MAIN_CLOCK:
            switch (event) {
 8001f46:	1dfb      	adds	r3, r7, #7
 8001f48:	781b      	ldrb	r3, [r3, #0]
 8001f4a:	2b02      	cmp	r3, #2
 8001f4c:	d028      	beq.n	8001fa0 <fsm_handle_event+0xb4>
 8001f4e:	2b05      	cmp	r3, #5
 8001f50:	d002      	beq.n	8001f58 <fsm_handle_event+0x6c>
 8001f52:	2b01      	cmp	r3, #1
 8001f54:	d012      	beq.n	8001f7c <fsm_handle_event+0x90>
 8001f56:	e035      	b.n	8001fc4 <fsm_handle_event+0xd8>
                case EV_BUTTON_SL:
                	st7565_clear_buffer(LCD_Buffer);
 8001f58:	4bc1      	ldr	r3, [pc, #772]	; (8002260 <fsm_handle_event+0x374>)
 8001f5a:	0018      	movs	r0, r3
 8001f5c:	f7fe fec8 	bl	8000cf0 <st7565_clear_buffer>
                    ah_menu(clock);
 8001f60:	2001      	movs	r0, #1
 8001f62:	f7fe fa61 	bl	8000428 <ah_menu>
                    ah_draw_cursor(1);
 8001f66:	2001      	movs	r0, #1
 8001f68:	f7fe fa4a 	bl	8000400 <ah_draw_cursor>
                    st7565_write_buffer(LCD_Buffer);
 8001f6c:	4bbc      	ldr	r3, [pc, #752]	; (8002260 <fsm_handle_event+0x374>)
 8001f6e:	0018      	movs	r0, r3
 8001f70:	f7fe fd56 	bl	8000a20 <st7565_write_buffer>
                    state = MENU_CLOCK_TIME;
 8001f74:	4bb8      	ldr	r3, [pc, #736]	; (8002258 <fsm_handle_event+0x36c>)
 8001f76:	2206      	movs	r2, #6
 8001f78:	701a      	strb	r2, [r3, #0]
                    break;
 8001f7a:	e027      	b.n	8001fcc <fsm_handle_event+0xe0>
               
                case EV_BUTTON_UP:
                	st7565_clear_buffer(LCD_Buffer);
 8001f7c:	4bb8      	ldr	r3, [pc, #736]	; (8002260 <fsm_handle_event+0x374>)
 8001f7e:	0018      	movs	r0, r3
 8001f80:	f7fe feb6 	bl	8000cf0 <st7565_clear_buffer>
                    ah_menu(main_m);
 8001f84:	2000      	movs	r0, #0
 8001f86:	f7fe fa4f 	bl	8000428 <ah_menu>
                    ah_draw_cursor(5);
 8001f8a:	2005      	movs	r0, #5
 8001f8c:	f7fe fa38 	bl	8000400 <ah_draw_cursor>
                    st7565_write_buffer(LCD_Buffer);
 8001f90:	4bb3      	ldr	r3, [pc, #716]	; (8002260 <fsm_handle_event+0x374>)
 8001f92:	0018      	movs	r0, r3
 8001f94:	f7fe fd44 	bl	8000a20 <st7565_write_buffer>
                    state = MENU_MAIN_RETURN;
 8001f98:	4baf      	ldr	r3, [pc, #700]	; (8002258 <fsm_handle_event+0x36c>)
 8001f9a:	2205      	movs	r2, #5
 8001f9c:	701a      	strb	r2, [r3, #0]
                    break;
 8001f9e:	e015      	b.n	8001fcc <fsm_handle_event+0xe0>
                
                case EV_BUTTON_DN:
                	st7565_clear_buffer(LCD_Buffer);
 8001fa0:	4baf      	ldr	r3, [pc, #700]	; (8002260 <fsm_handle_event+0x374>)
 8001fa2:	0018      	movs	r0, r3
 8001fa4:	f7fe fea4 	bl	8000cf0 <st7565_clear_buffer>
                    ah_menu(main_m);
 8001fa8:	2000      	movs	r0, #0
 8001faa:	f7fe fa3d 	bl	8000428 <ah_menu>
                    ah_draw_cursor(2);
 8001fae:	2002      	movs	r0, #2
 8001fb0:	f7fe fa26 	bl	8000400 <ah_draw_cursor>
                    st7565_write_buffer(LCD_Buffer);
 8001fb4:	4baa      	ldr	r3, [pc, #680]	; (8002260 <fsm_handle_event+0x374>)
 8001fb6:	0018      	movs	r0, r3
 8001fb8:	f7fe fd32 	bl	8000a20 <st7565_write_buffer>
                    state = MENU_MAIN_MOODLIGHT;
 8001fbc:	4ba6      	ldr	r3, [pc, #664]	; (8002258 <fsm_handle_event+0x36c>)
 8001fbe:	2202      	movs	r2, #2
 8001fc0:	701a      	strb	r2, [r3, #0]
                    break;                
 8001fc2:	e003      	b.n	8001fcc <fsm_handle_event+0xe0>
                          
                default:
                    state = MENU_MAIN_CLOCK;   
 8001fc4:	4ba4      	ldr	r3, [pc, #656]	; (8002258 <fsm_handle_event+0x36c>)
 8001fc6:	2201      	movs	r2, #1
 8001fc8:	701a      	strb	r2, [r3, #0]
                    break;
 8001fca:	46c0      	nop			; (mov r8, r8)
            }
            break;
 8001fcc:	f001 feff 	bl	8003dce <fsm_handle_event+0x1ee2>
            
        case MENU_MAIN_MOODLIGHT:
            switch (event) {
 8001fd0:	1dfb      	adds	r3, r7, #7
 8001fd2:	781b      	ldrb	r3, [r3, #0]
 8001fd4:	2b02      	cmp	r3, #2
 8001fd6:	d028      	beq.n	800202a <fsm_handle_event+0x13e>
 8001fd8:	2b05      	cmp	r3, #5
 8001fda:	d002      	beq.n	8001fe2 <fsm_handle_event+0xf6>
 8001fdc:	2b01      	cmp	r3, #1
 8001fde:	d012      	beq.n	8002006 <fsm_handle_event+0x11a>
 8001fe0:	e035      	b.n	800204e <fsm_handle_event+0x162>
                case EV_BUTTON_SL:
                	st7565_clear_buffer(LCD_Buffer);
 8001fe2:	4b9f      	ldr	r3, [pc, #636]	; (8002260 <fsm_handle_event+0x374>)
 8001fe4:	0018      	movs	r0, r3
 8001fe6:	f7fe fe83 	bl	8000cf0 <st7565_clear_buffer>
                    ah_menu(moodlight);
 8001fea:	2002      	movs	r0, #2
 8001fec:	f7fe fa1c 	bl	8000428 <ah_menu>
                    ah_draw_cursor(1);
 8001ff0:	2001      	movs	r0, #1
 8001ff2:	f7fe fa05 	bl	8000400 <ah_draw_cursor>
                    st7565_write_buffer(LCD_Buffer);
 8001ff6:	4b9a      	ldr	r3, [pc, #616]	; (8002260 <fsm_handle_event+0x374>)
 8001ff8:	0018      	movs	r0, r3
 8001ffa:	f7fe fd11 	bl	8000a20 <st7565_write_buffer>
                    state = MENU_MOODL_PRESETS;
 8001ffe:	4b96      	ldr	r3, [pc, #600]	; (8002258 <fsm_handle_event+0x36c>)
 8002000:	220a      	movs	r2, #10
 8002002:	701a      	strb	r2, [r3, #0]
                    break;
 8002004:	e027      	b.n	8002056 <fsm_handle_event+0x16a>
                
                case EV_BUTTON_UP:
                	st7565_clear_buffer(LCD_Buffer);
 8002006:	4b96      	ldr	r3, [pc, #600]	; (8002260 <fsm_handle_event+0x374>)
 8002008:	0018      	movs	r0, r3
 800200a:	f7fe fe71 	bl	8000cf0 <st7565_clear_buffer>
                    ah_menu(main_m);
 800200e:	2000      	movs	r0, #0
 8002010:	f7fe fa0a 	bl	8000428 <ah_menu>
                    ah_draw_cursor(1);
 8002014:	2001      	movs	r0, #1
 8002016:	f7fe f9f3 	bl	8000400 <ah_draw_cursor>
                    st7565_write_buffer(LCD_Buffer);
 800201a:	4b91      	ldr	r3, [pc, #580]	; (8002260 <fsm_handle_event+0x374>)
 800201c:	0018      	movs	r0, r3
 800201e:	f7fe fcff 	bl	8000a20 <st7565_write_buffer>
                    state = MENU_MAIN_CLOCK;
 8002022:	4b8d      	ldr	r3, [pc, #564]	; (8002258 <fsm_handle_event+0x36c>)
 8002024:	2201      	movs	r2, #1
 8002026:	701a      	strb	r2, [r3, #0]
                    break;
 8002028:	e015      	b.n	8002056 <fsm_handle_event+0x16a>
                
                case EV_BUTTON_DN:
                	st7565_clear_buffer(LCD_Buffer);
 800202a:	4b8d      	ldr	r3, [pc, #564]	; (8002260 <fsm_handle_event+0x374>)
 800202c:	0018      	movs	r0, r3
 800202e:	f7fe fe5f 	bl	8000cf0 <st7565_clear_buffer>
                    ah_menu(main_m);
 8002032:	2000      	movs	r0, #0
 8002034:	f7fe f9f8 	bl	8000428 <ah_menu>
                    ah_draw_cursor(3);
 8002038:	2003      	movs	r0, #3
 800203a:	f7fe f9e1 	bl	8000400 <ah_draw_cursor>
                    st7565_write_buffer(LCD_Buffer);
 800203e:	4b88      	ldr	r3, [pc, #544]	; (8002260 <fsm_handle_event+0x374>)
 8002040:	0018      	movs	r0, r3
 8002042:	f7fe fced 	bl	8000a20 <st7565_write_buffer>
                    state = MENU_MAIN_BLUETOOTH;
 8002046:	4b84      	ldr	r3, [pc, #528]	; (8002258 <fsm_handle_event+0x36c>)
 8002048:	2203      	movs	r2, #3
 800204a:	701a      	strb	r2, [r3, #0]
                    break;                   
 800204c:	e003      	b.n	8002056 <fsm_handle_event+0x16a>
                
                default:
                    state = MENU_MAIN_MOODLIGHT;
 800204e:	4b82      	ldr	r3, [pc, #520]	; (8002258 <fsm_handle_event+0x36c>)
 8002050:	2202      	movs	r2, #2
 8002052:	701a      	strb	r2, [r3, #0]
                    break;
 8002054:	46c0      	nop			; (mov r8, r8)
            }
            break;
 8002056:	f001 feba 	bl	8003dce <fsm_handle_event+0x1ee2>
        
        case MENU_MAIN_BLUETOOTH:
            switch (event) {
 800205a:	1dfb      	adds	r3, r7, #7
 800205c:	781b      	ldrb	r3, [r3, #0]
 800205e:	2b02      	cmp	r3, #2
 8002060:	d028      	beq.n	80020b4 <fsm_handle_event+0x1c8>
 8002062:	2b05      	cmp	r3, #5
 8002064:	d002      	beq.n	800206c <fsm_handle_event+0x180>
 8002066:	2b01      	cmp	r3, #1
 8002068:	d012      	beq.n	8002090 <fsm_handle_event+0x1a4>
 800206a:	e035      	b.n	80020d8 <fsm_handle_event+0x1ec>
                case EV_BUTTON_SL:
                	st7565_clear_buffer(LCD_Buffer);
 800206c:	4b7c      	ldr	r3, [pc, #496]	; (8002260 <fsm_handle_event+0x374>)
 800206e:	0018      	movs	r0, r3
 8002070:	f7fe fe3e 	bl	8000cf0 <st7565_clear_buffer>
                    ah_menu(bluetooth);
 8002074:	2003      	movs	r0, #3
 8002076:	f7fe f9d7 	bl	8000428 <ah_menu>
                    ah_draw_cursor(1);
 800207a:	2001      	movs	r0, #1
 800207c:	f7fe f9c0 	bl	8000400 <ah_draw_cursor>
                    st7565_write_buffer(LCD_Buffer);
 8002080:	4b77      	ldr	r3, [pc, #476]	; (8002260 <fsm_handle_event+0x374>)
 8002082:	0018      	movs	r0, r3
 8002084:	f7fe fccc 	bl	8000a20 <st7565_write_buffer>
                    state = MENU_BT_PAIR;
 8002088:	4b73      	ldr	r3, [pc, #460]	; (8002258 <fsm_handle_event+0x36c>)
 800208a:	220c      	movs	r2, #12
 800208c:	701a      	strb	r2, [r3, #0]
                    break;
 800208e:	e028      	b.n	80020e2 <fsm_handle_event+0x1f6>
                
                case EV_BUTTON_UP:
                	st7565_clear_buffer(LCD_Buffer);
 8002090:	4b73      	ldr	r3, [pc, #460]	; (8002260 <fsm_handle_event+0x374>)
 8002092:	0018      	movs	r0, r3
 8002094:	f7fe fe2c 	bl	8000cf0 <st7565_clear_buffer>
                    ah_menu(main_m);
 8002098:	2000      	movs	r0, #0
 800209a:	f7fe f9c5 	bl	8000428 <ah_menu>
                    ah_draw_cursor(2);
 800209e:	2002      	movs	r0, #2
 80020a0:	f7fe f9ae 	bl	8000400 <ah_draw_cursor>
                    st7565_write_buffer(LCD_Buffer);
 80020a4:	4b6e      	ldr	r3, [pc, #440]	; (8002260 <fsm_handle_event+0x374>)
 80020a6:	0018      	movs	r0, r3
 80020a8:	f7fe fcba 	bl	8000a20 <st7565_write_buffer>
                    state = MENU_MAIN_MOODLIGHT;
 80020ac:	4b6a      	ldr	r3, [pc, #424]	; (8002258 <fsm_handle_event+0x36c>)
 80020ae:	2202      	movs	r2, #2
 80020b0:	701a      	strb	r2, [r3, #0]
                    break;
 80020b2:	e016      	b.n	80020e2 <fsm_handle_event+0x1f6>
                
                case EV_BUTTON_DN:
                	st7565_clear_buffer(LCD_Buffer);
 80020b4:	4b6a      	ldr	r3, [pc, #424]	; (8002260 <fsm_handle_event+0x374>)
 80020b6:	0018      	movs	r0, r3
 80020b8:	f7fe fe1a 	bl	8000cf0 <st7565_clear_buffer>
                    ah_menu(main_m);
 80020bc:	2000      	movs	r0, #0
 80020be:	f7fe f9b3 	bl	8000428 <ah_menu>
                    ah_draw_cursor(4);
 80020c2:	2004      	movs	r0, #4
 80020c4:	f7fe f99c 	bl	8000400 <ah_draw_cursor>
                    st7565_write_buffer(LCD_Buffer);
 80020c8:	4b65      	ldr	r3, [pc, #404]	; (8002260 <fsm_handle_event+0x374>)
 80020ca:	0018      	movs	r0, r3
 80020cc:	f7fe fca8 	bl	8000a20 <st7565_write_buffer>
                    state = MENU_MAIN_MUSIC;
 80020d0:	4b61      	ldr	r3, [pc, #388]	; (8002258 <fsm_handle_event+0x36c>)
 80020d2:	2204      	movs	r2, #4
 80020d4:	701a      	strb	r2, [r3, #0]
                    break;
 80020d6:	e004      	b.n	80020e2 <fsm_handle_event+0x1f6>
                
                default:
                    state = MENU_MAIN_BLUETOOTH;
 80020d8:	4b5f      	ldr	r3, [pc, #380]	; (8002258 <fsm_handle_event+0x36c>)
 80020da:	2203      	movs	r2, #3
 80020dc:	701a      	strb	r2, [r3, #0]
            }
            break;
 80020de:	f001 fe76 	bl	8003dce <fsm_handle_event+0x1ee2>
 80020e2:	f001 fe74 	bl	8003dce <fsm_handle_event+0x1ee2>

        case MENU_MAIN_MUSIC:    
            switch (event) {
 80020e6:	1dfb      	adds	r3, r7, #7
 80020e8:	781b      	ldrb	r3, [r3, #0]
 80020ea:	2b02      	cmp	r3, #2
 80020ec:	d028      	beq.n	8002140 <fsm_handle_event+0x254>
 80020ee:	2b05      	cmp	r3, #5
 80020f0:	d002      	beq.n	80020f8 <fsm_handle_event+0x20c>
 80020f2:	2b01      	cmp	r3, #1
 80020f4:	d012      	beq.n	800211c <fsm_handle_event+0x230>
 80020f6:	e035      	b.n	8002164 <fsm_handle_event+0x278>
                case EV_BUTTON_SL:
                	st7565_clear_buffer(LCD_Buffer);
 80020f8:	4b59      	ldr	r3, [pc, #356]	; (8002260 <fsm_handle_event+0x374>)
 80020fa:	0018      	movs	r0, r3
 80020fc:	f7fe fdf8 	bl	8000cf0 <st7565_clear_buffer>
                    ah_menu(music);
 8002100:	2004      	movs	r0, #4
 8002102:	f7fe f991 	bl	8000428 <ah_menu>
                    ah_draw_cursor(1);
 8002106:	2001      	movs	r0, #1
 8002108:	f7fe f97a 	bl	8000400 <ah_draw_cursor>
                    st7565_write_buffer(LCD_Buffer);
 800210c:	4b54      	ldr	r3, [pc, #336]	; (8002260 <fsm_handle_event+0x374>)
 800210e:	0018      	movs	r0, r3
 8002110:	f7fe fc86 	bl	8000a20 <st7565_write_buffer>
                    state = MENU_MUSIC_PLAYER;
 8002114:	4b50      	ldr	r3, [pc, #320]	; (8002258 <fsm_handle_event+0x36c>)
 8002116:	2210      	movs	r2, #16
 8002118:	701a      	strb	r2, [r3, #0]
                    break;    
 800211a:	e028      	b.n	800216e <fsm_handle_event+0x282>
                
                case EV_BUTTON_UP:
                	st7565_clear_buffer(LCD_Buffer);
 800211c:	4b50      	ldr	r3, [pc, #320]	; (8002260 <fsm_handle_event+0x374>)
 800211e:	0018      	movs	r0, r3
 8002120:	f7fe fde6 	bl	8000cf0 <st7565_clear_buffer>
                    ah_menu(main_m);
 8002124:	2000      	movs	r0, #0
 8002126:	f7fe f97f 	bl	8000428 <ah_menu>
                    ah_draw_cursor(3);
 800212a:	2003      	movs	r0, #3
 800212c:	f7fe f968 	bl	8000400 <ah_draw_cursor>
                    st7565_write_buffer(LCD_Buffer);
 8002130:	4b4b      	ldr	r3, [pc, #300]	; (8002260 <fsm_handle_event+0x374>)
 8002132:	0018      	movs	r0, r3
 8002134:	f7fe fc74 	bl	8000a20 <st7565_write_buffer>
                    state = MENU_MAIN_BLUETOOTH;
 8002138:	4b47      	ldr	r3, [pc, #284]	; (8002258 <fsm_handle_event+0x36c>)
 800213a:	2203      	movs	r2, #3
 800213c:	701a      	strb	r2, [r3, #0]
                    break;
 800213e:	e016      	b.n	800216e <fsm_handle_event+0x282>
                
                case EV_BUTTON_DN:
                	st7565_clear_buffer(LCD_Buffer);
 8002140:	4b47      	ldr	r3, [pc, #284]	; (8002260 <fsm_handle_event+0x374>)
 8002142:	0018      	movs	r0, r3
 8002144:	f7fe fdd4 	bl	8000cf0 <st7565_clear_buffer>
                    ah_menu(main_m);
 8002148:	2000      	movs	r0, #0
 800214a:	f7fe f96d 	bl	8000428 <ah_menu>
                    ah_draw_cursor(5);
 800214e:	2005      	movs	r0, #5
 8002150:	f7fe f956 	bl	8000400 <ah_draw_cursor>
                    st7565_write_buffer(LCD_Buffer);
 8002154:	4b42      	ldr	r3, [pc, #264]	; (8002260 <fsm_handle_event+0x374>)
 8002156:	0018      	movs	r0, r3
 8002158:	f7fe fc62 	bl	8000a20 <st7565_write_buffer>
                    state = MENU_MAIN_RETURN;
 800215c:	4b3e      	ldr	r3, [pc, #248]	; (8002258 <fsm_handle_event+0x36c>)
 800215e:	2205      	movs	r2, #5
 8002160:	701a      	strb	r2, [r3, #0]
                    break;
 8002162:	e004      	b.n	800216e <fsm_handle_event+0x282>
                
                default:
                    state = MENU_MAIN_MUSIC;
 8002164:	4b3c      	ldr	r3, [pc, #240]	; (8002258 <fsm_handle_event+0x36c>)
 8002166:	2204      	movs	r2, #4
 8002168:	701a      	strb	r2, [r3, #0]
            }
            break;
 800216a:	f001 fe30 	bl	8003dce <fsm_handle_event+0x1ee2>
 800216e:	f001 fe2e 	bl	8003dce <fsm_handle_event+0x1ee2>
                    
        case MENU_MAIN_RETURN:
            switch (event) {
 8002172:	1dfb      	adds	r3, r7, #7
 8002174:	781b      	ldrb	r3, [r3, #0]
 8002176:	2b02      	cmp	r3, #2
 8002178:	d02c      	beq.n	80021d4 <fsm_handle_event+0x2e8>
 800217a:	2b05      	cmp	r3, #5
 800217c:	d002      	beq.n	8002184 <fsm_handle_event+0x298>
 800217e:	2b01      	cmp	r3, #1
 8002180:	d016      	beq.n	80021b0 <fsm_handle_event+0x2c4>
 8002182:	e039      	b.n	80021f8 <fsm_handle_event+0x30c>
                case EV_BUTTON_SL:
                	st7565_clear_buffer(LCD_Buffer);
 8002184:	4b36      	ldr	r3, [pc, #216]	; (8002260 <fsm_handle_event+0x374>)
 8002186:	0018      	movs	r0, r3
 8002188:	f7fe fdb2 	bl	8000cf0 <st7565_clear_buffer>
                    ah_draw_time();
 800218c:	f7fe f872 	bl	8000274 <ah_draw_time>
                    ah_draw_date();
 8002190:	f7fe f8aa 	bl	80002e8 <ah_draw_date>
                    ah_draw_sensor();
 8002194:	f7fe f8de 	bl	8000354 <ah_draw_sensor>
                    // later to be moved to seperate states
                    ah_draw_snooze();
 8002198:	f7fe f912 	bl	80003c0 <ah_draw_snooze>
                    ah_draw_alarm();
 800219c:	f7fe f920 	bl	80003e0 <ah_draw_alarm>
                    st7565_write_buffer(LCD_Buffer);
 80021a0:	4b2f      	ldr	r3, [pc, #188]	; (8002260 <fsm_handle_event+0x374>)
 80021a2:	0018      	movs	r0, r3
 80021a4:	f7fe fc3c 	bl	8000a20 <st7565_write_buffer>
                    state = HOME_SCREEN;
 80021a8:	4b2b      	ldr	r3, [pc, #172]	; (8002258 <fsm_handle_event+0x36c>)
 80021aa:	2200      	movs	r2, #0
 80021ac:	701a      	strb	r2, [r3, #0]
                    break;
 80021ae:	e028      	b.n	8002202 <fsm_handle_event+0x316>
                
                case EV_BUTTON_UP:
                	st7565_clear_buffer(LCD_Buffer);
 80021b0:	4b2b      	ldr	r3, [pc, #172]	; (8002260 <fsm_handle_event+0x374>)
 80021b2:	0018      	movs	r0, r3
 80021b4:	f7fe fd9c 	bl	8000cf0 <st7565_clear_buffer>
                    ah_menu(main_m);
 80021b8:	2000      	movs	r0, #0
 80021ba:	f7fe f935 	bl	8000428 <ah_menu>
                    ah_draw_cursor(4);
 80021be:	2004      	movs	r0, #4
 80021c0:	f7fe f91e 	bl	8000400 <ah_draw_cursor>
                    st7565_write_buffer(LCD_Buffer);
 80021c4:	4b26      	ldr	r3, [pc, #152]	; (8002260 <fsm_handle_event+0x374>)
 80021c6:	0018      	movs	r0, r3
 80021c8:	f7fe fc2a 	bl	8000a20 <st7565_write_buffer>
                    state = MENU_MAIN_MUSIC;
 80021cc:	4b22      	ldr	r3, [pc, #136]	; (8002258 <fsm_handle_event+0x36c>)
 80021ce:	2204      	movs	r2, #4
 80021d0:	701a      	strb	r2, [r3, #0]
                    break;
 80021d2:	e016      	b.n	8002202 <fsm_handle_event+0x316>
                
                case EV_BUTTON_DN:
                	st7565_clear_buffer(LCD_Buffer);
 80021d4:	4b22      	ldr	r3, [pc, #136]	; (8002260 <fsm_handle_event+0x374>)
 80021d6:	0018      	movs	r0, r3
 80021d8:	f7fe fd8a 	bl	8000cf0 <st7565_clear_buffer>
                    ah_menu(main_m);
 80021dc:	2000      	movs	r0, #0
 80021de:	f7fe f923 	bl	8000428 <ah_menu>
                    ah_draw_cursor(1);
 80021e2:	2001      	movs	r0, #1
 80021e4:	f7fe f90c 	bl	8000400 <ah_draw_cursor>
                    st7565_write_buffer(LCD_Buffer);
 80021e8:	4b1d      	ldr	r3, [pc, #116]	; (8002260 <fsm_handle_event+0x374>)
 80021ea:	0018      	movs	r0, r3
 80021ec:	f7fe fc18 	bl	8000a20 <st7565_write_buffer>
                    state = MENU_MAIN_CLOCK;
 80021f0:	4b19      	ldr	r3, [pc, #100]	; (8002258 <fsm_handle_event+0x36c>)
 80021f2:	2201      	movs	r2, #1
 80021f4:	701a      	strb	r2, [r3, #0]
                    break;
 80021f6:	e004      	b.n	8002202 <fsm_handle_event+0x316>
                
                default:    
                    state = MENU_MAIN_RETURN;
 80021f8:	4b17      	ldr	r3, [pc, #92]	; (8002258 <fsm_handle_event+0x36c>)
 80021fa:	2205      	movs	r2, #5
 80021fc:	701a      	strb	r2, [r3, #0]
            }
            break;
 80021fe:	f001 fde6 	bl	8003dce <fsm_handle_event+0x1ee2>
 8002202:	f001 fde4 	bl	8003dce <fsm_handle_event+0x1ee2>
        
        case MENU_CLOCK_TIME:
            switch (event) {
 8002206:	1dfb      	adds	r3, r7, #7
 8002208:	781b      	ldrb	r3, [r3, #0]
 800220a:	2b02      	cmp	r3, #2
 800220c:	d046      	beq.n	800229c <fsm_handle_event+0x3b0>
 800220e:	2b05      	cmp	r3, #5
 8002210:	d002      	beq.n	8002218 <fsm_handle_event+0x32c>
 8002212:	2b01      	cmp	r3, #1
 8002214:	d030      	beq.n	8002278 <fsm_handle_event+0x38c>
 8002216:	e053      	b.n	80022c0 <fsm_handle_event+0x3d4>
                case EV_BUTTON_SL:
                	st7565_clear_buffer(LCD_Buffer);
 8002218:	4b11      	ldr	r3, [pc, #68]	; (8002260 <fsm_handle_event+0x374>)
 800221a:	0018      	movs	r0, r3
 800221c:	f7fe fd68 	bl	8000cf0 <st7565_clear_buffer>
                	st7565_drawmenu_settime(LCD_Buffer, set_hour, set_min, set_day, set_mon, set_year);
 8002220:	4b10      	ldr	r3, [pc, #64]	; (8002264 <fsm_handle_event+0x378>)
 8002222:	7819      	ldrb	r1, [r3, #0]
 8002224:	4b10      	ldr	r3, [pc, #64]	; (8002268 <fsm_handle_event+0x37c>)
 8002226:	781c      	ldrb	r4, [r3, #0]
 8002228:	4b10      	ldr	r3, [pc, #64]	; (800226c <fsm_handle_event+0x380>)
 800222a:	781d      	ldrb	r5, [r3, #0]
 800222c:	4b10      	ldr	r3, [pc, #64]	; (8002270 <fsm_handle_event+0x384>)
 800222e:	781b      	ldrb	r3, [r3, #0]
 8002230:	4a10      	ldr	r2, [pc, #64]	; (8002274 <fsm_handle_event+0x388>)
 8002232:	7812      	ldrb	r2, [r2, #0]
 8002234:	480a      	ldr	r0, [pc, #40]	; (8002260 <fsm_handle_event+0x374>)
 8002236:	9201      	str	r2, [sp, #4]
 8002238:	9300      	str	r3, [sp, #0]
 800223a:	002b      	movs	r3, r5
 800223c:	0022      	movs	r2, r4
 800223e:	f7ff fbb3 	bl	80019a8 <st7565_drawmenu_settime>
                    ah_draw_cursor(1);
 8002242:	2001      	movs	r0, #1
 8002244:	f7fe f8dc 	bl	8000400 <ah_draw_cursor>
                	st7565_write_buffer(LCD_Buffer);
 8002248:	4b05      	ldr	r3, [pc, #20]	; (8002260 <fsm_handle_event+0x374>)
 800224a:	0018      	movs	r0, r3
 800224c:	f7fe fbe8 	bl	8000a20 <st7565_write_buffer>
                	state = MENU_SETTIME_HOUR;
 8002250:	4b01      	ldr	r3, [pc, #4]	; (8002258 <fsm_handle_event+0x36c>)
 8002252:	2217      	movs	r2, #23
 8002254:	701a      	strb	r2, [r3, #0]
                    break;
 8002256:	e038      	b.n	80022ca <fsm_handle_event+0x3de>
 8002258:	20000040 	.word	0x20000040
 800225c:	0800d474 	.word	0x0800d474
 8002260:	200000d8 	.word	0x200000d8
 8002264:	2000003c 	.word	0x2000003c
 8002268:	2000003d 	.word	0x2000003d
 800226c:	20000010 	.word	0x20000010
 8002270:	20000011 	.word	0x20000011
 8002274:	20000012 	.word	0x20000012
                
                case EV_BUTTON_UP:
                	st7565_clear_buffer(LCD_Buffer);
 8002278:	4bdb      	ldr	r3, [pc, #876]	; (80025e8 <fsm_handle_event+0x6fc>)
 800227a:	0018      	movs	r0, r3
 800227c:	f7fe fd38 	bl	8000cf0 <st7565_clear_buffer>
                    ah_menu(clock);
 8002280:	2001      	movs	r0, #1
 8002282:	f7fe f8d1 	bl	8000428 <ah_menu>
                    ah_draw_cursor(3);
 8002286:	2003      	movs	r0, #3
 8002288:	f7fe f8ba 	bl	8000400 <ah_draw_cursor>
                    st7565_write_buffer(LCD_Buffer);
 800228c:	4bd6      	ldr	r3, [pc, #856]	; (80025e8 <fsm_handle_event+0x6fc>)
 800228e:	0018      	movs	r0, r3
 8002290:	f7fe fbc6 	bl	8000a20 <st7565_write_buffer>
                    state = MENU_CLOCK_RETURN;
 8002294:	4bd5      	ldr	r3, [pc, #852]	; (80025ec <fsm_handle_event+0x700>)
 8002296:	2208      	movs	r2, #8
 8002298:	701a      	strb	r2, [r3, #0]
                    break;
 800229a:	e016      	b.n	80022ca <fsm_handle_event+0x3de>
                
                case EV_BUTTON_DN:
                	st7565_clear_buffer(LCD_Buffer);
 800229c:	4bd2      	ldr	r3, [pc, #840]	; (80025e8 <fsm_handle_event+0x6fc>)
 800229e:	0018      	movs	r0, r3
 80022a0:	f7fe fd26 	bl	8000cf0 <st7565_clear_buffer>
                    ah_menu(clock);
 80022a4:	2001      	movs	r0, #1
 80022a6:	f7fe f8bf 	bl	8000428 <ah_menu>
                    ah_draw_cursor(2);
 80022aa:	2002      	movs	r0, #2
 80022ac:	f7fe f8a8 	bl	8000400 <ah_draw_cursor>
                    st7565_write_buffer(LCD_Buffer);
 80022b0:	4bcd      	ldr	r3, [pc, #820]	; (80025e8 <fsm_handle_event+0x6fc>)
 80022b2:	0018      	movs	r0, r3
 80022b4:	f7fe fbb4 	bl	8000a20 <st7565_write_buffer>
                    state = MENU_CLOCK_ALARM;
 80022b8:	4bcc      	ldr	r3, [pc, #816]	; (80025ec <fsm_handle_event+0x700>)
 80022ba:	2207      	movs	r2, #7
 80022bc:	701a      	strb	r2, [r3, #0]
                    break;
 80022be:	e004      	b.n	80022ca <fsm_handle_event+0x3de>
                
                default:
                    state = MENU_CLOCK_TIME;
 80022c0:	4bca      	ldr	r3, [pc, #808]	; (80025ec <fsm_handle_event+0x700>)
 80022c2:	2206      	movs	r2, #6
 80022c4:	701a      	strb	r2, [r3, #0]
            }
            break;
 80022c6:	f001 fd82 	bl	8003dce <fsm_handle_event+0x1ee2>
 80022ca:	f001 fd80 	bl	8003dce <fsm_handle_event+0x1ee2>
        
        case MENU_CLOCK_ALARM:  
            switch (event) {
 80022ce:	1dfb      	adds	r3, r7, #7
 80022d0:	781b      	ldrb	r3, [r3, #0]
 80022d2:	2b02      	cmp	r3, #2
 80022d4:	d02d      	beq.n	8002332 <fsm_handle_event+0x446>
 80022d6:	2b05      	cmp	r3, #5
 80022d8:	d002      	beq.n	80022e0 <fsm_handle_event+0x3f4>
 80022da:	2b01      	cmp	r3, #1
 80022dc:	d017      	beq.n	800230e <fsm_handle_event+0x422>
 80022de:	e03a      	b.n	8002356 <fsm_handle_event+0x46a>
                case EV_BUTTON_SL:              
                	st7565_clear_buffer(LCD_Buffer);
 80022e0:	4bc1      	ldr	r3, [pc, #772]	; (80025e8 <fsm_handle_event+0x6fc>)
 80022e2:	0018      	movs	r0, r3
 80022e4:	f7fe fd04 	bl	8000cf0 <st7565_clear_buffer>
                	st7565_drawmenu_setalarm(LCD_Buffer, set_al_hr, set_al_min);
 80022e8:	4bc1      	ldr	r3, [pc, #772]	; (80025f0 <fsm_handle_event+0x704>)
 80022ea:	7819      	ldrb	r1, [r3, #0]
 80022ec:	4bc1      	ldr	r3, [pc, #772]	; (80025f4 <fsm_handle_event+0x708>)
 80022ee:	781a      	ldrb	r2, [r3, #0]
 80022f0:	4bbd      	ldr	r3, [pc, #756]	; (80025e8 <fsm_handle_event+0x6fc>)
 80022f2:	0018      	movs	r0, r3
 80022f4:	f7ff fbfc 	bl	8001af0 <st7565_drawmenu_setalarm>
                    ah_draw_cursor(1);
 80022f8:	2001      	movs	r0, #1
 80022fa:	f7fe f881 	bl	8000400 <ah_draw_cursor>
                	st7565_write_buffer(LCD_Buffer);
 80022fe:	4bba      	ldr	r3, [pc, #744]	; (80025e8 <fsm_handle_event+0x6fc>)
 8002300:	0018      	movs	r0, r3
 8002302:	f7fe fb8d 	bl	8000a20 <st7565_write_buffer>
                    state = MENU_ALARM_HOUR;
 8002306:	4bb9      	ldr	r3, [pc, #740]	; (80025ec <fsm_handle_event+0x700>)
 8002308:	221d      	movs	r2, #29
 800230a:	701a      	strb	r2, [r3, #0]
                    break;
 800230c:	e028      	b.n	8002360 <fsm_handle_event+0x474>
                
                case EV_BUTTON_UP:
                	st7565_clear_buffer(LCD_Buffer);
 800230e:	4bb6      	ldr	r3, [pc, #728]	; (80025e8 <fsm_handle_event+0x6fc>)
 8002310:	0018      	movs	r0, r3
 8002312:	f7fe fced 	bl	8000cf0 <st7565_clear_buffer>
                    ah_menu(clock);
 8002316:	2001      	movs	r0, #1
 8002318:	f7fe f886 	bl	8000428 <ah_menu>
                    ah_draw_cursor(1);
 800231c:	2001      	movs	r0, #1
 800231e:	f7fe f86f 	bl	8000400 <ah_draw_cursor>
                    st7565_write_buffer(LCD_Buffer);
 8002322:	4bb1      	ldr	r3, [pc, #708]	; (80025e8 <fsm_handle_event+0x6fc>)
 8002324:	0018      	movs	r0, r3
 8002326:	f7fe fb7b 	bl	8000a20 <st7565_write_buffer>
                    state = MENU_CLOCK_TIME;
 800232a:	4bb0      	ldr	r3, [pc, #704]	; (80025ec <fsm_handle_event+0x700>)
 800232c:	2206      	movs	r2, #6
 800232e:	701a      	strb	r2, [r3, #0]
                    break;
 8002330:	e016      	b.n	8002360 <fsm_handle_event+0x474>
                 
                case EV_BUTTON_DN:
                	st7565_clear_buffer(LCD_Buffer);
 8002332:	4bad      	ldr	r3, [pc, #692]	; (80025e8 <fsm_handle_event+0x6fc>)
 8002334:	0018      	movs	r0, r3
 8002336:	f7fe fcdb 	bl	8000cf0 <st7565_clear_buffer>
                    ah_menu(clock);
 800233a:	2001      	movs	r0, #1
 800233c:	f7fe f874 	bl	8000428 <ah_menu>
                    ah_draw_cursor(3);
 8002340:	2003      	movs	r0, #3
 8002342:	f7fe f85d 	bl	8000400 <ah_draw_cursor>
                    st7565_write_buffer(LCD_Buffer);
 8002346:	4ba8      	ldr	r3, [pc, #672]	; (80025e8 <fsm_handle_event+0x6fc>)
 8002348:	0018      	movs	r0, r3
 800234a:	f7fe fb69 	bl	8000a20 <st7565_write_buffer>
                    state = MENU_CLOCK_RETURN;
 800234e:	4ba7      	ldr	r3, [pc, #668]	; (80025ec <fsm_handle_event+0x700>)
 8002350:	2208      	movs	r2, #8
 8002352:	701a      	strb	r2, [r3, #0]
                    break;                    
 8002354:	e004      	b.n	8002360 <fsm_handle_event+0x474>
                
                default: 
                    state = MENU_CLOCK_ALARM;
 8002356:	4ba5      	ldr	r3, [pc, #660]	; (80025ec <fsm_handle_event+0x700>)
 8002358:	2207      	movs	r2, #7
 800235a:	701a      	strb	r2, [r3, #0]
            }
            break;
 800235c:	f001 fd37 	bl	8003dce <fsm_handle_event+0x1ee2>
 8002360:	f001 fd35 	bl	8003dce <fsm_handle_event+0x1ee2>
        
        case MENU_CLOCK_RETURN: 
            switch (event) {
 8002364:	1dfb      	adds	r3, r7, #7
 8002366:	781b      	ldrb	r3, [r3, #0]
 8002368:	2b02      	cmp	r3, #2
 800236a:	d028      	beq.n	80023be <fsm_handle_event+0x4d2>
 800236c:	2b05      	cmp	r3, #5
 800236e:	d002      	beq.n	8002376 <fsm_handle_event+0x48a>
 8002370:	2b01      	cmp	r3, #1
 8002372:	d012      	beq.n	800239a <fsm_handle_event+0x4ae>
 8002374:	e035      	b.n	80023e2 <fsm_handle_event+0x4f6>
                case EV_BUTTON_SL:
                	st7565_clear_buffer(LCD_Buffer);
 8002376:	4b9c      	ldr	r3, [pc, #624]	; (80025e8 <fsm_handle_event+0x6fc>)
 8002378:	0018      	movs	r0, r3
 800237a:	f7fe fcb9 	bl	8000cf0 <st7565_clear_buffer>
                    ah_menu(main_m);
 800237e:	2000      	movs	r0, #0
 8002380:	f7fe f852 	bl	8000428 <ah_menu>
                    ah_draw_cursor(1);
 8002384:	2001      	movs	r0, #1
 8002386:	f7fe f83b 	bl	8000400 <ah_draw_cursor>
                    st7565_write_buffer(LCD_Buffer);
 800238a:	4b97      	ldr	r3, [pc, #604]	; (80025e8 <fsm_handle_event+0x6fc>)
 800238c:	0018      	movs	r0, r3
 800238e:	f7fe fb47 	bl	8000a20 <st7565_write_buffer>
                    state = MENU_MAIN_CLOCK;
 8002392:	4b96      	ldr	r3, [pc, #600]	; (80025ec <fsm_handle_event+0x700>)
 8002394:	2201      	movs	r2, #1
 8002396:	701a      	strb	r2, [r3, #0]
                    break;    
 8002398:	e028      	b.n	80023ec <fsm_handle_event+0x500>
                
                case EV_BUTTON_UP:
                	st7565_clear_buffer(LCD_Buffer);
 800239a:	4b93      	ldr	r3, [pc, #588]	; (80025e8 <fsm_handle_event+0x6fc>)
 800239c:	0018      	movs	r0, r3
 800239e:	f7fe fca7 	bl	8000cf0 <st7565_clear_buffer>
                    ah_menu(clock);
 80023a2:	2001      	movs	r0, #1
 80023a4:	f7fe f840 	bl	8000428 <ah_menu>
                    ah_draw_cursor(2);
 80023a8:	2002      	movs	r0, #2
 80023aa:	f7fe f829 	bl	8000400 <ah_draw_cursor>
                    st7565_write_buffer(LCD_Buffer);
 80023ae:	4b8e      	ldr	r3, [pc, #568]	; (80025e8 <fsm_handle_event+0x6fc>)
 80023b0:	0018      	movs	r0, r3
 80023b2:	f7fe fb35 	bl	8000a20 <st7565_write_buffer>
                    state = MENU_CLOCK_ALARM;
 80023b6:	4b8d      	ldr	r3, [pc, #564]	; (80025ec <fsm_handle_event+0x700>)
 80023b8:	2207      	movs	r2, #7
 80023ba:	701a      	strb	r2, [r3, #0]
                    break;
 80023bc:	e016      	b.n	80023ec <fsm_handle_event+0x500>
                
                case EV_BUTTON_DN:
                	st7565_clear_buffer(LCD_Buffer);
 80023be:	4b8a      	ldr	r3, [pc, #552]	; (80025e8 <fsm_handle_event+0x6fc>)
 80023c0:	0018      	movs	r0, r3
 80023c2:	f7fe fc95 	bl	8000cf0 <st7565_clear_buffer>
                    ah_menu(clock);
 80023c6:	2001      	movs	r0, #1
 80023c8:	f7fe f82e 	bl	8000428 <ah_menu>
                    ah_draw_cursor(1);
 80023cc:	2001      	movs	r0, #1
 80023ce:	f7fe f817 	bl	8000400 <ah_draw_cursor>
                    st7565_write_buffer(LCD_Buffer);
 80023d2:	4b85      	ldr	r3, [pc, #532]	; (80025e8 <fsm_handle_event+0x6fc>)
 80023d4:	0018      	movs	r0, r3
 80023d6:	f7fe fb23 	bl	8000a20 <st7565_write_buffer>
                    state = MENU_CLOCK_TIME;
 80023da:	4b84      	ldr	r3, [pc, #528]	; (80025ec <fsm_handle_event+0x700>)
 80023dc:	2206      	movs	r2, #6
 80023de:	701a      	strb	r2, [r3, #0]
                    break;
 80023e0:	e004      	b.n	80023ec <fsm_handle_event+0x500>
                
                default:  
                    state = MENU_CLOCK_RETURN;
 80023e2:	4b82      	ldr	r3, [pc, #520]	; (80025ec <fsm_handle_event+0x700>)
 80023e4:	2208      	movs	r2, #8
 80023e6:	701a      	strb	r2, [r3, #0]
            }
            break;
 80023e8:	f001 fcf1 	bl	8003dce <fsm_handle_event+0x1ee2>
 80023ec:	f001 fcef 	bl	8003dce <fsm_handle_event+0x1ee2>
        
        case MENU_MOODL_PRESETS:
            switch (event) {
 80023f0:	1dfb      	adds	r3, r7, #7
 80023f2:	781b      	ldrb	r3, [r3, #0]
 80023f4:	2b02      	cmp	r3, #2
 80023f6:	d028      	beq.n	800244a <fsm_handle_event+0x55e>
 80023f8:	2b05      	cmp	r3, #5
 80023fa:	d002      	beq.n	8002402 <fsm_handle_event+0x516>
 80023fc:	2b01      	cmp	r3, #1
 80023fe:	d012      	beq.n	8002426 <fsm_handle_event+0x53a>
 8002400:	e035      	b.n	800246e <fsm_handle_event+0x582>
                case EV_BUTTON_SL:
                	st7565_clear_buffer(LCD_Buffer);
 8002402:	4b79      	ldr	r3, [pc, #484]	; (80025e8 <fsm_handle_event+0x6fc>)
 8002404:	0018      	movs	r0, r3
 8002406:	f7fe fc73 	bl	8000cf0 <st7565_clear_buffer>
                	ah_menu(colors);
 800240a:	2005      	movs	r0, #5
 800240c:	f7fe f80c 	bl	8000428 <ah_menu>
                	ah_draw_cursor(1);
 8002410:	2001      	movs	r0, #1
 8002412:	f7fd fff5 	bl	8000400 <ah_draw_cursor>
                	st7565_write_buffer(LCD_Buffer);
 8002416:	4b74      	ldr	r3, [pc, #464]	; (80025e8 <fsm_handle_event+0x6fc>)
 8002418:	0018      	movs	r0, r3
 800241a:	f7fe fb01 	bl	8000a20 <st7565_write_buffer>
                    state = MENU_COLORS_WHITE;
 800241e:	4b73      	ldr	r3, [pc, #460]	; (80025ec <fsm_handle_event+0x700>)
 8002420:	2220      	movs	r2, #32
 8002422:	701a      	strb	r2, [r3, #0]
                    break;
 8002424:	e028      	b.n	8002478 <fsm_handle_event+0x58c>
                
                case EV_BUTTON_UP:
                	st7565_clear_buffer(LCD_Buffer);
 8002426:	4b70      	ldr	r3, [pc, #448]	; (80025e8 <fsm_handle_event+0x6fc>)
 8002428:	0018      	movs	r0, r3
 800242a:	f7fe fc61 	bl	8000cf0 <st7565_clear_buffer>
                    ah_menu(moodlight);
 800242e:	2002      	movs	r0, #2
 8002430:	f7fd fffa 	bl	8000428 <ah_menu>
                    ah_draw_cursor(3);
 8002434:	2003      	movs	r0, #3
 8002436:	f7fd ffe3 	bl	8000400 <ah_draw_cursor>
                    st7565_write_buffer(LCD_Buffer);
 800243a:	4b6b      	ldr	r3, [pc, #428]	; (80025e8 <fsm_handle_event+0x6fc>)
 800243c:	0018      	movs	r0, r3
 800243e:	f7fe faef 	bl	8000a20 <st7565_write_buffer>
                    state = MENU_MOODL_RETURN;  
 8002442:	4b6a      	ldr	r3, [pc, #424]	; (80025ec <fsm_handle_event+0x700>)
 8002444:	220b      	movs	r2, #11
 8002446:	701a      	strb	r2, [r3, #0]
                    break;
 8002448:	e016      	b.n	8002478 <fsm_handle_event+0x58c>
                
                case EV_BUTTON_DN:
                	st7565_clear_buffer(LCD_Buffer);
 800244a:	4b67      	ldr	r3, [pc, #412]	; (80025e8 <fsm_handle_event+0x6fc>)
 800244c:	0018      	movs	r0, r3
 800244e:	f7fe fc4f 	bl	8000cf0 <st7565_clear_buffer>
                    ah_menu(moodlight);
 8002452:	2002      	movs	r0, #2
 8002454:	f7fd ffe8 	bl	8000428 <ah_menu>
                    ah_draw_cursor(2);
 8002458:	2002      	movs	r0, #2
 800245a:	f7fd ffd1 	bl	8000400 <ah_draw_cursor>
                    st7565_write_buffer(LCD_Buffer);
 800245e:	4b62      	ldr	r3, [pc, #392]	; (80025e8 <fsm_handle_event+0x6fc>)
 8002460:	0018      	movs	r0, r3
 8002462:	f7fe fadd 	bl	8000a20 <st7565_write_buffer>
                    state = MENU_MOODL_CUSTOM;  
 8002466:	4b61      	ldr	r3, [pc, #388]	; (80025ec <fsm_handle_event+0x700>)
 8002468:	2209      	movs	r2, #9
 800246a:	701a      	strb	r2, [r3, #0]
                    break;
 800246c:	e004      	b.n	8002478 <fsm_handle_event+0x58c>
                
                default:  
                    state = MENU_MOODL_PRESETS;
 800246e:	4b5f      	ldr	r3, [pc, #380]	; (80025ec <fsm_handle_event+0x700>)
 8002470:	220a      	movs	r2, #10
 8002472:	701a      	strb	r2, [r3, #0]
            }
            break;
 8002474:	f001 fcab 	bl	8003dce <fsm_handle_event+0x1ee2>
 8002478:	f001 fca9 	bl	8003dce <fsm_handle_event+0x1ee2>
                
        case MENU_MOODL_CUSTOM:
            switch (event) {
 800247c:	1dfb      	adds	r3, r7, #7
 800247e:	781b      	ldrb	r3, [r3, #0]
 8002480:	2b02      	cmp	r3, #2
 8002482:	d032      	beq.n	80024ea <fsm_handle_event+0x5fe>
 8002484:	2b05      	cmp	r3, #5
 8002486:	d002      	beq.n	800248e <fsm_handle_event+0x5a2>
 8002488:	2b01      	cmp	r3, #1
 800248a:	d01c      	beq.n	80024c6 <fsm_handle_event+0x5da>
 800248c:	e03f      	b.n	800250e <fsm_handle_event+0x622>
                case EV_BUTTON_SL:
                	st7565_clear_buffer(LCD_Buffer);
 800248e:	4b56      	ldr	r3, [pc, #344]	; (80025e8 <fsm_handle_event+0x6fc>)
 8002490:	0018      	movs	r0, r3
 8002492:	f7fe fc2d 	bl	8000cf0 <st7565_clear_buffer>
                	st7565_drawmenu_custom(LCD_Buffer, led_intens_w, led_intens_r, led_intens_g, led_intens_b);
 8002496:	4b58      	ldr	r3, [pc, #352]	; (80025f8 <fsm_handle_event+0x70c>)
 8002498:	7819      	ldrb	r1, [r3, #0]
 800249a:	4b58      	ldr	r3, [pc, #352]	; (80025fc <fsm_handle_event+0x710>)
 800249c:	781a      	ldrb	r2, [r3, #0]
 800249e:	4b58      	ldr	r3, [pc, #352]	; (8002600 <fsm_handle_event+0x714>)
 80024a0:	781c      	ldrb	r4, [r3, #0]
 80024a2:	4b58      	ldr	r3, [pc, #352]	; (8002604 <fsm_handle_event+0x718>)
 80024a4:	781b      	ldrb	r3, [r3, #0]
 80024a6:	4850      	ldr	r0, [pc, #320]	; (80025e8 <fsm_handle_event+0x6fc>)
 80024a8:	9300      	str	r3, [sp, #0]
 80024aa:	0023      	movs	r3, r4
 80024ac:	f7ff f9e0 	bl	8001870 <st7565_drawmenu_custom>
                	ah_draw_cursor(1);
 80024b0:	2001      	movs	r0, #1
 80024b2:	f7fd ffa5 	bl	8000400 <ah_draw_cursor>
                	st7565_write_buffer(LCD_Buffer);
 80024b6:	4b4c      	ldr	r3, [pc, #304]	; (80025e8 <fsm_handle_event+0x6fc>)
 80024b8:	0018      	movs	r0, r3
 80024ba:	f7fe fab1 	bl	8000a20 <st7565_write_buffer>
                    state = MENU_CUSTOM_WHITE;
 80024be:	4b4b      	ldr	r3, [pc, #300]	; (80025ec <fsm_handle_event+0x700>)
 80024c0:	2212      	movs	r2, #18
 80024c2:	701a      	strb	r2, [r3, #0]
                    break;
 80024c4:	e028      	b.n	8002518 <fsm_handle_event+0x62c>
                
                case EV_BUTTON_UP:
                	st7565_clear_buffer(LCD_Buffer);
 80024c6:	4b48      	ldr	r3, [pc, #288]	; (80025e8 <fsm_handle_event+0x6fc>)
 80024c8:	0018      	movs	r0, r3
 80024ca:	f7fe fc11 	bl	8000cf0 <st7565_clear_buffer>
                    ah_menu(moodlight);
 80024ce:	2002      	movs	r0, #2
 80024d0:	f7fd ffaa 	bl	8000428 <ah_menu>
                    ah_draw_cursor(1);
 80024d4:	2001      	movs	r0, #1
 80024d6:	f7fd ff93 	bl	8000400 <ah_draw_cursor>
                    st7565_write_buffer(LCD_Buffer);
 80024da:	4b43      	ldr	r3, [pc, #268]	; (80025e8 <fsm_handle_event+0x6fc>)
 80024dc:	0018      	movs	r0, r3
 80024de:	f7fe fa9f 	bl	8000a20 <st7565_write_buffer>
                    state = MENU_MOODL_PRESETS;  
 80024e2:	4b42      	ldr	r3, [pc, #264]	; (80025ec <fsm_handle_event+0x700>)
 80024e4:	220a      	movs	r2, #10
 80024e6:	701a      	strb	r2, [r3, #0]
                    break;
 80024e8:	e016      	b.n	8002518 <fsm_handle_event+0x62c>
                
                case EV_BUTTON_DN:
                	st7565_clear_buffer(LCD_Buffer);
 80024ea:	4b3f      	ldr	r3, [pc, #252]	; (80025e8 <fsm_handle_event+0x6fc>)
 80024ec:	0018      	movs	r0, r3
 80024ee:	f7fe fbff 	bl	8000cf0 <st7565_clear_buffer>
                    ah_menu(moodlight);
 80024f2:	2002      	movs	r0, #2
 80024f4:	f7fd ff98 	bl	8000428 <ah_menu>
                    ah_draw_cursor(3);
 80024f8:	2003      	movs	r0, #3
 80024fa:	f7fd ff81 	bl	8000400 <ah_draw_cursor>
                    st7565_write_buffer(LCD_Buffer);
 80024fe:	4b3a      	ldr	r3, [pc, #232]	; (80025e8 <fsm_handle_event+0x6fc>)
 8002500:	0018      	movs	r0, r3
 8002502:	f7fe fa8d 	bl	8000a20 <st7565_write_buffer>
                    state = MENU_MOODL_RETURN;  
 8002506:	4b39      	ldr	r3, [pc, #228]	; (80025ec <fsm_handle_event+0x700>)
 8002508:	220b      	movs	r2, #11
 800250a:	701a      	strb	r2, [r3, #0]
                    break;
 800250c:	e004      	b.n	8002518 <fsm_handle_event+0x62c>
                        
                default:
                    state = MENU_MOODL_CUSTOM;
 800250e:	4b37      	ldr	r3, [pc, #220]	; (80025ec <fsm_handle_event+0x700>)
 8002510:	2209      	movs	r2, #9
 8002512:	701a      	strb	r2, [r3, #0]
            }
            break;
 8002514:	f001 fc5b 	bl	8003dce <fsm_handle_event+0x1ee2>
 8002518:	f001 fc59 	bl	8003dce <fsm_handle_event+0x1ee2>
        
        case MENU_MOODL_RETURN:
            switch (event) {
 800251c:	1dfb      	adds	r3, r7, #7
 800251e:	781b      	ldrb	r3, [r3, #0]
 8002520:	2b02      	cmp	r3, #2
 8002522:	d028      	beq.n	8002576 <fsm_handle_event+0x68a>
 8002524:	2b05      	cmp	r3, #5
 8002526:	d002      	beq.n	800252e <fsm_handle_event+0x642>
 8002528:	2b01      	cmp	r3, #1
 800252a:	d012      	beq.n	8002552 <fsm_handle_event+0x666>
 800252c:	e035      	b.n	800259a <fsm_handle_event+0x6ae>
                case EV_BUTTON_SL:
                	st7565_clear_buffer(LCD_Buffer);
 800252e:	4b2e      	ldr	r3, [pc, #184]	; (80025e8 <fsm_handle_event+0x6fc>)
 8002530:	0018      	movs	r0, r3
 8002532:	f7fe fbdd 	bl	8000cf0 <st7565_clear_buffer>
                    ah_menu(main_m);
 8002536:	2000      	movs	r0, #0
 8002538:	f7fd ff76 	bl	8000428 <ah_menu>
                    ah_draw_cursor(1);
 800253c:	2001      	movs	r0, #1
 800253e:	f7fd ff5f 	bl	8000400 <ah_draw_cursor>
                    st7565_write_buffer(LCD_Buffer);
 8002542:	4b29      	ldr	r3, [pc, #164]	; (80025e8 <fsm_handle_event+0x6fc>)
 8002544:	0018      	movs	r0, r3
 8002546:	f7fe fa6b 	bl	8000a20 <st7565_write_buffer>
                    state = MENU_MAIN_CLOCK;
 800254a:	4b28      	ldr	r3, [pc, #160]	; (80025ec <fsm_handle_event+0x700>)
 800254c:	2201      	movs	r2, #1
 800254e:	701a      	strb	r2, [r3, #0]
                    break;
 8002550:	e028      	b.n	80025a4 <fsm_handle_event+0x6b8>
                
                case EV_BUTTON_UP:
                	st7565_clear_buffer(LCD_Buffer);
 8002552:	4b25      	ldr	r3, [pc, #148]	; (80025e8 <fsm_handle_event+0x6fc>)
 8002554:	0018      	movs	r0, r3
 8002556:	f7fe fbcb 	bl	8000cf0 <st7565_clear_buffer>
                    ah_menu(moodlight);
 800255a:	2002      	movs	r0, #2
 800255c:	f7fd ff64 	bl	8000428 <ah_menu>
                    ah_draw_cursor(2);
 8002560:	2002      	movs	r0, #2
 8002562:	f7fd ff4d 	bl	8000400 <ah_draw_cursor>
                    st7565_write_buffer(LCD_Buffer);
 8002566:	4b20      	ldr	r3, [pc, #128]	; (80025e8 <fsm_handle_event+0x6fc>)
 8002568:	0018      	movs	r0, r3
 800256a:	f7fe fa59 	bl	8000a20 <st7565_write_buffer>
                    state = MENU_MOODL_CUSTOM;  
 800256e:	4b1f      	ldr	r3, [pc, #124]	; (80025ec <fsm_handle_event+0x700>)
 8002570:	2209      	movs	r2, #9
 8002572:	701a      	strb	r2, [r3, #0]
                    break;
 8002574:	e016      	b.n	80025a4 <fsm_handle_event+0x6b8>
                
                case EV_BUTTON_DN:
                	st7565_clear_buffer(LCD_Buffer);
 8002576:	4b1c      	ldr	r3, [pc, #112]	; (80025e8 <fsm_handle_event+0x6fc>)
 8002578:	0018      	movs	r0, r3
 800257a:	f7fe fbb9 	bl	8000cf0 <st7565_clear_buffer>
                    ah_menu(moodlight);
 800257e:	2002      	movs	r0, #2
 8002580:	f7fd ff52 	bl	8000428 <ah_menu>
                    ah_draw_cursor(1);
 8002584:	2001      	movs	r0, #1
 8002586:	f7fd ff3b 	bl	8000400 <ah_draw_cursor>
                    st7565_write_buffer(LCD_Buffer);
 800258a:	4b17      	ldr	r3, [pc, #92]	; (80025e8 <fsm_handle_event+0x6fc>)
 800258c:	0018      	movs	r0, r3
 800258e:	f7fe fa47 	bl	8000a20 <st7565_write_buffer>
                    state = MENU_MOODL_PRESETS;  
 8002592:	4b16      	ldr	r3, [pc, #88]	; (80025ec <fsm_handle_event+0x700>)
 8002594:	220a      	movs	r2, #10
 8002596:	701a      	strb	r2, [r3, #0]
                    break;
 8002598:	e004      	b.n	80025a4 <fsm_handle_event+0x6b8>
                        
                default:
                    state = MENU_MOODL_RETURN;
 800259a:	4b14      	ldr	r3, [pc, #80]	; (80025ec <fsm_handle_event+0x700>)
 800259c:	220b      	movs	r2, #11
 800259e:	701a      	strb	r2, [r3, #0]
            }
            break;
 80025a0:	f001 fc15 	bl	8003dce <fsm_handle_event+0x1ee2>
 80025a4:	f001 fc13 	bl	8003dce <fsm_handle_event+0x1ee2>
            
        
        case MENU_BT_PAIR:
            switch (event) {
 80025a8:	1dfb      	adds	r3, r7, #7
 80025aa:	781b      	ldrb	r3, [r3, #0]
 80025ac:	2b02      	cmp	r3, #2
 80025ae:	d02b      	beq.n	8002608 <fsm_handle_event+0x71c>
 80025b0:	2b05      	cmp	r3, #5
 80025b2:	d002      	beq.n	80025ba <fsm_handle_event+0x6ce>
 80025b4:	2b01      	cmp	r3, #1
 80025b6:	d004      	beq.n	80025c2 <fsm_handle_event+0x6d6>
 80025b8:	e038      	b.n	800262c <fsm_handle_event+0x740>
                case EV_BUTTON_SL:        
                    state = MENU_BT_PAIR;               // To be continued ********************************************************
 80025ba:	4b0c      	ldr	r3, [pc, #48]	; (80025ec <fsm_handle_event+0x700>)
 80025bc:	220c      	movs	r2, #12
 80025be:	701a      	strb	r2, [r3, #0]
                    break;
 80025c0:	e039      	b.n	8002636 <fsm_handle_event+0x74a>
                
                case EV_BUTTON_UP:
                	st7565_clear_buffer(LCD_Buffer);
 80025c2:	4b09      	ldr	r3, [pc, #36]	; (80025e8 <fsm_handle_event+0x6fc>)
 80025c4:	0018      	movs	r0, r3
 80025c6:	f7fe fb93 	bl	8000cf0 <st7565_clear_buffer>
                    ah_menu(bluetooth);
 80025ca:	2003      	movs	r0, #3
 80025cc:	f7fd ff2c 	bl	8000428 <ah_menu>
                    ah_draw_cursor(3);
 80025d0:	2003      	movs	r0, #3
 80025d2:	f7fd ff15 	bl	8000400 <ah_draw_cursor>
                    st7565_write_buffer(LCD_Buffer);
 80025d6:	4b04      	ldr	r3, [pc, #16]	; (80025e8 <fsm_handle_event+0x6fc>)
 80025d8:	0018      	movs	r0, r3
 80025da:	f7fe fa21 	bl	8000a20 <st7565_write_buffer>
                    state = MENU_BT_RETURN;  
 80025de:	4b03      	ldr	r3, [pc, #12]	; (80025ec <fsm_handle_event+0x700>)
 80025e0:	220e      	movs	r2, #14
 80025e2:	701a      	strb	r2, [r3, #0]
                    break;
 80025e4:	e027      	b.n	8002636 <fsm_handle_event+0x74a>
 80025e6:	46c0      	nop			; (mov r8, r8)
 80025e8:	200000d8 	.word	0x200000d8
 80025ec:	20000040 	.word	0x20000040
 80025f0:	2000003e 	.word	0x2000003e
 80025f4:	2000003f 	.word	0x2000003f
 80025f8:	2000000c 	.word	0x2000000c
 80025fc:	2000000d 	.word	0x2000000d
 8002600:	2000000e 	.word	0x2000000e
 8002604:	2000000f 	.word	0x2000000f
                
                case EV_BUTTON_DN:
                	st7565_clear_buffer(LCD_Buffer);
 8002608:	4bd3      	ldr	r3, [pc, #844]	; (8002958 <fsm_handle_event+0xa6c>)
 800260a:	0018      	movs	r0, r3
 800260c:	f7fe fb70 	bl	8000cf0 <st7565_clear_buffer>
                    ah_menu(bluetooth);
 8002610:	2003      	movs	r0, #3
 8002612:	f7fd ff09 	bl	8000428 <ah_menu>
                    ah_draw_cursor(2);
 8002616:	2002      	movs	r0, #2
 8002618:	f7fd fef2 	bl	8000400 <ah_draw_cursor>
                    st7565_write_buffer(LCD_Buffer);
 800261c:	4bce      	ldr	r3, [pc, #824]	; (8002958 <fsm_handle_event+0xa6c>)
 800261e:	0018      	movs	r0, r3
 8002620:	f7fe f9fe 	bl	8000a20 <st7565_write_buffer>
                    state = MENU_BT_SETTINGS;  
 8002624:	4bcd      	ldr	r3, [pc, #820]	; (800295c <fsm_handle_event+0xa70>)
 8002626:	220d      	movs	r2, #13
 8002628:	701a      	strb	r2, [r3, #0]
                    break;
 800262a:	e004      	b.n	8002636 <fsm_handle_event+0x74a>
                
                default:  
                    state = MENU_BT_PAIR;
 800262c:	4bcb      	ldr	r3, [pc, #812]	; (800295c <fsm_handle_event+0xa70>)
 800262e:	220c      	movs	r2, #12
 8002630:	701a      	strb	r2, [r3, #0]
            }
            break;
 8002632:	f001 fbcc 	bl	8003dce <fsm_handle_event+0x1ee2>
 8002636:	f001 fbca 	bl	8003dce <fsm_handle_event+0x1ee2>
            
        case MENU_BT_SETTINGS:
            switch (event) {
 800263a:	1dfb      	adds	r3, r7, #7
 800263c:	781b      	ldrb	r3, [r3, #0]
 800263e:	2b02      	cmp	r3, #2
 8002640:	d01a      	beq.n	8002678 <fsm_handle_event+0x78c>
 8002642:	2b05      	cmp	r3, #5
 8002644:	d002      	beq.n	800264c <fsm_handle_event+0x760>
 8002646:	2b01      	cmp	r3, #1
 8002648:	d004      	beq.n	8002654 <fsm_handle_event+0x768>
 800264a:	e027      	b.n	800269c <fsm_handle_event+0x7b0>
                case EV_BUTTON_SL:          
                    state = MENU_BT_SETTINGS;           // To be continued ********************************************************
 800264c:	4bc3      	ldr	r3, [pc, #780]	; (800295c <fsm_handle_event+0xa70>)
 800264e:	220d      	movs	r2, #13
 8002650:	701a      	strb	r2, [r3, #0]
                    break;
 8002652:	e028      	b.n	80026a6 <fsm_handle_event+0x7ba>
                
                case EV_BUTTON_UP:
                	st7565_clear_buffer(LCD_Buffer);
 8002654:	4bc0      	ldr	r3, [pc, #768]	; (8002958 <fsm_handle_event+0xa6c>)
 8002656:	0018      	movs	r0, r3
 8002658:	f7fe fb4a 	bl	8000cf0 <st7565_clear_buffer>
                    ah_menu(bluetooth);
 800265c:	2003      	movs	r0, #3
 800265e:	f7fd fee3 	bl	8000428 <ah_menu>
                    ah_draw_cursor(1);
 8002662:	2001      	movs	r0, #1
 8002664:	f7fd fecc 	bl	8000400 <ah_draw_cursor>
                    st7565_write_buffer(LCD_Buffer);
 8002668:	4bbb      	ldr	r3, [pc, #748]	; (8002958 <fsm_handle_event+0xa6c>)
 800266a:	0018      	movs	r0, r3
 800266c:	f7fe f9d8 	bl	8000a20 <st7565_write_buffer>
                    state = MENU_BT_PAIR;  
 8002670:	4bba      	ldr	r3, [pc, #744]	; (800295c <fsm_handle_event+0xa70>)
 8002672:	220c      	movs	r2, #12
 8002674:	701a      	strb	r2, [r3, #0]
                    break;
 8002676:	e016      	b.n	80026a6 <fsm_handle_event+0x7ba>
                
                case EV_BUTTON_DN:
                	st7565_clear_buffer(LCD_Buffer);
 8002678:	4bb7      	ldr	r3, [pc, #732]	; (8002958 <fsm_handle_event+0xa6c>)
 800267a:	0018      	movs	r0, r3
 800267c:	f7fe fb38 	bl	8000cf0 <st7565_clear_buffer>
                    ah_menu(bluetooth);
 8002680:	2003      	movs	r0, #3
 8002682:	f7fd fed1 	bl	8000428 <ah_menu>
                    ah_draw_cursor(3);
 8002686:	2003      	movs	r0, #3
 8002688:	f7fd feba 	bl	8000400 <ah_draw_cursor>
                    st7565_write_buffer(LCD_Buffer);
 800268c:	4bb2      	ldr	r3, [pc, #712]	; (8002958 <fsm_handle_event+0xa6c>)
 800268e:	0018      	movs	r0, r3
 8002690:	f7fe f9c6 	bl	8000a20 <st7565_write_buffer>
                    state = MENU_BT_RETURN;  
 8002694:	4bb1      	ldr	r3, [pc, #708]	; (800295c <fsm_handle_event+0xa70>)
 8002696:	220e      	movs	r2, #14
 8002698:	701a      	strb	r2, [r3, #0]
                    break;
 800269a:	e004      	b.n	80026a6 <fsm_handle_event+0x7ba>
                
                default:  
                    state = MENU_BT_SETTINGS;
 800269c:	4baf      	ldr	r3, [pc, #700]	; (800295c <fsm_handle_event+0xa70>)
 800269e:	220d      	movs	r2, #13
 80026a0:	701a      	strb	r2, [r3, #0]
            }
            break;
 80026a2:	f001 fb94 	bl	8003dce <fsm_handle_event+0x1ee2>
 80026a6:	f001 fb92 	bl	8003dce <fsm_handle_event+0x1ee2>
       
        case MENU_BT_RETURN:
            switch (event) {
 80026aa:	1dfb      	adds	r3, r7, #7
 80026ac:	781b      	ldrb	r3, [r3, #0]
 80026ae:	2b02      	cmp	r3, #2
 80026b0:	d028      	beq.n	8002704 <fsm_handle_event+0x818>
 80026b2:	2b05      	cmp	r3, #5
 80026b4:	d002      	beq.n	80026bc <fsm_handle_event+0x7d0>
 80026b6:	2b01      	cmp	r3, #1
 80026b8:	d012      	beq.n	80026e0 <fsm_handle_event+0x7f4>
 80026ba:	e035      	b.n	8002728 <fsm_handle_event+0x83c>
                case EV_BUTTON_SL:
                	st7565_clear_buffer(LCD_Buffer);
 80026bc:	4ba6      	ldr	r3, [pc, #664]	; (8002958 <fsm_handle_event+0xa6c>)
 80026be:	0018      	movs	r0, r3
 80026c0:	f7fe fb16 	bl	8000cf0 <st7565_clear_buffer>
                    ah_menu(main_m);
 80026c4:	2000      	movs	r0, #0
 80026c6:	f7fd feaf 	bl	8000428 <ah_menu>
                    ah_draw_cursor(1);
 80026ca:	2001      	movs	r0, #1
 80026cc:	f7fd fe98 	bl	8000400 <ah_draw_cursor>
                    st7565_write_buffer(LCD_Buffer);
 80026d0:	4ba1      	ldr	r3, [pc, #644]	; (8002958 <fsm_handle_event+0xa6c>)
 80026d2:	0018      	movs	r0, r3
 80026d4:	f7fe f9a4 	bl	8000a20 <st7565_write_buffer>
                    state = MENU_MAIN_CLOCK;
 80026d8:	4ba0      	ldr	r3, [pc, #640]	; (800295c <fsm_handle_event+0xa70>)
 80026da:	2201      	movs	r2, #1
 80026dc:	701a      	strb	r2, [r3, #0]
                    break;
 80026de:	e028      	b.n	8002732 <fsm_handle_event+0x846>
                
                case EV_BUTTON_UP:
                	st7565_clear_buffer(LCD_Buffer);
 80026e0:	4b9d      	ldr	r3, [pc, #628]	; (8002958 <fsm_handle_event+0xa6c>)
 80026e2:	0018      	movs	r0, r3
 80026e4:	f7fe fb04 	bl	8000cf0 <st7565_clear_buffer>
                    ah_menu(bluetooth);
 80026e8:	2003      	movs	r0, #3
 80026ea:	f7fd fe9d 	bl	8000428 <ah_menu>
                    ah_draw_cursor(2);
 80026ee:	2002      	movs	r0, #2
 80026f0:	f7fd fe86 	bl	8000400 <ah_draw_cursor>
                    st7565_write_buffer(LCD_Buffer);
 80026f4:	4b98      	ldr	r3, [pc, #608]	; (8002958 <fsm_handle_event+0xa6c>)
 80026f6:	0018      	movs	r0, r3
 80026f8:	f7fe f992 	bl	8000a20 <st7565_write_buffer>
                    state = MENU_BT_SETTINGS;  
 80026fc:	4b97      	ldr	r3, [pc, #604]	; (800295c <fsm_handle_event+0xa70>)
 80026fe:	220d      	movs	r2, #13
 8002700:	701a      	strb	r2, [r3, #0]
                    break;
 8002702:	e016      	b.n	8002732 <fsm_handle_event+0x846>
                
                case EV_BUTTON_DN:
                	st7565_clear_buffer(LCD_Buffer);
 8002704:	4b94      	ldr	r3, [pc, #592]	; (8002958 <fsm_handle_event+0xa6c>)
 8002706:	0018      	movs	r0, r3
 8002708:	f7fe faf2 	bl	8000cf0 <st7565_clear_buffer>
                    ah_menu(bluetooth);
 800270c:	2003      	movs	r0, #3
 800270e:	f7fd fe8b 	bl	8000428 <ah_menu>
                    ah_draw_cursor(1);
 8002712:	2001      	movs	r0, #1
 8002714:	f7fd fe74 	bl	8000400 <ah_draw_cursor>
                    st7565_write_buffer(LCD_Buffer);
 8002718:	4b8f      	ldr	r3, [pc, #572]	; (8002958 <fsm_handle_event+0xa6c>)
 800271a:	0018      	movs	r0, r3
 800271c:	f7fe f980 	bl	8000a20 <st7565_write_buffer>
                    state = MENU_BT_PAIR;  
 8002720:	4b8e      	ldr	r3, [pc, #568]	; (800295c <fsm_handle_event+0xa70>)
 8002722:	220c      	movs	r2, #12
 8002724:	701a      	strb	r2, [r3, #0]
                    break;
 8002726:	e004      	b.n	8002732 <fsm_handle_event+0x846>
                
                default:  
                    state = MENU_BT_RETURN;
 8002728:	4b8c      	ldr	r3, [pc, #560]	; (800295c <fsm_handle_event+0xa70>)
 800272a:	220e      	movs	r2, #14
 800272c:	701a      	strb	r2, [r3, #0]
            }
            break;
 800272e:	f001 fb4e 	bl	8003dce <fsm_handle_event+0x1ee2>
 8002732:	f001 fb4c 	bl	8003dce <fsm_handle_event+0x1ee2>
        
        case MENU_MUSIC_PLAYER:
            switch (event) {
 8002736:	1dfb      	adds	r3, r7, #7
 8002738:	781b      	ldrb	r3, [r3, #0]
 800273a:	2b02      	cmp	r3, #2
 800273c:	d01a      	beq.n	8002774 <fsm_handle_event+0x888>
 800273e:	2b05      	cmp	r3, #5
 8002740:	d002      	beq.n	8002748 <fsm_handle_event+0x85c>
 8002742:	2b01      	cmp	r3, #1
 8002744:	d004      	beq.n	8002750 <fsm_handle_event+0x864>
 8002746:	e027      	b.n	8002798 <fsm_handle_event+0x8ac>
                case EV_BUTTON_SL:         
                    state = MENU_MUSIC_PLAYER;          // To be continued ********************************************************
 8002748:	4b84      	ldr	r3, [pc, #528]	; (800295c <fsm_handle_event+0xa70>)
 800274a:	2210      	movs	r2, #16
 800274c:	701a      	strb	r2, [r3, #0]
                    break;
 800274e:	e028      	b.n	80027a2 <fsm_handle_event+0x8b6>
                
                case EV_BUTTON_UP:
                	st7565_clear_buffer(LCD_Buffer);
 8002750:	4b81      	ldr	r3, [pc, #516]	; (8002958 <fsm_handle_event+0xa6c>)
 8002752:	0018      	movs	r0, r3
 8002754:	f7fe facc 	bl	8000cf0 <st7565_clear_buffer>
                    ah_menu(music);
 8002758:	2004      	movs	r0, #4
 800275a:	f7fd fe65 	bl	8000428 <ah_menu>
                    ah_draw_cursor(3);
 800275e:	2003      	movs	r0, #3
 8002760:	f7fd fe4e 	bl	8000400 <ah_draw_cursor>
                    st7565_write_buffer(LCD_Buffer);
 8002764:	4b7c      	ldr	r3, [pc, #496]	; (8002958 <fsm_handle_event+0xa6c>)
 8002766:	0018      	movs	r0, r3
 8002768:	f7fe f95a 	bl	8000a20 <st7565_write_buffer>
                    state = MENU_MUSIC_RETURN;  
 800276c:	4b7b      	ldr	r3, [pc, #492]	; (800295c <fsm_handle_event+0xa70>)
 800276e:	2211      	movs	r2, #17
 8002770:	701a      	strb	r2, [r3, #0]
                    break;
 8002772:	e016      	b.n	80027a2 <fsm_handle_event+0x8b6>
                
                case EV_BUTTON_DN:
                	st7565_clear_buffer(LCD_Buffer);
 8002774:	4b78      	ldr	r3, [pc, #480]	; (8002958 <fsm_handle_event+0xa6c>)
 8002776:	0018      	movs	r0, r3
 8002778:	f7fe faba 	bl	8000cf0 <st7565_clear_buffer>
                    ah_menu(music);
 800277c:	2004      	movs	r0, #4
 800277e:	f7fd fe53 	bl	8000428 <ah_menu>
                    ah_draw_cursor(2);
 8002782:	2002      	movs	r0, #2
 8002784:	f7fd fe3c 	bl	8000400 <ah_draw_cursor>
                    st7565_write_buffer(LCD_Buffer);
 8002788:	4b73      	ldr	r3, [pc, #460]	; (8002958 <fsm_handle_event+0xa6c>)
 800278a:	0018      	movs	r0, r3
 800278c:	f7fe f948 	bl	8000a20 <st7565_write_buffer>
                    state = MENU_MUSIC_VOLUME;  
 8002790:	4b72      	ldr	r3, [pc, #456]	; (800295c <fsm_handle_event+0xa70>)
 8002792:	220f      	movs	r2, #15
 8002794:	701a      	strb	r2, [r3, #0]
                    break;
 8002796:	e004      	b.n	80027a2 <fsm_handle_event+0x8b6>
                
                default:  
                    state = MENU_MUSIC_PLAYER;
 8002798:	4b70      	ldr	r3, [pc, #448]	; (800295c <fsm_handle_event+0xa70>)
 800279a:	2210      	movs	r2, #16
 800279c:	701a      	strb	r2, [r3, #0]
            }
            break;
 800279e:	f001 fb16 	bl	8003dce <fsm_handle_event+0x1ee2>
 80027a2:	f001 fb14 	bl	8003dce <fsm_handle_event+0x1ee2>
       
        case MENU_MUSIC_VOLUME:
            switch (event) {
 80027a6:	1dfb      	adds	r3, r7, #7
 80027a8:	781b      	ldrb	r3, [r3, #0]
 80027aa:	2b02      	cmp	r3, #2
 80027ac:	d01a      	beq.n	80027e4 <fsm_handle_event+0x8f8>
 80027ae:	2b05      	cmp	r3, #5
 80027b0:	d002      	beq.n	80027b8 <fsm_handle_event+0x8cc>
 80027b2:	2b01      	cmp	r3, #1
 80027b4:	d004      	beq.n	80027c0 <fsm_handle_event+0x8d4>
 80027b6:	e027      	b.n	8002808 <fsm_handle_event+0x91c>
                case EV_BUTTON_SL:         
                    state = MENU_MUSIC_VOLUME;          // To be continued ********************************************************
 80027b8:	4b68      	ldr	r3, [pc, #416]	; (800295c <fsm_handle_event+0xa70>)
 80027ba:	220f      	movs	r2, #15
 80027bc:	701a      	strb	r2, [r3, #0]
                    break;
 80027be:	e028      	b.n	8002812 <fsm_handle_event+0x926>
                
                case EV_BUTTON_UP:
                	st7565_clear_buffer(LCD_Buffer);
 80027c0:	4b65      	ldr	r3, [pc, #404]	; (8002958 <fsm_handle_event+0xa6c>)
 80027c2:	0018      	movs	r0, r3
 80027c4:	f7fe fa94 	bl	8000cf0 <st7565_clear_buffer>
                    ah_menu(music);
 80027c8:	2004      	movs	r0, #4
 80027ca:	f7fd fe2d 	bl	8000428 <ah_menu>
                    ah_draw_cursor(1);
 80027ce:	2001      	movs	r0, #1
 80027d0:	f7fd fe16 	bl	8000400 <ah_draw_cursor>
                    st7565_write_buffer(LCD_Buffer);
 80027d4:	4b60      	ldr	r3, [pc, #384]	; (8002958 <fsm_handle_event+0xa6c>)
 80027d6:	0018      	movs	r0, r3
 80027d8:	f7fe f922 	bl	8000a20 <st7565_write_buffer>
                    state = MENU_MUSIC_PLAYER;  
 80027dc:	4b5f      	ldr	r3, [pc, #380]	; (800295c <fsm_handle_event+0xa70>)
 80027de:	2210      	movs	r2, #16
 80027e0:	701a      	strb	r2, [r3, #0]
                    break;
 80027e2:	e016      	b.n	8002812 <fsm_handle_event+0x926>
                
                case EV_BUTTON_DN:
                	st7565_clear_buffer(LCD_Buffer);
 80027e4:	4b5c      	ldr	r3, [pc, #368]	; (8002958 <fsm_handle_event+0xa6c>)
 80027e6:	0018      	movs	r0, r3
 80027e8:	f7fe fa82 	bl	8000cf0 <st7565_clear_buffer>
                    ah_menu(music);
 80027ec:	2004      	movs	r0, #4
 80027ee:	f7fd fe1b 	bl	8000428 <ah_menu>
                    ah_draw_cursor(3);
 80027f2:	2003      	movs	r0, #3
 80027f4:	f7fd fe04 	bl	8000400 <ah_draw_cursor>
                    st7565_write_buffer(LCD_Buffer);
 80027f8:	4b57      	ldr	r3, [pc, #348]	; (8002958 <fsm_handle_event+0xa6c>)
 80027fa:	0018      	movs	r0, r3
 80027fc:	f7fe f910 	bl	8000a20 <st7565_write_buffer>
                    state = MENU_MUSIC_RETURN;  
 8002800:	4b56      	ldr	r3, [pc, #344]	; (800295c <fsm_handle_event+0xa70>)
 8002802:	2211      	movs	r2, #17
 8002804:	701a      	strb	r2, [r3, #0]
                    break;
 8002806:	e004      	b.n	8002812 <fsm_handle_event+0x926>
                
                default:  
                    state = MENU_MUSIC_PLAYER;
 8002808:	4b54      	ldr	r3, [pc, #336]	; (800295c <fsm_handle_event+0xa70>)
 800280a:	2210      	movs	r2, #16
 800280c:	701a      	strb	r2, [r3, #0]
            }
            break;
 800280e:	f001 fade 	bl	8003dce <fsm_handle_event+0x1ee2>
 8002812:	f001 fadc 	bl	8003dce <fsm_handle_event+0x1ee2>
        
        case MENU_MUSIC_RETURN:
            switch (event) {
 8002816:	1dfb      	adds	r3, r7, #7
 8002818:	781b      	ldrb	r3, [r3, #0]
 800281a:	2b02      	cmp	r3, #2
 800281c:	d028      	beq.n	8002870 <fsm_handle_event+0x984>
 800281e:	2b05      	cmp	r3, #5
 8002820:	d002      	beq.n	8002828 <fsm_handle_event+0x93c>
 8002822:	2b01      	cmp	r3, #1
 8002824:	d012      	beq.n	800284c <fsm_handle_event+0x960>
 8002826:	e035      	b.n	8002894 <fsm_handle_event+0x9a8>
                case EV_BUTTON_SL:
                	st7565_clear_buffer(LCD_Buffer);
 8002828:	4b4b      	ldr	r3, [pc, #300]	; (8002958 <fsm_handle_event+0xa6c>)
 800282a:	0018      	movs	r0, r3
 800282c:	f7fe fa60 	bl	8000cf0 <st7565_clear_buffer>
                    ah_menu(main_m);
 8002830:	2000      	movs	r0, #0
 8002832:	f7fd fdf9 	bl	8000428 <ah_menu>
                    ah_draw_cursor(1);
 8002836:	2001      	movs	r0, #1
 8002838:	f7fd fde2 	bl	8000400 <ah_draw_cursor>
                    st7565_write_buffer(LCD_Buffer);
 800283c:	4b46      	ldr	r3, [pc, #280]	; (8002958 <fsm_handle_event+0xa6c>)
 800283e:	0018      	movs	r0, r3
 8002840:	f7fe f8ee 	bl	8000a20 <st7565_write_buffer>
                    state = MENU_MAIN_CLOCK;
 8002844:	4b45      	ldr	r3, [pc, #276]	; (800295c <fsm_handle_event+0xa70>)
 8002846:	2201      	movs	r2, #1
 8002848:	701a      	strb	r2, [r3, #0]
                    break;
 800284a:	e028      	b.n	800289e <fsm_handle_event+0x9b2>
                
                case EV_BUTTON_UP:
                	st7565_clear_buffer(LCD_Buffer);
 800284c:	4b42      	ldr	r3, [pc, #264]	; (8002958 <fsm_handle_event+0xa6c>)
 800284e:	0018      	movs	r0, r3
 8002850:	f7fe fa4e 	bl	8000cf0 <st7565_clear_buffer>
                    ah_menu(music);
 8002854:	2004      	movs	r0, #4
 8002856:	f7fd fde7 	bl	8000428 <ah_menu>
                    ah_draw_cursor(2);
 800285a:	2002      	movs	r0, #2
 800285c:	f7fd fdd0 	bl	8000400 <ah_draw_cursor>
                    st7565_write_buffer(LCD_Buffer);
 8002860:	4b3d      	ldr	r3, [pc, #244]	; (8002958 <fsm_handle_event+0xa6c>)
 8002862:	0018      	movs	r0, r3
 8002864:	f7fe f8dc 	bl	8000a20 <st7565_write_buffer>
                    state = MENU_MUSIC_VOLUME;  
 8002868:	4b3c      	ldr	r3, [pc, #240]	; (800295c <fsm_handle_event+0xa70>)
 800286a:	220f      	movs	r2, #15
 800286c:	701a      	strb	r2, [r3, #0]
                    break;
 800286e:	e016      	b.n	800289e <fsm_handle_event+0x9b2>
                
                case EV_BUTTON_DN:
                	st7565_clear_buffer(LCD_Buffer);
 8002870:	4b39      	ldr	r3, [pc, #228]	; (8002958 <fsm_handle_event+0xa6c>)
 8002872:	0018      	movs	r0, r3
 8002874:	f7fe fa3c 	bl	8000cf0 <st7565_clear_buffer>
                    ah_menu(music);
 8002878:	2004      	movs	r0, #4
 800287a:	f7fd fdd5 	bl	8000428 <ah_menu>
                    ah_draw_cursor(1);
 800287e:	2001      	movs	r0, #1
 8002880:	f7fd fdbe 	bl	8000400 <ah_draw_cursor>
                    st7565_write_buffer(LCD_Buffer);
 8002884:	4b34      	ldr	r3, [pc, #208]	; (8002958 <fsm_handle_event+0xa6c>)
 8002886:	0018      	movs	r0, r3
 8002888:	f7fe f8ca 	bl	8000a20 <st7565_write_buffer>
                    state = MENU_MUSIC_PLAYER;  
 800288c:	4b33      	ldr	r3, [pc, #204]	; (800295c <fsm_handle_event+0xa70>)
 800288e:	2210      	movs	r2, #16
 8002890:	701a      	strb	r2, [r3, #0]
                    break;
 8002892:	e004      	b.n	800289e <fsm_handle_event+0x9b2>
                
                default:  
                    state = MENU_MUSIC_PLAYER;
 8002894:	4b31      	ldr	r3, [pc, #196]	; (800295c <fsm_handle_event+0xa70>)
 8002896:	2210      	movs	r2, #16
 8002898:	701a      	strb	r2, [r3, #0]
            }
            break;
 800289a:	f001 fa98 	bl	8003dce <fsm_handle_event+0x1ee2>
 800289e:	f001 fa96 	bl	8003dce <fsm_handle_event+0x1ee2>
//=======================================================================================================================
// Menu - Moodlight - Custom Colors (Set individual values for RGBW)
//=======================================================================================================================

        case MENU_CUSTOM_WHITE:
            switch (event) {
 80028a2:	1dfb      	adds	r3, r7, #7
 80028a4:	781b      	ldrb	r3, [r3, #0]
 80028a6:	2b02      	cmp	r3, #2
 80028a8:	d100      	bne.n	80028ac <fsm_handle_event+0x9c0>
 80028aa:	e07d      	b.n	80029a8 <fsm_handle_event+0xabc>
 80028ac:	dc02      	bgt.n	80028b4 <fsm_handle_event+0x9c8>
 80028ae:	2b01      	cmp	r3, #1
 80028b0:	d05e      	beq.n	8002970 <fsm_handle_event+0xa84>
 80028b2:	e095      	b.n	80029e0 <fsm_handle_event+0xaf4>
 80028b4:	2b03      	cmp	r3, #3
 80028b6:	d002      	beq.n	80028be <fsm_handle_event+0x9d2>
 80028b8:	2b04      	cmp	r3, #4
 80028ba:	d026      	beq.n	800290a <fsm_handle_event+0xa1e>
 80028bc:	e090      	b.n	80029e0 <fsm_handle_event+0xaf4>
                case EV_BUTTON_LT:
                	st7565_clear_buffer(LCD_Buffer);
 80028be:	4b26      	ldr	r3, [pc, #152]	; (8002958 <fsm_handle_event+0xa6c>)
 80028c0:	0018      	movs	r0, r3
 80028c2:	f7fe fa15 	bl	8000cf0 <st7565_clear_buffer>
                	if (led_intens_w > 0) {
 80028c6:	4b26      	ldr	r3, [pc, #152]	; (8002960 <fsm_handle_event+0xa74>)
 80028c8:	781b      	ldrb	r3, [r3, #0]
 80028ca:	2b00      	cmp	r3, #0
 80028cc:	d005      	beq.n	80028da <fsm_handle_event+0x9ee>
                		led_intens_w -= 5;
 80028ce:	4b24      	ldr	r3, [pc, #144]	; (8002960 <fsm_handle_event+0xa74>)
 80028d0:	781b      	ldrb	r3, [r3, #0]
 80028d2:	3b05      	subs	r3, #5
 80028d4:	b2da      	uxtb	r2, r3
 80028d6:	4b22      	ldr	r3, [pc, #136]	; (8002960 <fsm_handle_event+0xa74>)
 80028d8:	701a      	strb	r2, [r3, #0]
                	}
                	st7565_drawmenu_custom(LCD_Buffer, led_intens_w, led_intens_r, led_intens_g, led_intens_b);
 80028da:	4b21      	ldr	r3, [pc, #132]	; (8002960 <fsm_handle_event+0xa74>)
 80028dc:	7819      	ldrb	r1, [r3, #0]
 80028de:	4b21      	ldr	r3, [pc, #132]	; (8002964 <fsm_handle_event+0xa78>)
 80028e0:	781a      	ldrb	r2, [r3, #0]
 80028e2:	4b21      	ldr	r3, [pc, #132]	; (8002968 <fsm_handle_event+0xa7c>)
 80028e4:	781c      	ldrb	r4, [r3, #0]
 80028e6:	4b21      	ldr	r3, [pc, #132]	; (800296c <fsm_handle_event+0xa80>)
 80028e8:	781b      	ldrb	r3, [r3, #0]
 80028ea:	481b      	ldr	r0, [pc, #108]	; (8002958 <fsm_handle_event+0xa6c>)
 80028ec:	9300      	str	r3, [sp, #0]
 80028ee:	0023      	movs	r3, r4
 80028f0:	f7fe ffbe 	bl	8001870 <st7565_drawmenu_custom>
                    ah_draw_cursor(1);
 80028f4:	2001      	movs	r0, #1
 80028f6:	f7fd fd83 	bl	8000400 <ah_draw_cursor>
                    st7565_write_buffer(LCD_Buffer);
 80028fa:	4b17      	ldr	r3, [pc, #92]	; (8002958 <fsm_handle_event+0xa6c>)
 80028fc:	0018      	movs	r0, r3
 80028fe:	f7fe f88f 	bl	8000a20 <st7565_write_buffer>
                    state = MENU_CUSTOM_WHITE ;
 8002902:	4b16      	ldr	r3, [pc, #88]	; (800295c <fsm_handle_event+0xa70>)
 8002904:	2212      	movs	r2, #18
 8002906:	701a      	strb	r2, [r3, #0]
                    break;
 8002908:	e06f      	b.n	80029ea <fsm_handle_event+0xafe>

                case EV_BUTTON_RT:
                	st7565_clear_buffer(LCD_Buffer);
 800290a:	4b13      	ldr	r3, [pc, #76]	; (8002958 <fsm_handle_event+0xa6c>)
 800290c:	0018      	movs	r0, r3
 800290e:	f7fe f9ef 	bl	8000cf0 <st7565_clear_buffer>
                	if (led_intens_w < 100) {
 8002912:	4b13      	ldr	r3, [pc, #76]	; (8002960 <fsm_handle_event+0xa74>)
 8002914:	781b      	ldrb	r3, [r3, #0]
 8002916:	2b63      	cmp	r3, #99	; 0x63
 8002918:	d805      	bhi.n	8002926 <fsm_handle_event+0xa3a>
                		led_intens_w += 5;
 800291a:	4b11      	ldr	r3, [pc, #68]	; (8002960 <fsm_handle_event+0xa74>)
 800291c:	781b      	ldrb	r3, [r3, #0]
 800291e:	3305      	adds	r3, #5
 8002920:	b2da      	uxtb	r2, r3
 8002922:	4b0f      	ldr	r3, [pc, #60]	; (8002960 <fsm_handle_event+0xa74>)
 8002924:	701a      	strb	r2, [r3, #0]
                	}
                	st7565_drawmenu_custom(LCD_Buffer, led_intens_w, led_intens_r, led_intens_g, led_intens_b);
 8002926:	4b0e      	ldr	r3, [pc, #56]	; (8002960 <fsm_handle_event+0xa74>)
 8002928:	7819      	ldrb	r1, [r3, #0]
 800292a:	4b0e      	ldr	r3, [pc, #56]	; (8002964 <fsm_handle_event+0xa78>)
 800292c:	781a      	ldrb	r2, [r3, #0]
 800292e:	4b0e      	ldr	r3, [pc, #56]	; (8002968 <fsm_handle_event+0xa7c>)
 8002930:	781c      	ldrb	r4, [r3, #0]
 8002932:	4b0e      	ldr	r3, [pc, #56]	; (800296c <fsm_handle_event+0xa80>)
 8002934:	781b      	ldrb	r3, [r3, #0]
 8002936:	4808      	ldr	r0, [pc, #32]	; (8002958 <fsm_handle_event+0xa6c>)
 8002938:	9300      	str	r3, [sp, #0]
 800293a:	0023      	movs	r3, r4
 800293c:	f7fe ff98 	bl	8001870 <st7565_drawmenu_custom>
                    ah_draw_cursor(1);
 8002940:	2001      	movs	r0, #1
 8002942:	f7fd fd5d 	bl	8000400 <ah_draw_cursor>
                    st7565_write_buffer(LCD_Buffer);
 8002946:	4b04      	ldr	r3, [pc, #16]	; (8002958 <fsm_handle_event+0xa6c>)
 8002948:	0018      	movs	r0, r3
 800294a:	f7fe f869 	bl	8000a20 <st7565_write_buffer>
                    state = MENU_CUSTOM_WHITE;
 800294e:	4b03      	ldr	r3, [pc, #12]	; (800295c <fsm_handle_event+0xa70>)
 8002950:	2212      	movs	r2, #18
 8002952:	701a      	strb	r2, [r3, #0]
                    break;
 8002954:	e049      	b.n	80029ea <fsm_handle_event+0xafe>
 8002956:	46c0      	nop			; (mov r8, r8)
 8002958:	200000d8 	.word	0x200000d8
 800295c:	20000040 	.word	0x20000040
 8002960:	2000000c 	.word	0x2000000c
 8002964:	2000000d 	.word	0x2000000d
 8002968:	2000000e 	.word	0x2000000e
 800296c:	2000000f 	.word	0x2000000f

                case EV_BUTTON_UP:
                	st7565_clear_buffer(LCD_Buffer);
 8002970:	4bd2      	ldr	r3, [pc, #840]	; (8002cbc <fsm_handle_event+0xdd0>)
 8002972:	0018      	movs	r0, r3
 8002974:	f7fe f9bc 	bl	8000cf0 <st7565_clear_buffer>
                	st7565_drawmenu_custom(LCD_Buffer, led_intens_w, led_intens_r, led_intens_g, led_intens_b);
 8002978:	4bd1      	ldr	r3, [pc, #836]	; (8002cc0 <fsm_handle_event+0xdd4>)
 800297a:	7819      	ldrb	r1, [r3, #0]
 800297c:	4bd1      	ldr	r3, [pc, #836]	; (8002cc4 <fsm_handle_event+0xdd8>)
 800297e:	781a      	ldrb	r2, [r3, #0]
 8002980:	4bd1      	ldr	r3, [pc, #836]	; (8002cc8 <fsm_handle_event+0xddc>)
 8002982:	781c      	ldrb	r4, [r3, #0]
 8002984:	4bd1      	ldr	r3, [pc, #836]	; (8002ccc <fsm_handle_event+0xde0>)
 8002986:	781b      	ldrb	r3, [r3, #0]
 8002988:	48cc      	ldr	r0, [pc, #816]	; (8002cbc <fsm_handle_event+0xdd0>)
 800298a:	9300      	str	r3, [sp, #0]
 800298c:	0023      	movs	r3, r4
 800298e:	f7fe ff6f 	bl	8001870 <st7565_drawmenu_custom>
                    ah_draw_cursor(5);
 8002992:	2005      	movs	r0, #5
 8002994:	f7fd fd34 	bl	8000400 <ah_draw_cursor>
                    st7565_write_buffer(LCD_Buffer);
 8002998:	4bc8      	ldr	r3, [pc, #800]	; (8002cbc <fsm_handle_event+0xdd0>)
 800299a:	0018      	movs	r0, r3
 800299c:	f7fe f840 	bl	8000a20 <st7565_write_buffer>
                    state = MENU_CUSTOM_RETURN;
 80029a0:	4bcb      	ldr	r3, [pc, #812]	; (8002cd0 <fsm_handle_event+0xde4>)
 80029a2:	2216      	movs	r2, #22
 80029a4:	701a      	strb	r2, [r3, #0]
                    break;
 80029a6:	e020      	b.n	80029ea <fsm_handle_event+0xafe>

                case EV_BUTTON_DN:
                	st7565_clear_buffer(LCD_Buffer);
 80029a8:	4bc4      	ldr	r3, [pc, #784]	; (8002cbc <fsm_handle_event+0xdd0>)
 80029aa:	0018      	movs	r0, r3
 80029ac:	f7fe f9a0 	bl	8000cf0 <st7565_clear_buffer>
                	st7565_drawmenu_custom(LCD_Buffer, led_intens_w, led_intens_r, led_intens_g, led_intens_b);
 80029b0:	4bc3      	ldr	r3, [pc, #780]	; (8002cc0 <fsm_handle_event+0xdd4>)
 80029b2:	7819      	ldrb	r1, [r3, #0]
 80029b4:	4bc3      	ldr	r3, [pc, #780]	; (8002cc4 <fsm_handle_event+0xdd8>)
 80029b6:	781a      	ldrb	r2, [r3, #0]
 80029b8:	4bc3      	ldr	r3, [pc, #780]	; (8002cc8 <fsm_handle_event+0xddc>)
 80029ba:	781c      	ldrb	r4, [r3, #0]
 80029bc:	4bc3      	ldr	r3, [pc, #780]	; (8002ccc <fsm_handle_event+0xde0>)
 80029be:	781b      	ldrb	r3, [r3, #0]
 80029c0:	48be      	ldr	r0, [pc, #760]	; (8002cbc <fsm_handle_event+0xdd0>)
 80029c2:	9300      	str	r3, [sp, #0]
 80029c4:	0023      	movs	r3, r4
 80029c6:	f7fe ff53 	bl	8001870 <st7565_drawmenu_custom>
                    ah_draw_cursor(2);
 80029ca:	2002      	movs	r0, #2
 80029cc:	f7fd fd18 	bl	8000400 <ah_draw_cursor>
                    st7565_write_buffer(LCD_Buffer);
 80029d0:	4bba      	ldr	r3, [pc, #744]	; (8002cbc <fsm_handle_event+0xdd0>)
 80029d2:	0018      	movs	r0, r3
 80029d4:	f7fe f824 	bl	8000a20 <st7565_write_buffer>
                    state = MENU_CUSTOM_RED;
 80029d8:	4bbd      	ldr	r3, [pc, #756]	; (8002cd0 <fsm_handle_event+0xde4>)
 80029da:	2213      	movs	r2, #19
 80029dc:	701a      	strb	r2, [r3, #0]
                    break;
 80029de:	e004      	b.n	80029ea <fsm_handle_event+0xafe>

                default:
                	state = MENU_CUSTOM_WHITE ;
 80029e0:	4bbb      	ldr	r3, [pc, #748]	; (8002cd0 <fsm_handle_event+0xde4>)
 80029e2:	2212      	movs	r2, #18
 80029e4:	701a      	strb	r2, [r3, #0]
                }
            	break;
 80029e6:	f001 f9f2 	bl	8003dce <fsm_handle_event+0x1ee2>
 80029ea:	f001 f9f0 	bl	8003dce <fsm_handle_event+0x1ee2>

            case MENU_CUSTOM_RED:
                switch (event) {
 80029ee:	1dfb      	adds	r3, r7, #7
 80029f0:	781b      	ldrb	r3, [r3, #0]
 80029f2:	2b02      	cmp	r3, #2
 80029f4:	d100      	bne.n	80029f8 <fsm_handle_event+0xb0c>
 80029f6:	e070      	b.n	8002ada <fsm_handle_event+0xbee>
 80029f8:	dc02      	bgt.n	8002a00 <fsm_handle_event+0xb14>
 80029fa:	2b01      	cmp	r3, #1
 80029fc:	d051      	beq.n	8002aa2 <fsm_handle_event+0xbb6>
 80029fe:	e088      	b.n	8002b12 <fsm_handle_event+0xc26>
 8002a00:	2b03      	cmp	r3, #3
 8002a02:	d002      	beq.n	8002a0a <fsm_handle_event+0xb1e>
 8002a04:	2b04      	cmp	r3, #4
 8002a06:	d026      	beq.n	8002a56 <fsm_handle_event+0xb6a>
 8002a08:	e083      	b.n	8002b12 <fsm_handle_event+0xc26>
                    case EV_BUTTON_LT:
                    	st7565_clear_buffer(LCD_Buffer);
 8002a0a:	4bac      	ldr	r3, [pc, #688]	; (8002cbc <fsm_handle_event+0xdd0>)
 8002a0c:	0018      	movs	r0, r3
 8002a0e:	f7fe f96f 	bl	8000cf0 <st7565_clear_buffer>
                    	if (led_intens_r > 0) {
 8002a12:	4bac      	ldr	r3, [pc, #688]	; (8002cc4 <fsm_handle_event+0xdd8>)
 8002a14:	781b      	ldrb	r3, [r3, #0]
 8002a16:	2b00      	cmp	r3, #0
 8002a18:	d005      	beq.n	8002a26 <fsm_handle_event+0xb3a>
                    		led_intens_r -= 5;
 8002a1a:	4baa      	ldr	r3, [pc, #680]	; (8002cc4 <fsm_handle_event+0xdd8>)
 8002a1c:	781b      	ldrb	r3, [r3, #0]
 8002a1e:	3b05      	subs	r3, #5
 8002a20:	b2da      	uxtb	r2, r3
 8002a22:	4ba8      	ldr	r3, [pc, #672]	; (8002cc4 <fsm_handle_event+0xdd8>)
 8002a24:	701a      	strb	r2, [r3, #0]
                    	}
                    	st7565_drawmenu_custom(LCD_Buffer, led_intens_w, led_intens_r, led_intens_g, led_intens_b);
 8002a26:	4ba6      	ldr	r3, [pc, #664]	; (8002cc0 <fsm_handle_event+0xdd4>)
 8002a28:	7819      	ldrb	r1, [r3, #0]
 8002a2a:	4ba6      	ldr	r3, [pc, #664]	; (8002cc4 <fsm_handle_event+0xdd8>)
 8002a2c:	781a      	ldrb	r2, [r3, #0]
 8002a2e:	4ba6      	ldr	r3, [pc, #664]	; (8002cc8 <fsm_handle_event+0xddc>)
 8002a30:	781c      	ldrb	r4, [r3, #0]
 8002a32:	4ba6      	ldr	r3, [pc, #664]	; (8002ccc <fsm_handle_event+0xde0>)
 8002a34:	781b      	ldrb	r3, [r3, #0]
 8002a36:	48a1      	ldr	r0, [pc, #644]	; (8002cbc <fsm_handle_event+0xdd0>)
 8002a38:	9300      	str	r3, [sp, #0]
 8002a3a:	0023      	movs	r3, r4
 8002a3c:	f7fe ff18 	bl	8001870 <st7565_drawmenu_custom>
                        ah_draw_cursor(2);
 8002a40:	2002      	movs	r0, #2
 8002a42:	f7fd fcdd 	bl	8000400 <ah_draw_cursor>
                        st7565_write_buffer(LCD_Buffer);
 8002a46:	4b9d      	ldr	r3, [pc, #628]	; (8002cbc <fsm_handle_event+0xdd0>)
 8002a48:	0018      	movs	r0, r3
 8002a4a:	f7fd ffe9 	bl	8000a20 <st7565_write_buffer>
                        state = MENU_CUSTOM_RED ;
 8002a4e:	4ba0      	ldr	r3, [pc, #640]	; (8002cd0 <fsm_handle_event+0xde4>)
 8002a50:	2213      	movs	r2, #19
 8002a52:	701a      	strb	r2, [r3, #0]
                        break;
 8002a54:	e062      	b.n	8002b1c <fsm_handle_event+0xc30>

                    case EV_BUTTON_RT:
                    	st7565_clear_buffer(LCD_Buffer);
 8002a56:	4b99      	ldr	r3, [pc, #612]	; (8002cbc <fsm_handle_event+0xdd0>)
 8002a58:	0018      	movs	r0, r3
 8002a5a:	f7fe f949 	bl	8000cf0 <st7565_clear_buffer>
                    	if (led_intens_r < 100) {
 8002a5e:	4b99      	ldr	r3, [pc, #612]	; (8002cc4 <fsm_handle_event+0xdd8>)
 8002a60:	781b      	ldrb	r3, [r3, #0]
 8002a62:	2b63      	cmp	r3, #99	; 0x63
 8002a64:	d805      	bhi.n	8002a72 <fsm_handle_event+0xb86>
                    		led_intens_r += 5;
 8002a66:	4b97      	ldr	r3, [pc, #604]	; (8002cc4 <fsm_handle_event+0xdd8>)
 8002a68:	781b      	ldrb	r3, [r3, #0]
 8002a6a:	3305      	adds	r3, #5
 8002a6c:	b2da      	uxtb	r2, r3
 8002a6e:	4b95      	ldr	r3, [pc, #596]	; (8002cc4 <fsm_handle_event+0xdd8>)
 8002a70:	701a      	strb	r2, [r3, #0]
                    	}
                    	st7565_drawmenu_custom(LCD_Buffer, led_intens_w, led_intens_r, led_intens_g, led_intens_b);
 8002a72:	4b93      	ldr	r3, [pc, #588]	; (8002cc0 <fsm_handle_event+0xdd4>)
 8002a74:	7819      	ldrb	r1, [r3, #0]
 8002a76:	4b93      	ldr	r3, [pc, #588]	; (8002cc4 <fsm_handle_event+0xdd8>)
 8002a78:	781a      	ldrb	r2, [r3, #0]
 8002a7a:	4b93      	ldr	r3, [pc, #588]	; (8002cc8 <fsm_handle_event+0xddc>)
 8002a7c:	781c      	ldrb	r4, [r3, #0]
 8002a7e:	4b93      	ldr	r3, [pc, #588]	; (8002ccc <fsm_handle_event+0xde0>)
 8002a80:	781b      	ldrb	r3, [r3, #0]
 8002a82:	488e      	ldr	r0, [pc, #568]	; (8002cbc <fsm_handle_event+0xdd0>)
 8002a84:	9300      	str	r3, [sp, #0]
 8002a86:	0023      	movs	r3, r4
 8002a88:	f7fe fef2 	bl	8001870 <st7565_drawmenu_custom>
                        ah_draw_cursor(2);
 8002a8c:	2002      	movs	r0, #2
 8002a8e:	f7fd fcb7 	bl	8000400 <ah_draw_cursor>
                        st7565_write_buffer(LCD_Buffer);
 8002a92:	4b8a      	ldr	r3, [pc, #552]	; (8002cbc <fsm_handle_event+0xdd0>)
 8002a94:	0018      	movs	r0, r3
 8002a96:	f7fd ffc3 	bl	8000a20 <st7565_write_buffer>
                        state = MENU_CUSTOM_RED;
 8002a9a:	4b8d      	ldr	r3, [pc, #564]	; (8002cd0 <fsm_handle_event+0xde4>)
 8002a9c:	2213      	movs	r2, #19
 8002a9e:	701a      	strb	r2, [r3, #0]
                        break;
 8002aa0:	e03c      	b.n	8002b1c <fsm_handle_event+0xc30>

                    case EV_BUTTON_UP:
                    	st7565_clear_buffer(LCD_Buffer);
 8002aa2:	4b86      	ldr	r3, [pc, #536]	; (8002cbc <fsm_handle_event+0xdd0>)
 8002aa4:	0018      	movs	r0, r3
 8002aa6:	f7fe f923 	bl	8000cf0 <st7565_clear_buffer>
                    	st7565_drawmenu_custom(LCD_Buffer, led_intens_w, led_intens_r, led_intens_g, led_intens_b);
 8002aaa:	4b85      	ldr	r3, [pc, #532]	; (8002cc0 <fsm_handle_event+0xdd4>)
 8002aac:	7819      	ldrb	r1, [r3, #0]
 8002aae:	4b85      	ldr	r3, [pc, #532]	; (8002cc4 <fsm_handle_event+0xdd8>)
 8002ab0:	781a      	ldrb	r2, [r3, #0]
 8002ab2:	4b85      	ldr	r3, [pc, #532]	; (8002cc8 <fsm_handle_event+0xddc>)
 8002ab4:	781c      	ldrb	r4, [r3, #0]
 8002ab6:	4b85      	ldr	r3, [pc, #532]	; (8002ccc <fsm_handle_event+0xde0>)
 8002ab8:	781b      	ldrb	r3, [r3, #0]
 8002aba:	4880      	ldr	r0, [pc, #512]	; (8002cbc <fsm_handle_event+0xdd0>)
 8002abc:	9300      	str	r3, [sp, #0]
 8002abe:	0023      	movs	r3, r4
 8002ac0:	f7fe fed6 	bl	8001870 <st7565_drawmenu_custom>
                        ah_draw_cursor(1);
 8002ac4:	2001      	movs	r0, #1
 8002ac6:	f7fd fc9b 	bl	8000400 <ah_draw_cursor>
                        st7565_write_buffer(LCD_Buffer);
 8002aca:	4b7c      	ldr	r3, [pc, #496]	; (8002cbc <fsm_handle_event+0xdd0>)
 8002acc:	0018      	movs	r0, r3
 8002ace:	f7fd ffa7 	bl	8000a20 <st7565_write_buffer>
                        state = MENU_CUSTOM_WHITE;
 8002ad2:	4b7f      	ldr	r3, [pc, #508]	; (8002cd0 <fsm_handle_event+0xde4>)
 8002ad4:	2212      	movs	r2, #18
 8002ad6:	701a      	strb	r2, [r3, #0]
                        break;
 8002ad8:	e020      	b.n	8002b1c <fsm_handle_event+0xc30>

                    case EV_BUTTON_DN:
                    	st7565_clear_buffer(LCD_Buffer);
 8002ada:	4b78      	ldr	r3, [pc, #480]	; (8002cbc <fsm_handle_event+0xdd0>)
 8002adc:	0018      	movs	r0, r3
 8002ade:	f7fe f907 	bl	8000cf0 <st7565_clear_buffer>
                    	st7565_drawmenu_custom(LCD_Buffer, led_intens_w, led_intens_r, led_intens_g, led_intens_b);
 8002ae2:	4b77      	ldr	r3, [pc, #476]	; (8002cc0 <fsm_handle_event+0xdd4>)
 8002ae4:	7819      	ldrb	r1, [r3, #0]
 8002ae6:	4b77      	ldr	r3, [pc, #476]	; (8002cc4 <fsm_handle_event+0xdd8>)
 8002ae8:	781a      	ldrb	r2, [r3, #0]
 8002aea:	4b77      	ldr	r3, [pc, #476]	; (8002cc8 <fsm_handle_event+0xddc>)
 8002aec:	781c      	ldrb	r4, [r3, #0]
 8002aee:	4b77      	ldr	r3, [pc, #476]	; (8002ccc <fsm_handle_event+0xde0>)
 8002af0:	781b      	ldrb	r3, [r3, #0]
 8002af2:	4872      	ldr	r0, [pc, #456]	; (8002cbc <fsm_handle_event+0xdd0>)
 8002af4:	9300      	str	r3, [sp, #0]
 8002af6:	0023      	movs	r3, r4
 8002af8:	f7fe feba 	bl	8001870 <st7565_drawmenu_custom>
                        ah_draw_cursor(3);
 8002afc:	2003      	movs	r0, #3
 8002afe:	f7fd fc7f 	bl	8000400 <ah_draw_cursor>
                        st7565_write_buffer(LCD_Buffer);
 8002b02:	4b6e      	ldr	r3, [pc, #440]	; (8002cbc <fsm_handle_event+0xdd0>)
 8002b04:	0018      	movs	r0, r3
 8002b06:	f7fd ff8b 	bl	8000a20 <st7565_write_buffer>
                        state = MENU_CUSTOM_GREEN;
 8002b0a:	4b71      	ldr	r3, [pc, #452]	; (8002cd0 <fsm_handle_event+0xde4>)
 8002b0c:	2214      	movs	r2, #20
 8002b0e:	701a      	strb	r2, [r3, #0]
                        break;
 8002b10:	e004      	b.n	8002b1c <fsm_handle_event+0xc30>

                    default:
                    	state = MENU_CUSTOM_RED;
 8002b12:	4b6f      	ldr	r3, [pc, #444]	; (8002cd0 <fsm_handle_event+0xde4>)
 8002b14:	2213      	movs	r2, #19
 8002b16:	701a      	strb	r2, [r3, #0]
                    }
                	break;
 8002b18:	f001 f959 	bl	8003dce <fsm_handle_event+0x1ee2>
 8002b1c:	f001 f957 	bl	8003dce <fsm_handle_event+0x1ee2>

            case MENU_CUSTOM_GREEN:
                switch (event) {
 8002b20:	1dfb      	adds	r3, r7, #7
 8002b22:	781b      	ldrb	r3, [r3, #0]
 8002b24:	2b02      	cmp	r3, #2
 8002b26:	d100      	bne.n	8002b2a <fsm_handle_event+0xc3e>
 8002b28:	e070      	b.n	8002c0c <fsm_handle_event+0xd20>
 8002b2a:	dc02      	bgt.n	8002b32 <fsm_handle_event+0xc46>
 8002b2c:	2b01      	cmp	r3, #1
 8002b2e:	d051      	beq.n	8002bd4 <fsm_handle_event+0xce8>
 8002b30:	e088      	b.n	8002c44 <fsm_handle_event+0xd58>
 8002b32:	2b03      	cmp	r3, #3
 8002b34:	d002      	beq.n	8002b3c <fsm_handle_event+0xc50>
 8002b36:	2b04      	cmp	r3, #4
 8002b38:	d026      	beq.n	8002b88 <fsm_handle_event+0xc9c>
 8002b3a:	e083      	b.n	8002c44 <fsm_handle_event+0xd58>
                    case EV_BUTTON_LT:
                    	st7565_clear_buffer(LCD_Buffer);
 8002b3c:	4b5f      	ldr	r3, [pc, #380]	; (8002cbc <fsm_handle_event+0xdd0>)
 8002b3e:	0018      	movs	r0, r3
 8002b40:	f7fe f8d6 	bl	8000cf0 <st7565_clear_buffer>
                    	if (led_intens_g > 0) {
 8002b44:	4b60      	ldr	r3, [pc, #384]	; (8002cc8 <fsm_handle_event+0xddc>)
 8002b46:	781b      	ldrb	r3, [r3, #0]
 8002b48:	2b00      	cmp	r3, #0
 8002b4a:	d005      	beq.n	8002b58 <fsm_handle_event+0xc6c>
                    		led_intens_g -= 5;
 8002b4c:	4b5e      	ldr	r3, [pc, #376]	; (8002cc8 <fsm_handle_event+0xddc>)
 8002b4e:	781b      	ldrb	r3, [r3, #0]
 8002b50:	3b05      	subs	r3, #5
 8002b52:	b2da      	uxtb	r2, r3
 8002b54:	4b5c      	ldr	r3, [pc, #368]	; (8002cc8 <fsm_handle_event+0xddc>)
 8002b56:	701a      	strb	r2, [r3, #0]
                    	}
                    	st7565_drawmenu_custom(LCD_Buffer, led_intens_w, led_intens_r, led_intens_g, led_intens_b);
 8002b58:	4b59      	ldr	r3, [pc, #356]	; (8002cc0 <fsm_handle_event+0xdd4>)
 8002b5a:	7819      	ldrb	r1, [r3, #0]
 8002b5c:	4b59      	ldr	r3, [pc, #356]	; (8002cc4 <fsm_handle_event+0xdd8>)
 8002b5e:	781a      	ldrb	r2, [r3, #0]
 8002b60:	4b59      	ldr	r3, [pc, #356]	; (8002cc8 <fsm_handle_event+0xddc>)
 8002b62:	781c      	ldrb	r4, [r3, #0]
 8002b64:	4b59      	ldr	r3, [pc, #356]	; (8002ccc <fsm_handle_event+0xde0>)
 8002b66:	781b      	ldrb	r3, [r3, #0]
 8002b68:	4854      	ldr	r0, [pc, #336]	; (8002cbc <fsm_handle_event+0xdd0>)
 8002b6a:	9300      	str	r3, [sp, #0]
 8002b6c:	0023      	movs	r3, r4
 8002b6e:	f7fe fe7f 	bl	8001870 <st7565_drawmenu_custom>
                        ah_draw_cursor(3);
 8002b72:	2003      	movs	r0, #3
 8002b74:	f7fd fc44 	bl	8000400 <ah_draw_cursor>
                        st7565_write_buffer(LCD_Buffer);
 8002b78:	4b50      	ldr	r3, [pc, #320]	; (8002cbc <fsm_handle_event+0xdd0>)
 8002b7a:	0018      	movs	r0, r3
 8002b7c:	f7fd ff50 	bl	8000a20 <st7565_write_buffer>
                        state = MENU_CUSTOM_GREEN;
 8002b80:	4b53      	ldr	r3, [pc, #332]	; (8002cd0 <fsm_handle_event+0xde4>)
 8002b82:	2214      	movs	r2, #20
 8002b84:	701a      	strb	r2, [r3, #0]
                        break;
 8002b86:	e062      	b.n	8002c4e <fsm_handle_event+0xd62>

                    case EV_BUTTON_RT:
                    	st7565_clear_buffer(LCD_Buffer);
 8002b88:	4b4c      	ldr	r3, [pc, #304]	; (8002cbc <fsm_handle_event+0xdd0>)
 8002b8a:	0018      	movs	r0, r3
 8002b8c:	f7fe f8b0 	bl	8000cf0 <st7565_clear_buffer>
                    	if (led_intens_g < 100) {
 8002b90:	4b4d      	ldr	r3, [pc, #308]	; (8002cc8 <fsm_handle_event+0xddc>)
 8002b92:	781b      	ldrb	r3, [r3, #0]
 8002b94:	2b63      	cmp	r3, #99	; 0x63
 8002b96:	d805      	bhi.n	8002ba4 <fsm_handle_event+0xcb8>
                    		led_intens_g += 5;
 8002b98:	4b4b      	ldr	r3, [pc, #300]	; (8002cc8 <fsm_handle_event+0xddc>)
 8002b9a:	781b      	ldrb	r3, [r3, #0]
 8002b9c:	3305      	adds	r3, #5
 8002b9e:	b2da      	uxtb	r2, r3
 8002ba0:	4b49      	ldr	r3, [pc, #292]	; (8002cc8 <fsm_handle_event+0xddc>)
 8002ba2:	701a      	strb	r2, [r3, #0]
                    	}
                    	st7565_drawmenu_custom(LCD_Buffer, led_intens_w, led_intens_r, led_intens_g, led_intens_b);
 8002ba4:	4b46      	ldr	r3, [pc, #280]	; (8002cc0 <fsm_handle_event+0xdd4>)
 8002ba6:	7819      	ldrb	r1, [r3, #0]
 8002ba8:	4b46      	ldr	r3, [pc, #280]	; (8002cc4 <fsm_handle_event+0xdd8>)
 8002baa:	781a      	ldrb	r2, [r3, #0]
 8002bac:	4b46      	ldr	r3, [pc, #280]	; (8002cc8 <fsm_handle_event+0xddc>)
 8002bae:	781c      	ldrb	r4, [r3, #0]
 8002bb0:	4b46      	ldr	r3, [pc, #280]	; (8002ccc <fsm_handle_event+0xde0>)
 8002bb2:	781b      	ldrb	r3, [r3, #0]
 8002bb4:	4841      	ldr	r0, [pc, #260]	; (8002cbc <fsm_handle_event+0xdd0>)
 8002bb6:	9300      	str	r3, [sp, #0]
 8002bb8:	0023      	movs	r3, r4
 8002bba:	f7fe fe59 	bl	8001870 <st7565_drawmenu_custom>
                        ah_draw_cursor(3);
 8002bbe:	2003      	movs	r0, #3
 8002bc0:	f7fd fc1e 	bl	8000400 <ah_draw_cursor>
                        st7565_write_buffer(LCD_Buffer);
 8002bc4:	4b3d      	ldr	r3, [pc, #244]	; (8002cbc <fsm_handle_event+0xdd0>)
 8002bc6:	0018      	movs	r0, r3
 8002bc8:	f7fd ff2a 	bl	8000a20 <st7565_write_buffer>
                        state = MENU_CUSTOM_GREEN;
 8002bcc:	4b40      	ldr	r3, [pc, #256]	; (8002cd0 <fsm_handle_event+0xde4>)
 8002bce:	2214      	movs	r2, #20
 8002bd0:	701a      	strb	r2, [r3, #0]
                        break;
 8002bd2:	e03c      	b.n	8002c4e <fsm_handle_event+0xd62>

                    case EV_BUTTON_UP:
                    	st7565_clear_buffer(LCD_Buffer);
 8002bd4:	4b39      	ldr	r3, [pc, #228]	; (8002cbc <fsm_handle_event+0xdd0>)
 8002bd6:	0018      	movs	r0, r3
 8002bd8:	f7fe f88a 	bl	8000cf0 <st7565_clear_buffer>
                    	st7565_drawmenu_custom(LCD_Buffer, led_intens_w, led_intens_r, led_intens_g, led_intens_b);
 8002bdc:	4b38      	ldr	r3, [pc, #224]	; (8002cc0 <fsm_handle_event+0xdd4>)
 8002bde:	7819      	ldrb	r1, [r3, #0]
 8002be0:	4b38      	ldr	r3, [pc, #224]	; (8002cc4 <fsm_handle_event+0xdd8>)
 8002be2:	781a      	ldrb	r2, [r3, #0]
 8002be4:	4b38      	ldr	r3, [pc, #224]	; (8002cc8 <fsm_handle_event+0xddc>)
 8002be6:	781c      	ldrb	r4, [r3, #0]
 8002be8:	4b38      	ldr	r3, [pc, #224]	; (8002ccc <fsm_handle_event+0xde0>)
 8002bea:	781b      	ldrb	r3, [r3, #0]
 8002bec:	4833      	ldr	r0, [pc, #204]	; (8002cbc <fsm_handle_event+0xdd0>)
 8002bee:	9300      	str	r3, [sp, #0]
 8002bf0:	0023      	movs	r3, r4
 8002bf2:	f7fe fe3d 	bl	8001870 <st7565_drawmenu_custom>
                        ah_draw_cursor(2);
 8002bf6:	2002      	movs	r0, #2
 8002bf8:	f7fd fc02 	bl	8000400 <ah_draw_cursor>
                        st7565_write_buffer(LCD_Buffer);
 8002bfc:	4b2f      	ldr	r3, [pc, #188]	; (8002cbc <fsm_handle_event+0xdd0>)
 8002bfe:	0018      	movs	r0, r3
 8002c00:	f7fd ff0e 	bl	8000a20 <st7565_write_buffer>
                        state = MENU_CUSTOM_RED;
 8002c04:	4b32      	ldr	r3, [pc, #200]	; (8002cd0 <fsm_handle_event+0xde4>)
 8002c06:	2213      	movs	r2, #19
 8002c08:	701a      	strb	r2, [r3, #0]
                        break;
 8002c0a:	e020      	b.n	8002c4e <fsm_handle_event+0xd62>

                    case EV_BUTTON_DN:
                    	st7565_clear_buffer(LCD_Buffer);
 8002c0c:	4b2b      	ldr	r3, [pc, #172]	; (8002cbc <fsm_handle_event+0xdd0>)
 8002c0e:	0018      	movs	r0, r3
 8002c10:	f7fe f86e 	bl	8000cf0 <st7565_clear_buffer>
                    	st7565_drawmenu_custom(LCD_Buffer, led_intens_w, led_intens_r, led_intens_g, led_intens_b);
 8002c14:	4b2a      	ldr	r3, [pc, #168]	; (8002cc0 <fsm_handle_event+0xdd4>)
 8002c16:	7819      	ldrb	r1, [r3, #0]
 8002c18:	4b2a      	ldr	r3, [pc, #168]	; (8002cc4 <fsm_handle_event+0xdd8>)
 8002c1a:	781a      	ldrb	r2, [r3, #0]
 8002c1c:	4b2a      	ldr	r3, [pc, #168]	; (8002cc8 <fsm_handle_event+0xddc>)
 8002c1e:	781c      	ldrb	r4, [r3, #0]
 8002c20:	4b2a      	ldr	r3, [pc, #168]	; (8002ccc <fsm_handle_event+0xde0>)
 8002c22:	781b      	ldrb	r3, [r3, #0]
 8002c24:	4825      	ldr	r0, [pc, #148]	; (8002cbc <fsm_handle_event+0xdd0>)
 8002c26:	9300      	str	r3, [sp, #0]
 8002c28:	0023      	movs	r3, r4
 8002c2a:	f7fe fe21 	bl	8001870 <st7565_drawmenu_custom>
                        ah_draw_cursor(4);
 8002c2e:	2004      	movs	r0, #4
 8002c30:	f7fd fbe6 	bl	8000400 <ah_draw_cursor>
                        st7565_write_buffer(LCD_Buffer);
 8002c34:	4b21      	ldr	r3, [pc, #132]	; (8002cbc <fsm_handle_event+0xdd0>)
 8002c36:	0018      	movs	r0, r3
 8002c38:	f7fd fef2 	bl	8000a20 <st7565_write_buffer>
                        state = MENU_CUSTOM_BLUE;
 8002c3c:	4b24      	ldr	r3, [pc, #144]	; (8002cd0 <fsm_handle_event+0xde4>)
 8002c3e:	2215      	movs	r2, #21
 8002c40:	701a      	strb	r2, [r3, #0]
                        break;
 8002c42:	e004      	b.n	8002c4e <fsm_handle_event+0xd62>

                    default:
                    	state = MENU_CUSTOM_GREEN;
 8002c44:	4b22      	ldr	r3, [pc, #136]	; (8002cd0 <fsm_handle_event+0xde4>)
 8002c46:	2214      	movs	r2, #20
 8002c48:	701a      	strb	r2, [r3, #0]
                    }
                	break;
 8002c4a:	f001 f8c0 	bl	8003dce <fsm_handle_event+0x1ee2>
 8002c4e:	f001 f8be 	bl	8003dce <fsm_handle_event+0x1ee2>

            case MENU_CUSTOM_BLUE:
                switch (event) {
 8002c52:	1dfb      	adds	r3, r7, #7
 8002c54:	781b      	ldrb	r3, [r3, #0]
 8002c56:	2b02      	cmp	r3, #2
 8002c58:	d100      	bne.n	8002c5c <fsm_handle_event+0xd70>
 8002c5a:	e07d      	b.n	8002d58 <fsm_handle_event+0xe6c>
 8002c5c:	dc02      	bgt.n	8002c64 <fsm_handle_event+0xd78>
 8002c5e:	2b01      	cmp	r3, #1
 8002c60:	d05e      	beq.n	8002d20 <fsm_handle_event+0xe34>
 8002c62:	e095      	b.n	8002d90 <fsm_handle_event+0xea4>
 8002c64:	2b03      	cmp	r3, #3
 8002c66:	d002      	beq.n	8002c6e <fsm_handle_event+0xd82>
 8002c68:	2b04      	cmp	r3, #4
 8002c6a:	d033      	beq.n	8002cd4 <fsm_handle_event+0xde8>
 8002c6c:	e090      	b.n	8002d90 <fsm_handle_event+0xea4>
                    case EV_BUTTON_LT:
                    	st7565_clear_buffer(LCD_Buffer);
 8002c6e:	4b13      	ldr	r3, [pc, #76]	; (8002cbc <fsm_handle_event+0xdd0>)
 8002c70:	0018      	movs	r0, r3
 8002c72:	f7fe f83d 	bl	8000cf0 <st7565_clear_buffer>
                    	if (led_intens_b > 0) {
 8002c76:	4b15      	ldr	r3, [pc, #84]	; (8002ccc <fsm_handle_event+0xde0>)
 8002c78:	781b      	ldrb	r3, [r3, #0]
 8002c7a:	2b00      	cmp	r3, #0
 8002c7c:	d005      	beq.n	8002c8a <fsm_handle_event+0xd9e>
                    		led_intens_b -= 5;
 8002c7e:	4b13      	ldr	r3, [pc, #76]	; (8002ccc <fsm_handle_event+0xde0>)
 8002c80:	781b      	ldrb	r3, [r3, #0]
 8002c82:	3b05      	subs	r3, #5
 8002c84:	b2da      	uxtb	r2, r3
 8002c86:	4b11      	ldr	r3, [pc, #68]	; (8002ccc <fsm_handle_event+0xde0>)
 8002c88:	701a      	strb	r2, [r3, #0]
                    	}
                    	st7565_drawmenu_custom(LCD_Buffer, led_intens_w, led_intens_r, led_intens_g, led_intens_b);
 8002c8a:	4b0d      	ldr	r3, [pc, #52]	; (8002cc0 <fsm_handle_event+0xdd4>)
 8002c8c:	7819      	ldrb	r1, [r3, #0]
 8002c8e:	4b0d      	ldr	r3, [pc, #52]	; (8002cc4 <fsm_handle_event+0xdd8>)
 8002c90:	781a      	ldrb	r2, [r3, #0]
 8002c92:	4b0d      	ldr	r3, [pc, #52]	; (8002cc8 <fsm_handle_event+0xddc>)
 8002c94:	781c      	ldrb	r4, [r3, #0]
 8002c96:	4b0d      	ldr	r3, [pc, #52]	; (8002ccc <fsm_handle_event+0xde0>)
 8002c98:	781b      	ldrb	r3, [r3, #0]
 8002c9a:	4808      	ldr	r0, [pc, #32]	; (8002cbc <fsm_handle_event+0xdd0>)
 8002c9c:	9300      	str	r3, [sp, #0]
 8002c9e:	0023      	movs	r3, r4
 8002ca0:	f7fe fde6 	bl	8001870 <st7565_drawmenu_custom>
                        ah_draw_cursor(4);
 8002ca4:	2004      	movs	r0, #4
 8002ca6:	f7fd fbab 	bl	8000400 <ah_draw_cursor>
                        st7565_write_buffer(LCD_Buffer);
 8002caa:	4b04      	ldr	r3, [pc, #16]	; (8002cbc <fsm_handle_event+0xdd0>)
 8002cac:	0018      	movs	r0, r3
 8002cae:	f7fd feb7 	bl	8000a20 <st7565_write_buffer>
                        state = MENU_CUSTOM_BLUE;
 8002cb2:	4b07      	ldr	r3, [pc, #28]	; (8002cd0 <fsm_handle_event+0xde4>)
 8002cb4:	2215      	movs	r2, #21
 8002cb6:	701a      	strb	r2, [r3, #0]
                        break;
 8002cb8:	e06f      	b.n	8002d9a <fsm_handle_event+0xeae>
 8002cba:	46c0      	nop			; (mov r8, r8)
 8002cbc:	200000d8 	.word	0x200000d8
 8002cc0:	2000000c 	.word	0x2000000c
 8002cc4:	2000000d 	.word	0x2000000d
 8002cc8:	2000000e 	.word	0x2000000e
 8002ccc:	2000000f 	.word	0x2000000f
 8002cd0:	20000040 	.word	0x20000040

                    case EV_BUTTON_RT:
                    	st7565_clear_buffer(LCD_Buffer);
 8002cd4:	4bd4      	ldr	r3, [pc, #848]	; (8003028 <fsm_handle_event+0x113c>)
 8002cd6:	0018      	movs	r0, r3
 8002cd8:	f7fe f80a 	bl	8000cf0 <st7565_clear_buffer>
                    	if (led_intens_b < 100) {
 8002cdc:	4bd3      	ldr	r3, [pc, #844]	; (800302c <fsm_handle_event+0x1140>)
 8002cde:	781b      	ldrb	r3, [r3, #0]
 8002ce0:	2b63      	cmp	r3, #99	; 0x63
 8002ce2:	d805      	bhi.n	8002cf0 <fsm_handle_event+0xe04>
                    		led_intens_b += 5;
 8002ce4:	4bd1      	ldr	r3, [pc, #836]	; (800302c <fsm_handle_event+0x1140>)
 8002ce6:	781b      	ldrb	r3, [r3, #0]
 8002ce8:	3305      	adds	r3, #5
 8002cea:	b2da      	uxtb	r2, r3
 8002cec:	4bcf      	ldr	r3, [pc, #828]	; (800302c <fsm_handle_event+0x1140>)
 8002cee:	701a      	strb	r2, [r3, #0]
                    	}
                    	st7565_drawmenu_custom(LCD_Buffer, led_intens_w, led_intens_r, led_intens_g, led_intens_b);
 8002cf0:	4bcf      	ldr	r3, [pc, #828]	; (8003030 <fsm_handle_event+0x1144>)
 8002cf2:	7819      	ldrb	r1, [r3, #0]
 8002cf4:	4bcf      	ldr	r3, [pc, #828]	; (8003034 <fsm_handle_event+0x1148>)
 8002cf6:	781a      	ldrb	r2, [r3, #0]
 8002cf8:	4bcf      	ldr	r3, [pc, #828]	; (8003038 <fsm_handle_event+0x114c>)
 8002cfa:	781c      	ldrb	r4, [r3, #0]
 8002cfc:	4bcb      	ldr	r3, [pc, #812]	; (800302c <fsm_handle_event+0x1140>)
 8002cfe:	781b      	ldrb	r3, [r3, #0]
 8002d00:	48c9      	ldr	r0, [pc, #804]	; (8003028 <fsm_handle_event+0x113c>)
 8002d02:	9300      	str	r3, [sp, #0]
 8002d04:	0023      	movs	r3, r4
 8002d06:	f7fe fdb3 	bl	8001870 <st7565_drawmenu_custom>
                        ah_draw_cursor(4);
 8002d0a:	2004      	movs	r0, #4
 8002d0c:	f7fd fb78 	bl	8000400 <ah_draw_cursor>
                        st7565_write_buffer(LCD_Buffer);
 8002d10:	4bc5      	ldr	r3, [pc, #788]	; (8003028 <fsm_handle_event+0x113c>)
 8002d12:	0018      	movs	r0, r3
 8002d14:	f7fd fe84 	bl	8000a20 <st7565_write_buffer>
                        state = MENU_CUSTOM_BLUE;
 8002d18:	4bc8      	ldr	r3, [pc, #800]	; (800303c <fsm_handle_event+0x1150>)
 8002d1a:	2215      	movs	r2, #21
 8002d1c:	701a      	strb	r2, [r3, #0]
                        break;
 8002d1e:	e03c      	b.n	8002d9a <fsm_handle_event+0xeae>

                    case EV_BUTTON_UP:
                    	st7565_clear_buffer(LCD_Buffer);
 8002d20:	4bc1      	ldr	r3, [pc, #772]	; (8003028 <fsm_handle_event+0x113c>)
 8002d22:	0018      	movs	r0, r3
 8002d24:	f7fd ffe4 	bl	8000cf0 <st7565_clear_buffer>
                    	st7565_drawmenu_custom(LCD_Buffer, led_intens_w, led_intens_r, led_intens_g, led_intens_b);
 8002d28:	4bc1      	ldr	r3, [pc, #772]	; (8003030 <fsm_handle_event+0x1144>)
 8002d2a:	7819      	ldrb	r1, [r3, #0]
 8002d2c:	4bc1      	ldr	r3, [pc, #772]	; (8003034 <fsm_handle_event+0x1148>)
 8002d2e:	781a      	ldrb	r2, [r3, #0]
 8002d30:	4bc1      	ldr	r3, [pc, #772]	; (8003038 <fsm_handle_event+0x114c>)
 8002d32:	781c      	ldrb	r4, [r3, #0]
 8002d34:	4bbd      	ldr	r3, [pc, #756]	; (800302c <fsm_handle_event+0x1140>)
 8002d36:	781b      	ldrb	r3, [r3, #0]
 8002d38:	48bb      	ldr	r0, [pc, #748]	; (8003028 <fsm_handle_event+0x113c>)
 8002d3a:	9300      	str	r3, [sp, #0]
 8002d3c:	0023      	movs	r3, r4
 8002d3e:	f7fe fd97 	bl	8001870 <st7565_drawmenu_custom>
                        ah_draw_cursor(3);
 8002d42:	2003      	movs	r0, #3
 8002d44:	f7fd fb5c 	bl	8000400 <ah_draw_cursor>
                        st7565_write_buffer(LCD_Buffer);
 8002d48:	4bb7      	ldr	r3, [pc, #732]	; (8003028 <fsm_handle_event+0x113c>)
 8002d4a:	0018      	movs	r0, r3
 8002d4c:	f7fd fe68 	bl	8000a20 <st7565_write_buffer>
                        state = MENU_CUSTOM_GREEN;
 8002d50:	4bba      	ldr	r3, [pc, #744]	; (800303c <fsm_handle_event+0x1150>)
 8002d52:	2214      	movs	r2, #20
 8002d54:	701a      	strb	r2, [r3, #0]
                        break;
 8002d56:	e020      	b.n	8002d9a <fsm_handle_event+0xeae>

                    case EV_BUTTON_DN:
                    	st7565_clear_buffer(LCD_Buffer);
 8002d58:	4bb3      	ldr	r3, [pc, #716]	; (8003028 <fsm_handle_event+0x113c>)
 8002d5a:	0018      	movs	r0, r3
 8002d5c:	f7fd ffc8 	bl	8000cf0 <st7565_clear_buffer>
                    	st7565_drawmenu_custom(LCD_Buffer, led_intens_w, led_intens_r, led_intens_g, led_intens_b);
 8002d60:	4bb3      	ldr	r3, [pc, #716]	; (8003030 <fsm_handle_event+0x1144>)
 8002d62:	7819      	ldrb	r1, [r3, #0]
 8002d64:	4bb3      	ldr	r3, [pc, #716]	; (8003034 <fsm_handle_event+0x1148>)
 8002d66:	781a      	ldrb	r2, [r3, #0]
 8002d68:	4bb3      	ldr	r3, [pc, #716]	; (8003038 <fsm_handle_event+0x114c>)
 8002d6a:	781c      	ldrb	r4, [r3, #0]
 8002d6c:	4baf      	ldr	r3, [pc, #700]	; (800302c <fsm_handle_event+0x1140>)
 8002d6e:	781b      	ldrb	r3, [r3, #0]
 8002d70:	48ad      	ldr	r0, [pc, #692]	; (8003028 <fsm_handle_event+0x113c>)
 8002d72:	9300      	str	r3, [sp, #0]
 8002d74:	0023      	movs	r3, r4
 8002d76:	f7fe fd7b 	bl	8001870 <st7565_drawmenu_custom>
                        ah_draw_cursor(5);
 8002d7a:	2005      	movs	r0, #5
 8002d7c:	f7fd fb40 	bl	8000400 <ah_draw_cursor>
                        st7565_write_buffer(LCD_Buffer);
 8002d80:	4ba9      	ldr	r3, [pc, #676]	; (8003028 <fsm_handle_event+0x113c>)
 8002d82:	0018      	movs	r0, r3
 8002d84:	f7fd fe4c 	bl	8000a20 <st7565_write_buffer>
                        state = MENU_CUSTOM_RETURN;
 8002d88:	4bac      	ldr	r3, [pc, #688]	; (800303c <fsm_handle_event+0x1150>)
 8002d8a:	2216      	movs	r2, #22
 8002d8c:	701a      	strb	r2, [r3, #0]
                        break;
 8002d8e:	e004      	b.n	8002d9a <fsm_handle_event+0xeae>

                    default:
                    	state = MENU_CUSTOM_BLUE;
 8002d90:	4baa      	ldr	r3, [pc, #680]	; (800303c <fsm_handle_event+0x1150>)
 8002d92:	2215      	movs	r2, #21
 8002d94:	701a      	strb	r2, [r3, #0]
                    }
                	break;
 8002d96:	f001 f81a 	bl	8003dce <fsm_handle_event+0x1ee2>
 8002d9a:	f001 f818 	bl	8003dce <fsm_handle_event+0x1ee2>

            case MENU_CUSTOM_RETURN:
            	switch (event) {
 8002d9e:	1dfb      	adds	r3, r7, #7
 8002da0:	781b      	ldrb	r3, [r3, #0]
 8002da2:	2b02      	cmp	r3, #2
 8002da4:	d032      	beq.n	8002e0c <fsm_handle_event+0xf20>
 8002da6:	2b05      	cmp	r3, #5
 8002da8:	d002      	beq.n	8002db0 <fsm_handle_event+0xec4>
 8002daa:	2b01      	cmp	r3, #1
 8002dac:	d012      	beq.n	8002dd4 <fsm_handle_event+0xee8>
 8002dae:	e049      	b.n	8002e44 <fsm_handle_event+0xf58>
        			case EV_BUTTON_SL:
        				st7565_clear_buffer(LCD_Buffer);
 8002db0:	4b9d      	ldr	r3, [pc, #628]	; (8003028 <fsm_handle_event+0x113c>)
 8002db2:	0018      	movs	r0, r3
 8002db4:	f7fd ff9c 	bl	8000cf0 <st7565_clear_buffer>
        				ah_menu(moodlight);
 8002db8:	2002      	movs	r0, #2
 8002dba:	f7fd fb35 	bl	8000428 <ah_menu>
        				ah_draw_cursor(1);
 8002dbe:	2001      	movs	r0, #1
 8002dc0:	f7fd fb1e 	bl	8000400 <ah_draw_cursor>
        				st7565_write_buffer(LCD_Buffer);
 8002dc4:	4b98      	ldr	r3, [pc, #608]	; (8003028 <fsm_handle_event+0x113c>)
 8002dc6:	0018      	movs	r0, r3
 8002dc8:	f7fd fe2a 	bl	8000a20 <st7565_write_buffer>
        				state = MENU_MOODL_PRESETS;
 8002dcc:	4b9b      	ldr	r3, [pc, #620]	; (800303c <fsm_handle_event+0x1150>)
 8002dce:	220a      	movs	r2, #10
 8002dd0:	701a      	strb	r2, [r3, #0]
        				break;
 8002dd2:	e03c      	b.n	8002e4e <fsm_handle_event+0xf62>
        			case EV_BUTTON_UP:
        				st7565_clear_buffer(LCD_Buffer);
 8002dd4:	4b94      	ldr	r3, [pc, #592]	; (8003028 <fsm_handle_event+0x113c>)
 8002dd6:	0018      	movs	r0, r3
 8002dd8:	f7fd ff8a 	bl	8000cf0 <st7565_clear_buffer>
        				st7565_drawmenu_custom(LCD_Buffer, led_intens_w, led_intens_r, led_intens_g, led_intens_b);
 8002ddc:	4b94      	ldr	r3, [pc, #592]	; (8003030 <fsm_handle_event+0x1144>)
 8002dde:	7819      	ldrb	r1, [r3, #0]
 8002de0:	4b94      	ldr	r3, [pc, #592]	; (8003034 <fsm_handle_event+0x1148>)
 8002de2:	781a      	ldrb	r2, [r3, #0]
 8002de4:	4b94      	ldr	r3, [pc, #592]	; (8003038 <fsm_handle_event+0x114c>)
 8002de6:	781c      	ldrb	r4, [r3, #0]
 8002de8:	4b90      	ldr	r3, [pc, #576]	; (800302c <fsm_handle_event+0x1140>)
 8002dea:	781b      	ldrb	r3, [r3, #0]
 8002dec:	488e      	ldr	r0, [pc, #568]	; (8003028 <fsm_handle_event+0x113c>)
 8002dee:	9300      	str	r3, [sp, #0]
 8002df0:	0023      	movs	r3, r4
 8002df2:	f7fe fd3d 	bl	8001870 <st7565_drawmenu_custom>
        				ah_draw_cursor(4);
 8002df6:	2004      	movs	r0, #4
 8002df8:	f7fd fb02 	bl	8000400 <ah_draw_cursor>
        				st7565_write_buffer(LCD_Buffer);
 8002dfc:	4b8a      	ldr	r3, [pc, #552]	; (8003028 <fsm_handle_event+0x113c>)
 8002dfe:	0018      	movs	r0, r3
 8002e00:	f7fd fe0e 	bl	8000a20 <st7565_write_buffer>
        				state = MENU_CUSTOM_BLUE;
 8002e04:	4b8d      	ldr	r3, [pc, #564]	; (800303c <fsm_handle_event+0x1150>)
 8002e06:	2215      	movs	r2, #21
 8002e08:	701a      	strb	r2, [r3, #0]
        				break;
 8002e0a:	e020      	b.n	8002e4e <fsm_handle_event+0xf62>
        			case EV_BUTTON_DN:
        				st7565_clear_buffer(LCD_Buffer);
 8002e0c:	4b86      	ldr	r3, [pc, #536]	; (8003028 <fsm_handle_event+0x113c>)
 8002e0e:	0018      	movs	r0, r3
 8002e10:	f7fd ff6e 	bl	8000cf0 <st7565_clear_buffer>
        				st7565_drawmenu_custom(LCD_Buffer, led_intens_w, led_intens_r, led_intens_g, led_intens_b);
 8002e14:	4b86      	ldr	r3, [pc, #536]	; (8003030 <fsm_handle_event+0x1144>)
 8002e16:	7819      	ldrb	r1, [r3, #0]
 8002e18:	4b86      	ldr	r3, [pc, #536]	; (8003034 <fsm_handle_event+0x1148>)
 8002e1a:	781a      	ldrb	r2, [r3, #0]
 8002e1c:	4b86      	ldr	r3, [pc, #536]	; (8003038 <fsm_handle_event+0x114c>)
 8002e1e:	781c      	ldrb	r4, [r3, #0]
 8002e20:	4b82      	ldr	r3, [pc, #520]	; (800302c <fsm_handle_event+0x1140>)
 8002e22:	781b      	ldrb	r3, [r3, #0]
 8002e24:	4880      	ldr	r0, [pc, #512]	; (8003028 <fsm_handle_event+0x113c>)
 8002e26:	9300      	str	r3, [sp, #0]
 8002e28:	0023      	movs	r3, r4
 8002e2a:	f7fe fd21 	bl	8001870 <st7565_drawmenu_custom>
        				ah_draw_cursor(1);
 8002e2e:	2001      	movs	r0, #1
 8002e30:	f7fd fae6 	bl	8000400 <ah_draw_cursor>
        				st7565_write_buffer(LCD_Buffer);
 8002e34:	4b7c      	ldr	r3, [pc, #496]	; (8003028 <fsm_handle_event+0x113c>)
 8002e36:	0018      	movs	r0, r3
 8002e38:	f7fd fdf2 	bl	8000a20 <st7565_write_buffer>
        				state = MENU_CUSTOM_WHITE;
 8002e3c:	4b7f      	ldr	r3, [pc, #508]	; (800303c <fsm_handle_event+0x1150>)
 8002e3e:	2212      	movs	r2, #18
 8002e40:	701a      	strb	r2, [r3, #0]
        				break;
 8002e42:	e004      	b.n	8002e4e <fsm_handle_event+0xf62>
        			default:
        				state = MENU_CUSTOM_RETURN ;
 8002e44:	4b7d      	ldr	r3, [pc, #500]	; (800303c <fsm_handle_event+0x1150>)
 8002e46:	2216      	movs	r2, #22
 8002e48:	701a      	strb	r2, [r3, #0]
                }
            	break;
 8002e4a:	f000 ffc0 	bl	8003dce <fsm_handle_event+0x1ee2>
 8002e4e:	f000 ffbe 	bl	8003dce <fsm_handle_event+0x1ee2>
//=======================================================================================================================
// Menu - Clock - Set Time & Date (Set Date and Time values/ variables for RTC)
//=======================================================================================================================

            case MENU_SETTIME_HOUR:
            	switch (event) {
 8002e52:	1dfb      	adds	r3, r7, #7
 8002e54:	781b      	ldrb	r3, [r3, #0]
 8002e56:	2b02      	cmp	r3, #2
 8002e58:	d100      	bne.n	8002e5c <fsm_handle_event+0xf70>
 8002e5a:	e09f      	b.n	8002f9c <fsm_handle_event+0x10b0>
 8002e5c:	dc03      	bgt.n	8002e66 <fsm_handle_event+0xf7a>
 8002e5e:	2b01      	cmp	r3, #1
 8002e60:	d100      	bne.n	8002e64 <fsm_handle_event+0xf78>
 8002e62:	e07b      	b.n	8002f5c <fsm_handle_event+0x1070>
 8002e64:	e0ba      	b.n	8002fdc <fsm_handle_event+0x10f0>
 8002e66:	2b03      	cmp	r3, #3
 8002e68:	d002      	beq.n	8002e70 <fsm_handle_event+0xf84>
 8002e6a:	2b04      	cmp	r3, #4
 8002e6c:	d03b      	beq.n	8002ee6 <fsm_handle_event+0xffa>
 8002e6e:	e0b5      	b.n	8002fdc <fsm_handle_event+0x10f0>
        			case EV_BUTTON_LT:
        				st7565_clear_buffer(LCD_Buffer);
 8002e70:	4b6d      	ldr	r3, [pc, #436]	; (8003028 <fsm_handle_event+0x113c>)
 8002e72:	0018      	movs	r0, r3
 8002e74:	f7fd ff3c 	bl	8000cf0 <st7565_clear_buffer>
        				if (set_hour > 0) {
 8002e78:	4b71      	ldr	r3, [pc, #452]	; (8003040 <fsm_handle_event+0x1154>)
 8002e7a:	781b      	ldrb	r3, [r3, #0]
 8002e7c:	2b00      	cmp	r3, #0
 8002e7e:	d006      	beq.n	8002e8e <fsm_handle_event+0xfa2>
        					set_hour -= 1;
 8002e80:	4b6f      	ldr	r3, [pc, #444]	; (8003040 <fsm_handle_event+0x1154>)
 8002e82:	781b      	ldrb	r3, [r3, #0]
 8002e84:	3b01      	subs	r3, #1
 8002e86:	b2da      	uxtb	r2, r3
 8002e88:	4b6d      	ldr	r3, [pc, #436]	; (8003040 <fsm_handle_event+0x1154>)
 8002e8a:	701a      	strb	r2, [r3, #0]
 8002e8c:	e006      	b.n	8002e9c <fsm_handle_event+0xfb0>
        				} else if (set_hour == 0) {
 8002e8e:	4b6c      	ldr	r3, [pc, #432]	; (8003040 <fsm_handle_event+0x1154>)
 8002e90:	781b      	ldrb	r3, [r3, #0]
 8002e92:	2b00      	cmp	r3, #0
 8002e94:	d102      	bne.n	8002e9c <fsm_handle_event+0xfb0>
        					set_hour = 23;
 8002e96:	4b6a      	ldr	r3, [pc, #424]	; (8003040 <fsm_handle_event+0x1154>)
 8002e98:	2217      	movs	r2, #23
 8002e9a:	701a      	strb	r2, [r3, #0]
        				}
        				ah_set_time(set_hour, set_min);
 8002e9c:	4b68      	ldr	r3, [pc, #416]	; (8003040 <fsm_handle_event+0x1154>)
 8002e9e:	781b      	ldrb	r3, [r3, #0]
 8002ea0:	001a      	movs	r2, r3
 8002ea2:	4b68      	ldr	r3, [pc, #416]	; (8003044 <fsm_handle_event+0x1158>)
 8002ea4:	781b      	ldrb	r3, [r3, #0]
 8002ea6:	0019      	movs	r1, r3
 8002ea8:	0010      	movs	r0, r2
 8002eaa:	f7fd fa23 	bl	80002f4 <ah_set_time>
        				ah_draw_cursor(1);
 8002eae:	2001      	movs	r0, #1
 8002eb0:	f7fd faa6 	bl	8000400 <ah_draw_cursor>
        				st7565_drawmenu_settime(LCD_Buffer, set_hour, set_min, set_day, set_mon, set_year);
 8002eb4:	4b62      	ldr	r3, [pc, #392]	; (8003040 <fsm_handle_event+0x1154>)
 8002eb6:	7819      	ldrb	r1, [r3, #0]
 8002eb8:	4b62      	ldr	r3, [pc, #392]	; (8003044 <fsm_handle_event+0x1158>)
 8002eba:	781c      	ldrb	r4, [r3, #0]
 8002ebc:	4b62      	ldr	r3, [pc, #392]	; (8003048 <fsm_handle_event+0x115c>)
 8002ebe:	781d      	ldrb	r5, [r3, #0]
 8002ec0:	4b62      	ldr	r3, [pc, #392]	; (800304c <fsm_handle_event+0x1160>)
 8002ec2:	781b      	ldrb	r3, [r3, #0]
 8002ec4:	4a62      	ldr	r2, [pc, #392]	; (8003050 <fsm_handle_event+0x1164>)
 8002ec6:	7812      	ldrb	r2, [r2, #0]
 8002ec8:	4857      	ldr	r0, [pc, #348]	; (8003028 <fsm_handle_event+0x113c>)
 8002eca:	9201      	str	r2, [sp, #4]
 8002ecc:	9300      	str	r3, [sp, #0]
 8002ece:	002b      	movs	r3, r5
 8002ed0:	0022      	movs	r2, r4
 8002ed2:	f7fe fd69 	bl	80019a8 <st7565_drawmenu_settime>
        				st7565_write_buffer(LCD_Buffer);
 8002ed6:	4b54      	ldr	r3, [pc, #336]	; (8003028 <fsm_handle_event+0x113c>)
 8002ed8:	0018      	movs	r0, r3
 8002eda:	f7fd fda1 	bl	8000a20 <st7565_write_buffer>
        				state = MENU_SETTIME_HOUR;
 8002ede:	4b57      	ldr	r3, [pc, #348]	; (800303c <fsm_handle_event+0x1150>)
 8002ee0:	2217      	movs	r2, #23
 8002ee2:	701a      	strb	r2, [r3, #0]
        				break;
 8002ee4:	e07f      	b.n	8002fe6 <fsm_handle_event+0x10fa>

        			case EV_BUTTON_RT:
        				st7565_clear_buffer(LCD_Buffer);
 8002ee6:	4b50      	ldr	r3, [pc, #320]	; (8003028 <fsm_handle_event+0x113c>)
 8002ee8:	0018      	movs	r0, r3
 8002eea:	f7fd ff01 	bl	8000cf0 <st7565_clear_buffer>
        				if (set_hour < 23) {
 8002eee:	4b54      	ldr	r3, [pc, #336]	; (8003040 <fsm_handle_event+0x1154>)
 8002ef0:	781b      	ldrb	r3, [r3, #0]
 8002ef2:	2b16      	cmp	r3, #22
 8002ef4:	d806      	bhi.n	8002f04 <fsm_handle_event+0x1018>
        					set_hour += 1;
 8002ef6:	4b52      	ldr	r3, [pc, #328]	; (8003040 <fsm_handle_event+0x1154>)
 8002ef8:	781b      	ldrb	r3, [r3, #0]
 8002efa:	3301      	adds	r3, #1
 8002efc:	b2da      	uxtb	r2, r3
 8002efe:	4b50      	ldr	r3, [pc, #320]	; (8003040 <fsm_handle_event+0x1154>)
 8002f00:	701a      	strb	r2, [r3, #0]
 8002f02:	e006      	b.n	8002f12 <fsm_handle_event+0x1026>
        				} else if (set_hour == 23) {
 8002f04:	4b4e      	ldr	r3, [pc, #312]	; (8003040 <fsm_handle_event+0x1154>)
 8002f06:	781b      	ldrb	r3, [r3, #0]
 8002f08:	2b17      	cmp	r3, #23
 8002f0a:	d102      	bne.n	8002f12 <fsm_handle_event+0x1026>
        					set_hour = 0;
 8002f0c:	4b4c      	ldr	r3, [pc, #304]	; (8003040 <fsm_handle_event+0x1154>)
 8002f0e:	2200      	movs	r2, #0
 8002f10:	701a      	strb	r2, [r3, #0]
        				}
        				ah_set_time(set_hour, set_min);
 8002f12:	4b4b      	ldr	r3, [pc, #300]	; (8003040 <fsm_handle_event+0x1154>)
 8002f14:	781b      	ldrb	r3, [r3, #0]
 8002f16:	001a      	movs	r2, r3
 8002f18:	4b4a      	ldr	r3, [pc, #296]	; (8003044 <fsm_handle_event+0x1158>)
 8002f1a:	781b      	ldrb	r3, [r3, #0]
 8002f1c:	0019      	movs	r1, r3
 8002f1e:	0010      	movs	r0, r2
 8002f20:	f7fd f9e8 	bl	80002f4 <ah_set_time>
        				ah_draw_cursor(1);
 8002f24:	2001      	movs	r0, #1
 8002f26:	f7fd fa6b 	bl	8000400 <ah_draw_cursor>
        				st7565_drawmenu_settime(LCD_Buffer, set_hour, set_min, set_day, set_mon, set_year);
 8002f2a:	4b45      	ldr	r3, [pc, #276]	; (8003040 <fsm_handle_event+0x1154>)
 8002f2c:	7819      	ldrb	r1, [r3, #0]
 8002f2e:	4b45      	ldr	r3, [pc, #276]	; (8003044 <fsm_handle_event+0x1158>)
 8002f30:	781c      	ldrb	r4, [r3, #0]
 8002f32:	4b45      	ldr	r3, [pc, #276]	; (8003048 <fsm_handle_event+0x115c>)
 8002f34:	781d      	ldrb	r5, [r3, #0]
 8002f36:	4b45      	ldr	r3, [pc, #276]	; (800304c <fsm_handle_event+0x1160>)
 8002f38:	781b      	ldrb	r3, [r3, #0]
 8002f3a:	4a45      	ldr	r2, [pc, #276]	; (8003050 <fsm_handle_event+0x1164>)
 8002f3c:	7812      	ldrb	r2, [r2, #0]
 8002f3e:	483a      	ldr	r0, [pc, #232]	; (8003028 <fsm_handle_event+0x113c>)
 8002f40:	9201      	str	r2, [sp, #4]
 8002f42:	9300      	str	r3, [sp, #0]
 8002f44:	002b      	movs	r3, r5
 8002f46:	0022      	movs	r2, r4
 8002f48:	f7fe fd2e 	bl	80019a8 <st7565_drawmenu_settime>
        				st7565_write_buffer(LCD_Buffer);
 8002f4c:	4b36      	ldr	r3, [pc, #216]	; (8003028 <fsm_handle_event+0x113c>)
 8002f4e:	0018      	movs	r0, r3
 8002f50:	f7fd fd66 	bl	8000a20 <st7565_write_buffer>
        				state = MENU_SETTIME_HOUR;
 8002f54:	4b39      	ldr	r3, [pc, #228]	; (800303c <fsm_handle_event+0x1150>)
 8002f56:	2217      	movs	r2, #23
 8002f58:	701a      	strb	r2, [r3, #0]
        				break;
 8002f5a:	e044      	b.n	8002fe6 <fsm_handle_event+0x10fa>

        			case EV_BUTTON_UP:
        				st7565_clear_buffer(LCD_Buffer);
 8002f5c:	4b32      	ldr	r3, [pc, #200]	; (8003028 <fsm_handle_event+0x113c>)
 8002f5e:	0018      	movs	r0, r3
 8002f60:	f7fd fec6 	bl	8000cf0 <st7565_clear_buffer>
        				st7565_drawmenu_settime(LCD_Buffer, set_hour, set_min, set_day, set_mon, set_year);
 8002f64:	4b36      	ldr	r3, [pc, #216]	; (8003040 <fsm_handle_event+0x1154>)
 8002f66:	7819      	ldrb	r1, [r3, #0]
 8002f68:	4b36      	ldr	r3, [pc, #216]	; (8003044 <fsm_handle_event+0x1158>)
 8002f6a:	781c      	ldrb	r4, [r3, #0]
 8002f6c:	4b36      	ldr	r3, [pc, #216]	; (8003048 <fsm_handle_event+0x115c>)
 8002f6e:	781d      	ldrb	r5, [r3, #0]
 8002f70:	4b36      	ldr	r3, [pc, #216]	; (800304c <fsm_handle_event+0x1160>)
 8002f72:	781b      	ldrb	r3, [r3, #0]
 8002f74:	4a36      	ldr	r2, [pc, #216]	; (8003050 <fsm_handle_event+0x1164>)
 8002f76:	7812      	ldrb	r2, [r2, #0]
 8002f78:	482b      	ldr	r0, [pc, #172]	; (8003028 <fsm_handle_event+0x113c>)
 8002f7a:	9201      	str	r2, [sp, #4]
 8002f7c:	9300      	str	r3, [sp, #0]
 8002f7e:	002b      	movs	r3, r5
 8002f80:	0022      	movs	r2, r4
 8002f82:	f7fe fd11 	bl	80019a8 <st7565_drawmenu_settime>
        				ah_draw_cursor(6);
 8002f86:	2006      	movs	r0, #6
 8002f88:	f7fd fa3a 	bl	8000400 <ah_draw_cursor>
        				st7565_write_buffer(LCD_Buffer);
 8002f8c:	4b26      	ldr	r3, [pc, #152]	; (8003028 <fsm_handle_event+0x113c>)
 8002f8e:	0018      	movs	r0, r3
 8002f90:	f7fd fd46 	bl	8000a20 <st7565_write_buffer>
        				state = MENU_SETTIME_RETURN;
 8002f94:	4b29      	ldr	r3, [pc, #164]	; (800303c <fsm_handle_event+0x1150>)
 8002f96:	221c      	movs	r2, #28
 8002f98:	701a      	strb	r2, [r3, #0]
        				break;
 8002f9a:	e024      	b.n	8002fe6 <fsm_handle_event+0x10fa>

        			case EV_BUTTON_DN:
        				st7565_clear_buffer(LCD_Buffer);
 8002f9c:	4b22      	ldr	r3, [pc, #136]	; (8003028 <fsm_handle_event+0x113c>)
 8002f9e:	0018      	movs	r0, r3
 8002fa0:	f7fd fea6 	bl	8000cf0 <st7565_clear_buffer>
        				st7565_drawmenu_settime(LCD_Buffer, set_hour, set_min, set_day, set_mon, set_year);
 8002fa4:	4b26      	ldr	r3, [pc, #152]	; (8003040 <fsm_handle_event+0x1154>)
 8002fa6:	7819      	ldrb	r1, [r3, #0]
 8002fa8:	4b26      	ldr	r3, [pc, #152]	; (8003044 <fsm_handle_event+0x1158>)
 8002faa:	781c      	ldrb	r4, [r3, #0]
 8002fac:	4b26      	ldr	r3, [pc, #152]	; (8003048 <fsm_handle_event+0x115c>)
 8002fae:	781d      	ldrb	r5, [r3, #0]
 8002fb0:	4b26      	ldr	r3, [pc, #152]	; (800304c <fsm_handle_event+0x1160>)
 8002fb2:	781b      	ldrb	r3, [r3, #0]
 8002fb4:	4a26      	ldr	r2, [pc, #152]	; (8003050 <fsm_handle_event+0x1164>)
 8002fb6:	7812      	ldrb	r2, [r2, #0]
 8002fb8:	481b      	ldr	r0, [pc, #108]	; (8003028 <fsm_handle_event+0x113c>)
 8002fba:	9201      	str	r2, [sp, #4]
 8002fbc:	9300      	str	r3, [sp, #0]
 8002fbe:	002b      	movs	r3, r5
 8002fc0:	0022      	movs	r2, r4
 8002fc2:	f7fe fcf1 	bl	80019a8 <st7565_drawmenu_settime>
        				ah_draw_cursor(2);
 8002fc6:	2002      	movs	r0, #2
 8002fc8:	f7fd fa1a 	bl	8000400 <ah_draw_cursor>
        				st7565_write_buffer(LCD_Buffer);
 8002fcc:	4b16      	ldr	r3, [pc, #88]	; (8003028 <fsm_handle_event+0x113c>)
 8002fce:	0018      	movs	r0, r3
 8002fd0:	f7fd fd26 	bl	8000a20 <st7565_write_buffer>
        				state = MENU_SETTIME_MINUTE;
 8002fd4:	4b19      	ldr	r3, [pc, #100]	; (800303c <fsm_handle_event+0x1150>)
 8002fd6:	2218      	movs	r2, #24
 8002fd8:	701a      	strb	r2, [r3, #0]
        				break;
 8002fda:	e004      	b.n	8002fe6 <fsm_handle_event+0x10fa>

        			default:
        				state = MENU_SETTIME_HOUR;
 8002fdc:	4b17      	ldr	r3, [pc, #92]	; (800303c <fsm_handle_event+0x1150>)
 8002fde:	2217      	movs	r2, #23
 8002fe0:	701a      	strb	r2, [r3, #0]
                }
            	break;
 8002fe2:	f000 fef4 	bl	8003dce <fsm_handle_event+0x1ee2>
 8002fe6:	f000 fef2 	bl	8003dce <fsm_handle_event+0x1ee2>

            case MENU_SETTIME_MINUTE:
            	switch (event) {
 8002fea:	1dfb      	adds	r3, r7, #7
 8002fec:	781b      	ldrb	r3, [r3, #0]
 8002fee:	2b02      	cmp	r3, #2
 8002ff0:	d100      	bne.n	8002ff4 <fsm_handle_event+0x1108>
 8002ff2:	e0b6      	b.n	8003162 <fsm_handle_event+0x1276>
 8002ff4:	dc03      	bgt.n	8002ffe <fsm_handle_event+0x1112>
 8002ff6:	2b01      	cmp	r3, #1
 8002ff8:	d100      	bne.n	8002ffc <fsm_handle_event+0x1110>
 8002ffa:	e092      	b.n	8003122 <fsm_handle_event+0x1236>
 8002ffc:	e0d1      	b.n	80031a2 <fsm_handle_event+0x12b6>
 8002ffe:	2b03      	cmp	r3, #3
 8003000:	d002      	beq.n	8003008 <fsm_handle_event+0x111c>
 8003002:	2b04      	cmp	r3, #4
 8003004:	d052      	beq.n	80030ac <fsm_handle_event+0x11c0>
 8003006:	e0cc      	b.n	80031a2 <fsm_handle_event+0x12b6>
        			case EV_BUTTON_LT:
        				st7565_clear_buffer(LCD_Buffer);
 8003008:	4b07      	ldr	r3, [pc, #28]	; (8003028 <fsm_handle_event+0x113c>)
 800300a:	0018      	movs	r0, r3
 800300c:	f7fd fe70 	bl	8000cf0 <st7565_clear_buffer>
        				if (set_min > 0) {
 8003010:	4b0c      	ldr	r3, [pc, #48]	; (8003044 <fsm_handle_event+0x1158>)
 8003012:	781b      	ldrb	r3, [r3, #0]
 8003014:	2b00      	cmp	r3, #0
 8003016:	d01d      	beq.n	8003054 <fsm_handle_event+0x1168>
        					set_min -= 1;
 8003018:	4b0a      	ldr	r3, [pc, #40]	; (8003044 <fsm_handle_event+0x1158>)
 800301a:	781b      	ldrb	r3, [r3, #0]
 800301c:	3b01      	subs	r3, #1
 800301e:	b2da      	uxtb	r2, r3
 8003020:	4b08      	ldr	r3, [pc, #32]	; (8003044 <fsm_handle_event+0x1158>)
 8003022:	701a      	strb	r2, [r3, #0]
 8003024:	e01d      	b.n	8003062 <fsm_handle_event+0x1176>
 8003026:	46c0      	nop			; (mov r8, r8)
 8003028:	200000d8 	.word	0x200000d8
 800302c:	2000000f 	.word	0x2000000f
 8003030:	2000000c 	.word	0x2000000c
 8003034:	2000000d 	.word	0x2000000d
 8003038:	2000000e 	.word	0x2000000e
 800303c:	20000040 	.word	0x20000040
 8003040:	2000003c 	.word	0x2000003c
 8003044:	2000003d 	.word	0x2000003d
 8003048:	20000010 	.word	0x20000010
 800304c:	20000011 	.word	0x20000011
 8003050:	20000012 	.word	0x20000012
        				} else if (set_min == 0) {
 8003054:	4bdb      	ldr	r3, [pc, #876]	; (80033c4 <fsm_handle_event+0x14d8>)
 8003056:	781b      	ldrb	r3, [r3, #0]
 8003058:	2b00      	cmp	r3, #0
 800305a:	d102      	bne.n	8003062 <fsm_handle_event+0x1176>
        					set_min = 59;
 800305c:	4bd9      	ldr	r3, [pc, #868]	; (80033c4 <fsm_handle_event+0x14d8>)
 800305e:	223b      	movs	r2, #59	; 0x3b
 8003060:	701a      	strb	r2, [r3, #0]
        				}
        				ah_set_time(set_hour, set_min);
 8003062:	4bd9      	ldr	r3, [pc, #868]	; (80033c8 <fsm_handle_event+0x14dc>)
 8003064:	781b      	ldrb	r3, [r3, #0]
 8003066:	001a      	movs	r2, r3
 8003068:	4bd6      	ldr	r3, [pc, #856]	; (80033c4 <fsm_handle_event+0x14d8>)
 800306a:	781b      	ldrb	r3, [r3, #0]
 800306c:	0019      	movs	r1, r3
 800306e:	0010      	movs	r0, r2
 8003070:	f7fd f940 	bl	80002f4 <ah_set_time>
        				ah_draw_cursor(2);
 8003074:	2002      	movs	r0, #2
 8003076:	f7fd f9c3 	bl	8000400 <ah_draw_cursor>
        				st7565_drawmenu_settime(LCD_Buffer, set_hour, set_min, set_day, set_mon, set_year);
 800307a:	4bd3      	ldr	r3, [pc, #844]	; (80033c8 <fsm_handle_event+0x14dc>)
 800307c:	7819      	ldrb	r1, [r3, #0]
 800307e:	4bd1      	ldr	r3, [pc, #836]	; (80033c4 <fsm_handle_event+0x14d8>)
 8003080:	781c      	ldrb	r4, [r3, #0]
 8003082:	4bd2      	ldr	r3, [pc, #840]	; (80033cc <fsm_handle_event+0x14e0>)
 8003084:	781d      	ldrb	r5, [r3, #0]
 8003086:	4bd2      	ldr	r3, [pc, #840]	; (80033d0 <fsm_handle_event+0x14e4>)
 8003088:	781b      	ldrb	r3, [r3, #0]
 800308a:	4ad2      	ldr	r2, [pc, #840]	; (80033d4 <fsm_handle_event+0x14e8>)
 800308c:	7812      	ldrb	r2, [r2, #0]
 800308e:	48d2      	ldr	r0, [pc, #840]	; (80033d8 <fsm_handle_event+0x14ec>)
 8003090:	9201      	str	r2, [sp, #4]
 8003092:	9300      	str	r3, [sp, #0]
 8003094:	002b      	movs	r3, r5
 8003096:	0022      	movs	r2, r4
 8003098:	f7fe fc86 	bl	80019a8 <st7565_drawmenu_settime>
        				st7565_write_buffer(LCD_Buffer);
 800309c:	4bce      	ldr	r3, [pc, #824]	; (80033d8 <fsm_handle_event+0x14ec>)
 800309e:	0018      	movs	r0, r3
 80030a0:	f7fd fcbe 	bl	8000a20 <st7565_write_buffer>
        				state = MENU_SETTIME_MINUTE;
 80030a4:	4bcd      	ldr	r3, [pc, #820]	; (80033dc <fsm_handle_event+0x14f0>)
 80030a6:	2218      	movs	r2, #24
 80030a8:	701a      	strb	r2, [r3, #0]
        				break;
 80030aa:	e07f      	b.n	80031ac <fsm_handle_event+0x12c0>

        			case EV_BUTTON_RT:
        				st7565_clear_buffer(LCD_Buffer);
 80030ac:	4bca      	ldr	r3, [pc, #808]	; (80033d8 <fsm_handle_event+0x14ec>)
 80030ae:	0018      	movs	r0, r3
 80030b0:	f7fd fe1e 	bl	8000cf0 <st7565_clear_buffer>
        				if (set_min < 59) {
 80030b4:	4bc3      	ldr	r3, [pc, #780]	; (80033c4 <fsm_handle_event+0x14d8>)
 80030b6:	781b      	ldrb	r3, [r3, #0]
 80030b8:	2b3a      	cmp	r3, #58	; 0x3a
 80030ba:	d806      	bhi.n	80030ca <fsm_handle_event+0x11de>
        					set_min += 1;
 80030bc:	4bc1      	ldr	r3, [pc, #772]	; (80033c4 <fsm_handle_event+0x14d8>)
 80030be:	781b      	ldrb	r3, [r3, #0]
 80030c0:	3301      	adds	r3, #1
 80030c2:	b2da      	uxtb	r2, r3
 80030c4:	4bbf      	ldr	r3, [pc, #764]	; (80033c4 <fsm_handle_event+0x14d8>)
 80030c6:	701a      	strb	r2, [r3, #0]
 80030c8:	e006      	b.n	80030d8 <fsm_handle_event+0x11ec>
        				} else if (set_min == 59) {
 80030ca:	4bbe      	ldr	r3, [pc, #760]	; (80033c4 <fsm_handle_event+0x14d8>)
 80030cc:	781b      	ldrb	r3, [r3, #0]
 80030ce:	2b3b      	cmp	r3, #59	; 0x3b
 80030d0:	d102      	bne.n	80030d8 <fsm_handle_event+0x11ec>
        					set_min = 0;
 80030d2:	4bbc      	ldr	r3, [pc, #752]	; (80033c4 <fsm_handle_event+0x14d8>)
 80030d4:	2200      	movs	r2, #0
 80030d6:	701a      	strb	r2, [r3, #0]
        				}
        				ah_set_time(set_hour, set_min);
 80030d8:	4bbb      	ldr	r3, [pc, #748]	; (80033c8 <fsm_handle_event+0x14dc>)
 80030da:	781b      	ldrb	r3, [r3, #0]
 80030dc:	001a      	movs	r2, r3
 80030de:	4bb9      	ldr	r3, [pc, #740]	; (80033c4 <fsm_handle_event+0x14d8>)
 80030e0:	781b      	ldrb	r3, [r3, #0]
 80030e2:	0019      	movs	r1, r3
 80030e4:	0010      	movs	r0, r2
 80030e6:	f7fd f905 	bl	80002f4 <ah_set_time>
        				ah_draw_cursor(2);
 80030ea:	2002      	movs	r0, #2
 80030ec:	f7fd f988 	bl	8000400 <ah_draw_cursor>
        				st7565_drawmenu_settime(LCD_Buffer, set_hour, set_min, set_day, set_mon, set_year);
 80030f0:	4bb5      	ldr	r3, [pc, #724]	; (80033c8 <fsm_handle_event+0x14dc>)
 80030f2:	7819      	ldrb	r1, [r3, #0]
 80030f4:	4bb3      	ldr	r3, [pc, #716]	; (80033c4 <fsm_handle_event+0x14d8>)
 80030f6:	781c      	ldrb	r4, [r3, #0]
 80030f8:	4bb4      	ldr	r3, [pc, #720]	; (80033cc <fsm_handle_event+0x14e0>)
 80030fa:	781d      	ldrb	r5, [r3, #0]
 80030fc:	4bb4      	ldr	r3, [pc, #720]	; (80033d0 <fsm_handle_event+0x14e4>)
 80030fe:	781b      	ldrb	r3, [r3, #0]
 8003100:	4ab4      	ldr	r2, [pc, #720]	; (80033d4 <fsm_handle_event+0x14e8>)
 8003102:	7812      	ldrb	r2, [r2, #0]
 8003104:	48b4      	ldr	r0, [pc, #720]	; (80033d8 <fsm_handle_event+0x14ec>)
 8003106:	9201      	str	r2, [sp, #4]
 8003108:	9300      	str	r3, [sp, #0]
 800310a:	002b      	movs	r3, r5
 800310c:	0022      	movs	r2, r4
 800310e:	f7fe fc4b 	bl	80019a8 <st7565_drawmenu_settime>
        				st7565_write_buffer(LCD_Buffer);
 8003112:	4bb1      	ldr	r3, [pc, #708]	; (80033d8 <fsm_handle_event+0x14ec>)
 8003114:	0018      	movs	r0, r3
 8003116:	f7fd fc83 	bl	8000a20 <st7565_write_buffer>
        				state = MENU_SETTIME_MINUTE;
 800311a:	4bb0      	ldr	r3, [pc, #704]	; (80033dc <fsm_handle_event+0x14f0>)
 800311c:	2218      	movs	r2, #24
 800311e:	701a      	strb	r2, [r3, #0]
        				break;
 8003120:	e044      	b.n	80031ac <fsm_handle_event+0x12c0>

        			case EV_BUTTON_UP:
        				st7565_clear_buffer(LCD_Buffer);
 8003122:	4bad      	ldr	r3, [pc, #692]	; (80033d8 <fsm_handle_event+0x14ec>)
 8003124:	0018      	movs	r0, r3
 8003126:	f7fd fde3 	bl	8000cf0 <st7565_clear_buffer>
        				st7565_drawmenu_settime(LCD_Buffer, set_hour, set_min, set_day, set_mon, set_year);
 800312a:	4ba7      	ldr	r3, [pc, #668]	; (80033c8 <fsm_handle_event+0x14dc>)
 800312c:	7819      	ldrb	r1, [r3, #0]
 800312e:	4ba5      	ldr	r3, [pc, #660]	; (80033c4 <fsm_handle_event+0x14d8>)
 8003130:	781c      	ldrb	r4, [r3, #0]
 8003132:	4ba6      	ldr	r3, [pc, #664]	; (80033cc <fsm_handle_event+0x14e0>)
 8003134:	781d      	ldrb	r5, [r3, #0]
 8003136:	4ba6      	ldr	r3, [pc, #664]	; (80033d0 <fsm_handle_event+0x14e4>)
 8003138:	781b      	ldrb	r3, [r3, #0]
 800313a:	4aa6      	ldr	r2, [pc, #664]	; (80033d4 <fsm_handle_event+0x14e8>)
 800313c:	7812      	ldrb	r2, [r2, #0]
 800313e:	48a6      	ldr	r0, [pc, #664]	; (80033d8 <fsm_handle_event+0x14ec>)
 8003140:	9201      	str	r2, [sp, #4]
 8003142:	9300      	str	r3, [sp, #0]
 8003144:	002b      	movs	r3, r5
 8003146:	0022      	movs	r2, r4
 8003148:	f7fe fc2e 	bl	80019a8 <st7565_drawmenu_settime>
        				ah_draw_cursor(1);
 800314c:	2001      	movs	r0, #1
 800314e:	f7fd f957 	bl	8000400 <ah_draw_cursor>
        				st7565_write_buffer(LCD_Buffer);
 8003152:	4ba1      	ldr	r3, [pc, #644]	; (80033d8 <fsm_handle_event+0x14ec>)
 8003154:	0018      	movs	r0, r3
 8003156:	f7fd fc63 	bl	8000a20 <st7565_write_buffer>
        				state = MENU_SETTIME_HOUR;
 800315a:	4ba0      	ldr	r3, [pc, #640]	; (80033dc <fsm_handle_event+0x14f0>)
 800315c:	2217      	movs	r2, #23
 800315e:	701a      	strb	r2, [r3, #0]
        				break;
 8003160:	e024      	b.n	80031ac <fsm_handle_event+0x12c0>

        			case EV_BUTTON_DN:
        				st7565_clear_buffer(LCD_Buffer);
 8003162:	4b9d      	ldr	r3, [pc, #628]	; (80033d8 <fsm_handle_event+0x14ec>)
 8003164:	0018      	movs	r0, r3
 8003166:	f7fd fdc3 	bl	8000cf0 <st7565_clear_buffer>
        				st7565_drawmenu_settime(LCD_Buffer, set_hour, set_min, set_day, set_mon, set_year);
 800316a:	4b97      	ldr	r3, [pc, #604]	; (80033c8 <fsm_handle_event+0x14dc>)
 800316c:	7819      	ldrb	r1, [r3, #0]
 800316e:	4b95      	ldr	r3, [pc, #596]	; (80033c4 <fsm_handle_event+0x14d8>)
 8003170:	781c      	ldrb	r4, [r3, #0]
 8003172:	4b96      	ldr	r3, [pc, #600]	; (80033cc <fsm_handle_event+0x14e0>)
 8003174:	781d      	ldrb	r5, [r3, #0]
 8003176:	4b96      	ldr	r3, [pc, #600]	; (80033d0 <fsm_handle_event+0x14e4>)
 8003178:	781b      	ldrb	r3, [r3, #0]
 800317a:	4a96      	ldr	r2, [pc, #600]	; (80033d4 <fsm_handle_event+0x14e8>)
 800317c:	7812      	ldrb	r2, [r2, #0]
 800317e:	4896      	ldr	r0, [pc, #600]	; (80033d8 <fsm_handle_event+0x14ec>)
 8003180:	9201      	str	r2, [sp, #4]
 8003182:	9300      	str	r3, [sp, #0]
 8003184:	002b      	movs	r3, r5
 8003186:	0022      	movs	r2, r4
 8003188:	f7fe fc0e 	bl	80019a8 <st7565_drawmenu_settime>
        				ah_draw_cursor(3);
 800318c:	2003      	movs	r0, #3
 800318e:	f7fd f937 	bl	8000400 <ah_draw_cursor>
        				st7565_write_buffer(LCD_Buffer);
 8003192:	4b91      	ldr	r3, [pc, #580]	; (80033d8 <fsm_handle_event+0x14ec>)
 8003194:	0018      	movs	r0, r3
 8003196:	f7fd fc43 	bl	8000a20 <st7565_write_buffer>
        				state = MENU_SETTIME_DAY;
 800319a:	4b90      	ldr	r3, [pc, #576]	; (80033dc <fsm_handle_event+0x14f0>)
 800319c:	2219      	movs	r2, #25
 800319e:	701a      	strb	r2, [r3, #0]
        				break;
 80031a0:	e004      	b.n	80031ac <fsm_handle_event+0x12c0>

        			default:
        				state = MENU_SETTIME_MINUTE;
 80031a2:	4b8e      	ldr	r3, [pc, #568]	; (80033dc <fsm_handle_event+0x14f0>)
 80031a4:	2218      	movs	r2, #24
 80031a6:	701a      	strb	r2, [r3, #0]
                }
            	break;
 80031a8:	f000 fe11 	bl	8003dce <fsm_handle_event+0x1ee2>
 80031ac:	f000 fe0f 	bl	8003dce <fsm_handle_event+0x1ee2>

            case MENU_SETTIME_DAY:
            	switch (event) {
 80031b0:	1dfb      	adds	r3, r7, #7
 80031b2:	781b      	ldrb	r3, [r3, #0]
 80031b4:	2b02      	cmp	r3, #2
 80031b6:	d100      	bne.n	80031ba <fsm_handle_event+0x12ce>
 80031b8:	e08c      	b.n	80032d4 <fsm_handle_event+0x13e8>
 80031ba:	dc02      	bgt.n	80031c2 <fsm_handle_event+0x12d6>
 80031bc:	2b01      	cmp	r3, #1
 80031be:	d069      	beq.n	8003294 <fsm_handle_event+0x13a8>
 80031c0:	e0a8      	b.n	8003314 <fsm_handle_event+0x1428>
 80031c2:	2b03      	cmp	r3, #3
 80031c4:	d002      	beq.n	80031cc <fsm_handle_event+0x12e0>
 80031c6:	2b04      	cmp	r3, #4
 80031c8:	d032      	beq.n	8003230 <fsm_handle_event+0x1344>
 80031ca:	e0a3      	b.n	8003314 <fsm_handle_event+0x1428>
        			case EV_BUTTON_LT:
        				st7565_clear_buffer(LCD_Buffer);
 80031cc:	4b82      	ldr	r3, [pc, #520]	; (80033d8 <fsm_handle_event+0x14ec>)
 80031ce:	0018      	movs	r0, r3
 80031d0:	f7fd fd8e 	bl	8000cf0 <st7565_clear_buffer>
        				if (set_day > 1) {
 80031d4:	4b7d      	ldr	r3, [pc, #500]	; (80033cc <fsm_handle_event+0x14e0>)
 80031d6:	781b      	ldrb	r3, [r3, #0]
 80031d8:	2b01      	cmp	r3, #1
 80031da:	d906      	bls.n	80031ea <fsm_handle_event+0x12fe>
        					set_day -= 1;
 80031dc:	4b7b      	ldr	r3, [pc, #492]	; (80033cc <fsm_handle_event+0x14e0>)
 80031de:	781b      	ldrb	r3, [r3, #0]
 80031e0:	3b01      	subs	r3, #1
 80031e2:	b2da      	uxtb	r2, r3
 80031e4:	4b79      	ldr	r3, [pc, #484]	; (80033cc <fsm_handle_event+0x14e0>)
 80031e6:	701a      	strb	r2, [r3, #0]
 80031e8:	e006      	b.n	80031f8 <fsm_handle_event+0x130c>
        				} else if (set_day == 1) {
 80031ea:	4b78      	ldr	r3, [pc, #480]	; (80033cc <fsm_handle_event+0x14e0>)
 80031ec:	781b      	ldrb	r3, [r3, #0]
 80031ee:	2b01      	cmp	r3, #1
 80031f0:	d102      	bne.n	80031f8 <fsm_handle_event+0x130c>
        					set_day = 31;
 80031f2:	4b76      	ldr	r3, [pc, #472]	; (80033cc <fsm_handle_event+0x14e0>)
 80031f4:	221f      	movs	r2, #31
 80031f6:	701a      	strb	r2, [r3, #0]
        				}
        				ah_draw_cursor(3);
 80031f8:	2003      	movs	r0, #3
 80031fa:	f7fd f901 	bl	8000400 <ah_draw_cursor>
        				st7565_drawmenu_settime(LCD_Buffer, set_hour, set_min, set_day, set_mon, set_year);
 80031fe:	4b72      	ldr	r3, [pc, #456]	; (80033c8 <fsm_handle_event+0x14dc>)
 8003200:	7819      	ldrb	r1, [r3, #0]
 8003202:	4b70      	ldr	r3, [pc, #448]	; (80033c4 <fsm_handle_event+0x14d8>)
 8003204:	781c      	ldrb	r4, [r3, #0]
 8003206:	4b71      	ldr	r3, [pc, #452]	; (80033cc <fsm_handle_event+0x14e0>)
 8003208:	781d      	ldrb	r5, [r3, #0]
 800320a:	4b71      	ldr	r3, [pc, #452]	; (80033d0 <fsm_handle_event+0x14e4>)
 800320c:	781b      	ldrb	r3, [r3, #0]
 800320e:	4a71      	ldr	r2, [pc, #452]	; (80033d4 <fsm_handle_event+0x14e8>)
 8003210:	7812      	ldrb	r2, [r2, #0]
 8003212:	4871      	ldr	r0, [pc, #452]	; (80033d8 <fsm_handle_event+0x14ec>)
 8003214:	9201      	str	r2, [sp, #4]
 8003216:	9300      	str	r3, [sp, #0]
 8003218:	002b      	movs	r3, r5
 800321a:	0022      	movs	r2, r4
 800321c:	f7fe fbc4 	bl	80019a8 <st7565_drawmenu_settime>
        				st7565_write_buffer(LCD_Buffer);
 8003220:	4b6d      	ldr	r3, [pc, #436]	; (80033d8 <fsm_handle_event+0x14ec>)
 8003222:	0018      	movs	r0, r3
 8003224:	f7fd fbfc 	bl	8000a20 <st7565_write_buffer>
        				state = MENU_SETTIME_DAY;
 8003228:	4b6c      	ldr	r3, [pc, #432]	; (80033dc <fsm_handle_event+0x14f0>)
 800322a:	2219      	movs	r2, #25
 800322c:	701a      	strb	r2, [r3, #0]
        				break;
 800322e:	e076      	b.n	800331e <fsm_handle_event+0x1432>

        			case EV_BUTTON_RT:
        				st7565_clear_buffer(LCD_Buffer);
 8003230:	4b69      	ldr	r3, [pc, #420]	; (80033d8 <fsm_handle_event+0x14ec>)
 8003232:	0018      	movs	r0, r3
 8003234:	f7fd fd5c 	bl	8000cf0 <st7565_clear_buffer>
        				if (set_day < 31) {
 8003238:	4b64      	ldr	r3, [pc, #400]	; (80033cc <fsm_handle_event+0x14e0>)
 800323a:	781b      	ldrb	r3, [r3, #0]
 800323c:	2b1e      	cmp	r3, #30
 800323e:	d806      	bhi.n	800324e <fsm_handle_event+0x1362>
        					set_day += 1;
 8003240:	4b62      	ldr	r3, [pc, #392]	; (80033cc <fsm_handle_event+0x14e0>)
 8003242:	781b      	ldrb	r3, [r3, #0]
 8003244:	3301      	adds	r3, #1
 8003246:	b2da      	uxtb	r2, r3
 8003248:	4b60      	ldr	r3, [pc, #384]	; (80033cc <fsm_handle_event+0x14e0>)
 800324a:	701a      	strb	r2, [r3, #0]
 800324c:	e006      	b.n	800325c <fsm_handle_event+0x1370>
        				} else if (set_min == 31) {
 800324e:	4b5d      	ldr	r3, [pc, #372]	; (80033c4 <fsm_handle_event+0x14d8>)
 8003250:	781b      	ldrb	r3, [r3, #0]
 8003252:	2b1f      	cmp	r3, #31
 8003254:	d102      	bne.n	800325c <fsm_handle_event+0x1370>
        					set_day = 1;
 8003256:	4b5d      	ldr	r3, [pc, #372]	; (80033cc <fsm_handle_event+0x14e0>)
 8003258:	2201      	movs	r2, #1
 800325a:	701a      	strb	r2, [r3, #0]
        				}
        				ah_draw_cursor(3);
 800325c:	2003      	movs	r0, #3
 800325e:	f7fd f8cf 	bl	8000400 <ah_draw_cursor>
        				st7565_drawmenu_settime(LCD_Buffer, set_hour, set_min, set_day, set_mon, set_year);
 8003262:	4b59      	ldr	r3, [pc, #356]	; (80033c8 <fsm_handle_event+0x14dc>)
 8003264:	7819      	ldrb	r1, [r3, #0]
 8003266:	4b57      	ldr	r3, [pc, #348]	; (80033c4 <fsm_handle_event+0x14d8>)
 8003268:	781c      	ldrb	r4, [r3, #0]
 800326a:	4b58      	ldr	r3, [pc, #352]	; (80033cc <fsm_handle_event+0x14e0>)
 800326c:	781d      	ldrb	r5, [r3, #0]
 800326e:	4b58      	ldr	r3, [pc, #352]	; (80033d0 <fsm_handle_event+0x14e4>)
 8003270:	781b      	ldrb	r3, [r3, #0]
 8003272:	4a58      	ldr	r2, [pc, #352]	; (80033d4 <fsm_handle_event+0x14e8>)
 8003274:	7812      	ldrb	r2, [r2, #0]
 8003276:	4858      	ldr	r0, [pc, #352]	; (80033d8 <fsm_handle_event+0x14ec>)
 8003278:	9201      	str	r2, [sp, #4]
 800327a:	9300      	str	r3, [sp, #0]
 800327c:	002b      	movs	r3, r5
 800327e:	0022      	movs	r2, r4
 8003280:	f7fe fb92 	bl	80019a8 <st7565_drawmenu_settime>
        				st7565_write_buffer(LCD_Buffer);
 8003284:	4b54      	ldr	r3, [pc, #336]	; (80033d8 <fsm_handle_event+0x14ec>)
 8003286:	0018      	movs	r0, r3
 8003288:	f7fd fbca 	bl	8000a20 <st7565_write_buffer>
        				state = MENU_SETTIME_DAY;
 800328c:	4b53      	ldr	r3, [pc, #332]	; (80033dc <fsm_handle_event+0x14f0>)
 800328e:	2219      	movs	r2, #25
 8003290:	701a      	strb	r2, [r3, #0]
        				break;
 8003292:	e044      	b.n	800331e <fsm_handle_event+0x1432>

        			case EV_BUTTON_UP:
        				st7565_clear_buffer(LCD_Buffer);
 8003294:	4b50      	ldr	r3, [pc, #320]	; (80033d8 <fsm_handle_event+0x14ec>)
 8003296:	0018      	movs	r0, r3
 8003298:	f7fd fd2a 	bl	8000cf0 <st7565_clear_buffer>
        				st7565_drawmenu_settime(LCD_Buffer, set_hour, set_min, set_day, set_mon, set_year);
 800329c:	4b4a      	ldr	r3, [pc, #296]	; (80033c8 <fsm_handle_event+0x14dc>)
 800329e:	7819      	ldrb	r1, [r3, #0]
 80032a0:	4b48      	ldr	r3, [pc, #288]	; (80033c4 <fsm_handle_event+0x14d8>)
 80032a2:	781c      	ldrb	r4, [r3, #0]
 80032a4:	4b49      	ldr	r3, [pc, #292]	; (80033cc <fsm_handle_event+0x14e0>)
 80032a6:	781d      	ldrb	r5, [r3, #0]
 80032a8:	4b49      	ldr	r3, [pc, #292]	; (80033d0 <fsm_handle_event+0x14e4>)
 80032aa:	781b      	ldrb	r3, [r3, #0]
 80032ac:	4a49      	ldr	r2, [pc, #292]	; (80033d4 <fsm_handle_event+0x14e8>)
 80032ae:	7812      	ldrb	r2, [r2, #0]
 80032b0:	4849      	ldr	r0, [pc, #292]	; (80033d8 <fsm_handle_event+0x14ec>)
 80032b2:	9201      	str	r2, [sp, #4]
 80032b4:	9300      	str	r3, [sp, #0]
 80032b6:	002b      	movs	r3, r5
 80032b8:	0022      	movs	r2, r4
 80032ba:	f7fe fb75 	bl	80019a8 <st7565_drawmenu_settime>
        				ah_draw_cursor(2);
 80032be:	2002      	movs	r0, #2
 80032c0:	f7fd f89e 	bl	8000400 <ah_draw_cursor>
        				st7565_write_buffer(LCD_Buffer);
 80032c4:	4b44      	ldr	r3, [pc, #272]	; (80033d8 <fsm_handle_event+0x14ec>)
 80032c6:	0018      	movs	r0, r3
 80032c8:	f7fd fbaa 	bl	8000a20 <st7565_write_buffer>
        				state = MENU_SETTIME_MINUTE;
 80032cc:	4b43      	ldr	r3, [pc, #268]	; (80033dc <fsm_handle_event+0x14f0>)
 80032ce:	2218      	movs	r2, #24
 80032d0:	701a      	strb	r2, [r3, #0]
        				break;
 80032d2:	e024      	b.n	800331e <fsm_handle_event+0x1432>

        			case EV_BUTTON_DN:
        				st7565_clear_buffer(LCD_Buffer);
 80032d4:	4b40      	ldr	r3, [pc, #256]	; (80033d8 <fsm_handle_event+0x14ec>)
 80032d6:	0018      	movs	r0, r3
 80032d8:	f7fd fd0a 	bl	8000cf0 <st7565_clear_buffer>
        				st7565_drawmenu_settime(LCD_Buffer, set_hour, set_min, set_day, set_mon, set_year);
 80032dc:	4b3a      	ldr	r3, [pc, #232]	; (80033c8 <fsm_handle_event+0x14dc>)
 80032de:	7819      	ldrb	r1, [r3, #0]
 80032e0:	4b38      	ldr	r3, [pc, #224]	; (80033c4 <fsm_handle_event+0x14d8>)
 80032e2:	781c      	ldrb	r4, [r3, #0]
 80032e4:	4b39      	ldr	r3, [pc, #228]	; (80033cc <fsm_handle_event+0x14e0>)
 80032e6:	781d      	ldrb	r5, [r3, #0]
 80032e8:	4b39      	ldr	r3, [pc, #228]	; (80033d0 <fsm_handle_event+0x14e4>)
 80032ea:	781b      	ldrb	r3, [r3, #0]
 80032ec:	4a39      	ldr	r2, [pc, #228]	; (80033d4 <fsm_handle_event+0x14e8>)
 80032ee:	7812      	ldrb	r2, [r2, #0]
 80032f0:	4839      	ldr	r0, [pc, #228]	; (80033d8 <fsm_handle_event+0x14ec>)
 80032f2:	9201      	str	r2, [sp, #4]
 80032f4:	9300      	str	r3, [sp, #0]
 80032f6:	002b      	movs	r3, r5
 80032f8:	0022      	movs	r2, r4
 80032fa:	f7fe fb55 	bl	80019a8 <st7565_drawmenu_settime>
        				ah_draw_cursor(4);
 80032fe:	2004      	movs	r0, #4
 8003300:	f7fd f87e 	bl	8000400 <ah_draw_cursor>
        				st7565_write_buffer(LCD_Buffer);
 8003304:	4b34      	ldr	r3, [pc, #208]	; (80033d8 <fsm_handle_event+0x14ec>)
 8003306:	0018      	movs	r0, r3
 8003308:	f7fd fb8a 	bl	8000a20 <st7565_write_buffer>
        				state = MENU_SETTIME_MONTH;
 800330c:	4b33      	ldr	r3, [pc, #204]	; (80033dc <fsm_handle_event+0x14f0>)
 800330e:	221a      	movs	r2, #26
 8003310:	701a      	strb	r2, [r3, #0]
        				break;
 8003312:	e004      	b.n	800331e <fsm_handle_event+0x1432>

        			default:
        				state = MENU_SETTIME_DAY;
 8003314:	4b31      	ldr	r3, [pc, #196]	; (80033dc <fsm_handle_event+0x14f0>)
 8003316:	2219      	movs	r2, #25
 8003318:	701a      	strb	r2, [r3, #0]
                }
            	break;
 800331a:	f000 fd58 	bl	8003dce <fsm_handle_event+0x1ee2>
 800331e:	f000 fd56 	bl	8003dce <fsm_handle_event+0x1ee2>

            case MENU_SETTIME_MONTH:
            	switch (event) {
 8003322:	1dfb      	adds	r3, r7, #7
 8003324:	781b      	ldrb	r3, [r3, #0]
 8003326:	2b02      	cmp	r3, #2
 8003328:	d100      	bne.n	800332c <fsm_handle_event+0x1440>
 800332a:	e09c      	b.n	8003466 <fsm_handle_event+0x157a>
 800332c:	dc03      	bgt.n	8003336 <fsm_handle_event+0x144a>
 800332e:	2b01      	cmp	r3, #1
 8003330:	d100      	bne.n	8003334 <fsm_handle_event+0x1448>
 8003332:	e078      	b.n	8003426 <fsm_handle_event+0x153a>
 8003334:	e0b7      	b.n	80034a6 <fsm_handle_event+0x15ba>
 8003336:	2b03      	cmp	r3, #3
 8003338:	d002      	beq.n	8003340 <fsm_handle_event+0x1454>
 800333a:	2b04      	cmp	r3, #4
 800333c:	d032      	beq.n	80033a4 <fsm_handle_event+0x14b8>
 800333e:	e0b2      	b.n	80034a6 <fsm_handle_event+0x15ba>
        			case EV_BUTTON_LT:
        				st7565_clear_buffer(LCD_Buffer);
 8003340:	4b25      	ldr	r3, [pc, #148]	; (80033d8 <fsm_handle_event+0x14ec>)
 8003342:	0018      	movs	r0, r3
 8003344:	f7fd fcd4 	bl	8000cf0 <st7565_clear_buffer>
        				if (set_mon > 1) {
 8003348:	4b21      	ldr	r3, [pc, #132]	; (80033d0 <fsm_handle_event+0x14e4>)
 800334a:	781b      	ldrb	r3, [r3, #0]
 800334c:	2b01      	cmp	r3, #1
 800334e:	d906      	bls.n	800335e <fsm_handle_event+0x1472>
        					set_mon -= 1;
 8003350:	4b1f      	ldr	r3, [pc, #124]	; (80033d0 <fsm_handle_event+0x14e4>)
 8003352:	781b      	ldrb	r3, [r3, #0]
 8003354:	3b01      	subs	r3, #1
 8003356:	b2da      	uxtb	r2, r3
 8003358:	4b1d      	ldr	r3, [pc, #116]	; (80033d0 <fsm_handle_event+0x14e4>)
 800335a:	701a      	strb	r2, [r3, #0]
 800335c:	e006      	b.n	800336c <fsm_handle_event+0x1480>
        				} else if (set_mon == 1) {
 800335e:	4b1c      	ldr	r3, [pc, #112]	; (80033d0 <fsm_handle_event+0x14e4>)
 8003360:	781b      	ldrb	r3, [r3, #0]
 8003362:	2b01      	cmp	r3, #1
 8003364:	d102      	bne.n	800336c <fsm_handle_event+0x1480>
        					set_mon = 12;
 8003366:	4b1a      	ldr	r3, [pc, #104]	; (80033d0 <fsm_handle_event+0x14e4>)
 8003368:	220c      	movs	r2, #12
 800336a:	701a      	strb	r2, [r3, #0]
        				}
        				ah_draw_cursor(4);
 800336c:	2004      	movs	r0, #4
 800336e:	f7fd f847 	bl	8000400 <ah_draw_cursor>
        				st7565_drawmenu_settime(LCD_Buffer, set_hour, set_min, set_day, set_mon, set_year);
 8003372:	4b15      	ldr	r3, [pc, #84]	; (80033c8 <fsm_handle_event+0x14dc>)
 8003374:	7819      	ldrb	r1, [r3, #0]
 8003376:	4b13      	ldr	r3, [pc, #76]	; (80033c4 <fsm_handle_event+0x14d8>)
 8003378:	781c      	ldrb	r4, [r3, #0]
 800337a:	4b14      	ldr	r3, [pc, #80]	; (80033cc <fsm_handle_event+0x14e0>)
 800337c:	781d      	ldrb	r5, [r3, #0]
 800337e:	4b14      	ldr	r3, [pc, #80]	; (80033d0 <fsm_handle_event+0x14e4>)
 8003380:	781b      	ldrb	r3, [r3, #0]
 8003382:	4a14      	ldr	r2, [pc, #80]	; (80033d4 <fsm_handle_event+0x14e8>)
 8003384:	7812      	ldrb	r2, [r2, #0]
 8003386:	4814      	ldr	r0, [pc, #80]	; (80033d8 <fsm_handle_event+0x14ec>)
 8003388:	9201      	str	r2, [sp, #4]
 800338a:	9300      	str	r3, [sp, #0]
 800338c:	002b      	movs	r3, r5
 800338e:	0022      	movs	r2, r4
 8003390:	f7fe fb0a 	bl	80019a8 <st7565_drawmenu_settime>
        				st7565_write_buffer(LCD_Buffer);
 8003394:	4b10      	ldr	r3, [pc, #64]	; (80033d8 <fsm_handle_event+0x14ec>)
 8003396:	0018      	movs	r0, r3
 8003398:	f7fd fb42 	bl	8000a20 <st7565_write_buffer>
        				state = MENU_SETTIME_MONTH;
 800339c:	4b0f      	ldr	r3, [pc, #60]	; (80033dc <fsm_handle_event+0x14f0>)
 800339e:	221a      	movs	r2, #26
 80033a0:	701a      	strb	r2, [r3, #0]
        				break;
 80033a2:	e085      	b.n	80034b0 <fsm_handle_event+0x15c4>

        			case EV_BUTTON_RT:
        				st7565_clear_buffer(LCD_Buffer);
 80033a4:	4b0c      	ldr	r3, [pc, #48]	; (80033d8 <fsm_handle_event+0x14ec>)
 80033a6:	0018      	movs	r0, r3
 80033a8:	f7fd fca2 	bl	8000cf0 <st7565_clear_buffer>
        				if (set_mon < 12) {
 80033ac:	4b08      	ldr	r3, [pc, #32]	; (80033d0 <fsm_handle_event+0x14e4>)
 80033ae:	781b      	ldrb	r3, [r3, #0]
 80033b0:	2b0b      	cmp	r3, #11
 80033b2:	d815      	bhi.n	80033e0 <fsm_handle_event+0x14f4>
        					set_mon += 1;
 80033b4:	4b06      	ldr	r3, [pc, #24]	; (80033d0 <fsm_handle_event+0x14e4>)
 80033b6:	781b      	ldrb	r3, [r3, #0]
 80033b8:	3301      	adds	r3, #1
 80033ba:	b2da      	uxtb	r2, r3
 80033bc:	4b04      	ldr	r3, [pc, #16]	; (80033d0 <fsm_handle_event+0x14e4>)
 80033be:	701a      	strb	r2, [r3, #0]
 80033c0:	e015      	b.n	80033ee <fsm_handle_event+0x1502>
 80033c2:	46c0      	nop			; (mov r8, r8)
 80033c4:	2000003d 	.word	0x2000003d
 80033c8:	2000003c 	.word	0x2000003c
 80033cc:	20000010 	.word	0x20000010
 80033d0:	20000011 	.word	0x20000011
 80033d4:	20000012 	.word	0x20000012
 80033d8:	200000d8 	.word	0x200000d8
 80033dc:	20000040 	.word	0x20000040
        				} else if (set_min == 12) {
 80033e0:	4bdf      	ldr	r3, [pc, #892]	; (8003760 <fsm_handle_event+0x1874>)
 80033e2:	781b      	ldrb	r3, [r3, #0]
 80033e4:	2b0c      	cmp	r3, #12
 80033e6:	d102      	bne.n	80033ee <fsm_handle_event+0x1502>
        					set_mon = 1;
 80033e8:	4bde      	ldr	r3, [pc, #888]	; (8003764 <fsm_handle_event+0x1878>)
 80033ea:	2201      	movs	r2, #1
 80033ec:	701a      	strb	r2, [r3, #0]
        				}
        				ah_draw_cursor(4);
 80033ee:	2004      	movs	r0, #4
 80033f0:	f7fd f806 	bl	8000400 <ah_draw_cursor>
        				st7565_drawmenu_settime(LCD_Buffer, set_hour, set_min, set_day, set_mon, set_year);
 80033f4:	4bdc      	ldr	r3, [pc, #880]	; (8003768 <fsm_handle_event+0x187c>)
 80033f6:	7819      	ldrb	r1, [r3, #0]
 80033f8:	4bd9      	ldr	r3, [pc, #868]	; (8003760 <fsm_handle_event+0x1874>)
 80033fa:	781c      	ldrb	r4, [r3, #0]
 80033fc:	4bdb      	ldr	r3, [pc, #876]	; (800376c <fsm_handle_event+0x1880>)
 80033fe:	781d      	ldrb	r5, [r3, #0]
 8003400:	4bd8      	ldr	r3, [pc, #864]	; (8003764 <fsm_handle_event+0x1878>)
 8003402:	781b      	ldrb	r3, [r3, #0]
 8003404:	4ada      	ldr	r2, [pc, #872]	; (8003770 <fsm_handle_event+0x1884>)
 8003406:	7812      	ldrb	r2, [r2, #0]
 8003408:	48da      	ldr	r0, [pc, #872]	; (8003774 <fsm_handle_event+0x1888>)
 800340a:	9201      	str	r2, [sp, #4]
 800340c:	9300      	str	r3, [sp, #0]
 800340e:	002b      	movs	r3, r5
 8003410:	0022      	movs	r2, r4
 8003412:	f7fe fac9 	bl	80019a8 <st7565_drawmenu_settime>
        				st7565_write_buffer(LCD_Buffer);
 8003416:	4bd7      	ldr	r3, [pc, #860]	; (8003774 <fsm_handle_event+0x1888>)
 8003418:	0018      	movs	r0, r3
 800341a:	f7fd fb01 	bl	8000a20 <st7565_write_buffer>
        				state = MENU_SETTIME_MONTH;
 800341e:	4bd6      	ldr	r3, [pc, #856]	; (8003778 <fsm_handle_event+0x188c>)
 8003420:	221a      	movs	r2, #26
 8003422:	701a      	strb	r2, [r3, #0]
        				break;
 8003424:	e044      	b.n	80034b0 <fsm_handle_event+0x15c4>

        			case EV_BUTTON_UP:
        				st7565_clear_buffer(LCD_Buffer);
 8003426:	4bd3      	ldr	r3, [pc, #844]	; (8003774 <fsm_handle_event+0x1888>)
 8003428:	0018      	movs	r0, r3
 800342a:	f7fd fc61 	bl	8000cf0 <st7565_clear_buffer>
        				st7565_drawmenu_settime(LCD_Buffer, set_hour, set_min, set_day, set_mon, set_year);
 800342e:	4bce      	ldr	r3, [pc, #824]	; (8003768 <fsm_handle_event+0x187c>)
 8003430:	7819      	ldrb	r1, [r3, #0]
 8003432:	4bcb      	ldr	r3, [pc, #812]	; (8003760 <fsm_handle_event+0x1874>)
 8003434:	781c      	ldrb	r4, [r3, #0]
 8003436:	4bcd      	ldr	r3, [pc, #820]	; (800376c <fsm_handle_event+0x1880>)
 8003438:	781d      	ldrb	r5, [r3, #0]
 800343a:	4bca      	ldr	r3, [pc, #808]	; (8003764 <fsm_handle_event+0x1878>)
 800343c:	781b      	ldrb	r3, [r3, #0]
 800343e:	4acc      	ldr	r2, [pc, #816]	; (8003770 <fsm_handle_event+0x1884>)
 8003440:	7812      	ldrb	r2, [r2, #0]
 8003442:	48cc      	ldr	r0, [pc, #816]	; (8003774 <fsm_handle_event+0x1888>)
 8003444:	9201      	str	r2, [sp, #4]
 8003446:	9300      	str	r3, [sp, #0]
 8003448:	002b      	movs	r3, r5
 800344a:	0022      	movs	r2, r4
 800344c:	f7fe faac 	bl	80019a8 <st7565_drawmenu_settime>
        				ah_draw_cursor(3);
 8003450:	2003      	movs	r0, #3
 8003452:	f7fc ffd5 	bl	8000400 <ah_draw_cursor>
        				st7565_write_buffer(LCD_Buffer);
 8003456:	4bc7      	ldr	r3, [pc, #796]	; (8003774 <fsm_handle_event+0x1888>)
 8003458:	0018      	movs	r0, r3
 800345a:	f7fd fae1 	bl	8000a20 <st7565_write_buffer>
        				state = MENU_SETTIME_DAY;
 800345e:	4bc6      	ldr	r3, [pc, #792]	; (8003778 <fsm_handle_event+0x188c>)
 8003460:	2219      	movs	r2, #25
 8003462:	701a      	strb	r2, [r3, #0]
        				break;
 8003464:	e024      	b.n	80034b0 <fsm_handle_event+0x15c4>

        			case EV_BUTTON_DN:
        				st7565_clear_buffer(LCD_Buffer);
 8003466:	4bc3      	ldr	r3, [pc, #780]	; (8003774 <fsm_handle_event+0x1888>)
 8003468:	0018      	movs	r0, r3
 800346a:	f7fd fc41 	bl	8000cf0 <st7565_clear_buffer>
        				st7565_drawmenu_settime(LCD_Buffer, set_hour, set_min, set_day, set_mon, set_year);
 800346e:	4bbe      	ldr	r3, [pc, #760]	; (8003768 <fsm_handle_event+0x187c>)
 8003470:	7819      	ldrb	r1, [r3, #0]
 8003472:	4bbb      	ldr	r3, [pc, #748]	; (8003760 <fsm_handle_event+0x1874>)
 8003474:	781c      	ldrb	r4, [r3, #0]
 8003476:	4bbd      	ldr	r3, [pc, #756]	; (800376c <fsm_handle_event+0x1880>)
 8003478:	781d      	ldrb	r5, [r3, #0]
 800347a:	4bba      	ldr	r3, [pc, #744]	; (8003764 <fsm_handle_event+0x1878>)
 800347c:	781b      	ldrb	r3, [r3, #0]
 800347e:	4abc      	ldr	r2, [pc, #752]	; (8003770 <fsm_handle_event+0x1884>)
 8003480:	7812      	ldrb	r2, [r2, #0]
 8003482:	48bc      	ldr	r0, [pc, #752]	; (8003774 <fsm_handle_event+0x1888>)
 8003484:	9201      	str	r2, [sp, #4]
 8003486:	9300      	str	r3, [sp, #0]
 8003488:	002b      	movs	r3, r5
 800348a:	0022      	movs	r2, r4
 800348c:	f7fe fa8c 	bl	80019a8 <st7565_drawmenu_settime>
        				ah_draw_cursor(5);
 8003490:	2005      	movs	r0, #5
 8003492:	f7fc ffb5 	bl	8000400 <ah_draw_cursor>
        				st7565_write_buffer(LCD_Buffer);
 8003496:	4bb7      	ldr	r3, [pc, #732]	; (8003774 <fsm_handle_event+0x1888>)
 8003498:	0018      	movs	r0, r3
 800349a:	f7fd fac1 	bl	8000a20 <st7565_write_buffer>
        				state = MENU_SETTIME_YEAR;
 800349e:	4bb6      	ldr	r3, [pc, #728]	; (8003778 <fsm_handle_event+0x188c>)
 80034a0:	221b      	movs	r2, #27
 80034a2:	701a      	strb	r2, [r3, #0]
        				break;
 80034a4:	e004      	b.n	80034b0 <fsm_handle_event+0x15c4>

        			default:
        				state = MENU_SETTIME_MONTH;
 80034a6:	4bb4      	ldr	r3, [pc, #720]	; (8003778 <fsm_handle_event+0x188c>)
 80034a8:	221a      	movs	r2, #26
 80034aa:	701a      	strb	r2, [r3, #0]
                }
            	break;
 80034ac:	f000 fc8f 	bl	8003dce <fsm_handle_event+0x1ee2>
 80034b0:	f000 fc8d 	bl	8003dce <fsm_handle_event+0x1ee2>


            case MENU_SETTIME_YEAR:
            	switch (event) {
 80034b4:	1dfb      	adds	r3, r7, #7
 80034b6:	781b      	ldrb	r3, [r3, #0]
 80034b8:	2b02      	cmp	r3, #2
 80034ba:	d100      	bne.n	80034be <fsm_handle_event+0x15d2>
 80034bc:	e080      	b.n	80035c0 <fsm_handle_event+0x16d4>
 80034be:	dc02      	bgt.n	80034c6 <fsm_handle_event+0x15da>
 80034c0:	2b01      	cmp	r3, #1
 80034c2:	d05d      	beq.n	8003580 <fsm_handle_event+0x1694>
 80034c4:	e09c      	b.n	8003600 <fsm_handle_event+0x1714>
 80034c6:	2b03      	cmp	r3, #3
 80034c8:	d002      	beq.n	80034d0 <fsm_handle_event+0x15e4>
 80034ca:	2b04      	cmp	r3, #4
 80034cc:	d032      	beq.n	8003534 <fsm_handle_event+0x1648>
 80034ce:	e097      	b.n	8003600 <fsm_handle_event+0x1714>
        			case EV_BUTTON_LT:
        				st7565_clear_buffer(LCD_Buffer);
 80034d0:	4ba8      	ldr	r3, [pc, #672]	; (8003774 <fsm_handle_event+0x1888>)
 80034d2:	0018      	movs	r0, r3
 80034d4:	f7fd fc0c 	bl	8000cf0 <st7565_clear_buffer>
        				if (set_year > 10) {
 80034d8:	4ba5      	ldr	r3, [pc, #660]	; (8003770 <fsm_handle_event+0x1884>)
 80034da:	781b      	ldrb	r3, [r3, #0]
 80034dc:	2b0a      	cmp	r3, #10
 80034de:	d906      	bls.n	80034ee <fsm_handle_event+0x1602>
        					set_year -= 1;
 80034e0:	4ba3      	ldr	r3, [pc, #652]	; (8003770 <fsm_handle_event+0x1884>)
 80034e2:	781b      	ldrb	r3, [r3, #0]
 80034e4:	3b01      	subs	r3, #1
 80034e6:	b2da      	uxtb	r2, r3
 80034e8:	4ba1      	ldr	r3, [pc, #644]	; (8003770 <fsm_handle_event+0x1884>)
 80034ea:	701a      	strb	r2, [r3, #0]
 80034ec:	e006      	b.n	80034fc <fsm_handle_event+0x1610>
        				} else if (set_year == 10) {
 80034ee:	4ba0      	ldr	r3, [pc, #640]	; (8003770 <fsm_handle_event+0x1884>)
 80034f0:	781b      	ldrb	r3, [r3, #0]
 80034f2:	2b0a      	cmp	r3, #10
 80034f4:	d102      	bne.n	80034fc <fsm_handle_event+0x1610>
        					set_year = 99;
 80034f6:	4b9e      	ldr	r3, [pc, #632]	; (8003770 <fsm_handle_event+0x1884>)
 80034f8:	2263      	movs	r2, #99	; 0x63
 80034fa:	701a      	strb	r2, [r3, #0]
        				}
        				ah_draw_cursor(5);
 80034fc:	2005      	movs	r0, #5
 80034fe:	f7fc ff7f 	bl	8000400 <ah_draw_cursor>
        				st7565_drawmenu_settime(LCD_Buffer, set_hour, set_min, set_day, set_mon, set_year);
 8003502:	4b99      	ldr	r3, [pc, #612]	; (8003768 <fsm_handle_event+0x187c>)
 8003504:	7819      	ldrb	r1, [r3, #0]
 8003506:	4b96      	ldr	r3, [pc, #600]	; (8003760 <fsm_handle_event+0x1874>)
 8003508:	781c      	ldrb	r4, [r3, #0]
 800350a:	4b98      	ldr	r3, [pc, #608]	; (800376c <fsm_handle_event+0x1880>)
 800350c:	781d      	ldrb	r5, [r3, #0]
 800350e:	4b95      	ldr	r3, [pc, #596]	; (8003764 <fsm_handle_event+0x1878>)
 8003510:	781b      	ldrb	r3, [r3, #0]
 8003512:	4a97      	ldr	r2, [pc, #604]	; (8003770 <fsm_handle_event+0x1884>)
 8003514:	7812      	ldrb	r2, [r2, #0]
 8003516:	4897      	ldr	r0, [pc, #604]	; (8003774 <fsm_handle_event+0x1888>)
 8003518:	9201      	str	r2, [sp, #4]
 800351a:	9300      	str	r3, [sp, #0]
 800351c:	002b      	movs	r3, r5
 800351e:	0022      	movs	r2, r4
 8003520:	f7fe fa42 	bl	80019a8 <st7565_drawmenu_settime>
        				st7565_write_buffer(LCD_Buffer);
 8003524:	4b93      	ldr	r3, [pc, #588]	; (8003774 <fsm_handle_event+0x1888>)
 8003526:	0018      	movs	r0, r3
 8003528:	f7fd fa7a 	bl	8000a20 <st7565_write_buffer>
        				state = MENU_SETTIME_YEAR;
 800352c:	4b92      	ldr	r3, [pc, #584]	; (8003778 <fsm_handle_event+0x188c>)
 800352e:	221b      	movs	r2, #27
 8003530:	701a      	strb	r2, [r3, #0]
        				break;
 8003532:	e06a      	b.n	800360a <fsm_handle_event+0x171e>

        			case EV_BUTTON_RT:
        				st7565_clear_buffer(LCD_Buffer);
 8003534:	4b8f      	ldr	r3, [pc, #572]	; (8003774 <fsm_handle_event+0x1888>)
 8003536:	0018      	movs	r0, r3
 8003538:	f7fd fbda 	bl	8000cf0 <st7565_clear_buffer>
        				if (set_year < 2100) {
        					set_year += 1;
 800353c:	4b8c      	ldr	r3, [pc, #560]	; (8003770 <fsm_handle_event+0x1884>)
 800353e:	781b      	ldrb	r3, [r3, #0]
 8003540:	3301      	adds	r3, #1
 8003542:	b2da      	uxtb	r2, r3
 8003544:	4b8a      	ldr	r3, [pc, #552]	; (8003770 <fsm_handle_event+0x1884>)
 8003546:	701a      	strb	r2, [r3, #0]
        				} else if (set_year == 2100) {
        					set_year = 2010;
        				}
        				ah_draw_cursor(5);
 8003548:	2005      	movs	r0, #5
 800354a:	f7fc ff59 	bl	8000400 <ah_draw_cursor>
        				st7565_drawmenu_settime(LCD_Buffer, set_hour, set_min, set_day, set_mon, set_year);
 800354e:	4b86      	ldr	r3, [pc, #536]	; (8003768 <fsm_handle_event+0x187c>)
 8003550:	7819      	ldrb	r1, [r3, #0]
 8003552:	4b83      	ldr	r3, [pc, #524]	; (8003760 <fsm_handle_event+0x1874>)
 8003554:	781c      	ldrb	r4, [r3, #0]
 8003556:	4b85      	ldr	r3, [pc, #532]	; (800376c <fsm_handle_event+0x1880>)
 8003558:	781d      	ldrb	r5, [r3, #0]
 800355a:	4b82      	ldr	r3, [pc, #520]	; (8003764 <fsm_handle_event+0x1878>)
 800355c:	781b      	ldrb	r3, [r3, #0]
 800355e:	4a84      	ldr	r2, [pc, #528]	; (8003770 <fsm_handle_event+0x1884>)
 8003560:	7812      	ldrb	r2, [r2, #0]
 8003562:	4884      	ldr	r0, [pc, #528]	; (8003774 <fsm_handle_event+0x1888>)
 8003564:	9201      	str	r2, [sp, #4]
 8003566:	9300      	str	r3, [sp, #0]
 8003568:	002b      	movs	r3, r5
 800356a:	0022      	movs	r2, r4
 800356c:	f7fe fa1c 	bl	80019a8 <st7565_drawmenu_settime>
        				st7565_write_buffer(LCD_Buffer);
 8003570:	4b80      	ldr	r3, [pc, #512]	; (8003774 <fsm_handle_event+0x1888>)
 8003572:	0018      	movs	r0, r3
 8003574:	f7fd fa54 	bl	8000a20 <st7565_write_buffer>
        				state = MENU_SETTIME_YEAR;
 8003578:	4b7f      	ldr	r3, [pc, #508]	; (8003778 <fsm_handle_event+0x188c>)
 800357a:	221b      	movs	r2, #27
 800357c:	701a      	strb	r2, [r3, #0]
        				break;
 800357e:	e044      	b.n	800360a <fsm_handle_event+0x171e>

        			case EV_BUTTON_UP:
        				st7565_clear_buffer(LCD_Buffer);
 8003580:	4b7c      	ldr	r3, [pc, #496]	; (8003774 <fsm_handle_event+0x1888>)
 8003582:	0018      	movs	r0, r3
 8003584:	f7fd fbb4 	bl	8000cf0 <st7565_clear_buffer>
        				st7565_drawmenu_settime(LCD_Buffer, set_hour, set_min, set_day, set_mon, set_year);
 8003588:	4b77      	ldr	r3, [pc, #476]	; (8003768 <fsm_handle_event+0x187c>)
 800358a:	7819      	ldrb	r1, [r3, #0]
 800358c:	4b74      	ldr	r3, [pc, #464]	; (8003760 <fsm_handle_event+0x1874>)
 800358e:	781c      	ldrb	r4, [r3, #0]
 8003590:	4b76      	ldr	r3, [pc, #472]	; (800376c <fsm_handle_event+0x1880>)
 8003592:	781d      	ldrb	r5, [r3, #0]
 8003594:	4b73      	ldr	r3, [pc, #460]	; (8003764 <fsm_handle_event+0x1878>)
 8003596:	781b      	ldrb	r3, [r3, #0]
 8003598:	4a75      	ldr	r2, [pc, #468]	; (8003770 <fsm_handle_event+0x1884>)
 800359a:	7812      	ldrb	r2, [r2, #0]
 800359c:	4875      	ldr	r0, [pc, #468]	; (8003774 <fsm_handle_event+0x1888>)
 800359e:	9201      	str	r2, [sp, #4]
 80035a0:	9300      	str	r3, [sp, #0]
 80035a2:	002b      	movs	r3, r5
 80035a4:	0022      	movs	r2, r4
 80035a6:	f7fe f9ff 	bl	80019a8 <st7565_drawmenu_settime>
        				ah_draw_cursor(4);
 80035aa:	2004      	movs	r0, #4
 80035ac:	f7fc ff28 	bl	8000400 <ah_draw_cursor>
        				st7565_write_buffer(LCD_Buffer);
 80035b0:	4b70      	ldr	r3, [pc, #448]	; (8003774 <fsm_handle_event+0x1888>)
 80035b2:	0018      	movs	r0, r3
 80035b4:	f7fd fa34 	bl	8000a20 <st7565_write_buffer>
        				state = MENU_SETTIME_MONTH;
 80035b8:	4b6f      	ldr	r3, [pc, #444]	; (8003778 <fsm_handle_event+0x188c>)
 80035ba:	221a      	movs	r2, #26
 80035bc:	701a      	strb	r2, [r3, #0]
        				break;
 80035be:	e024      	b.n	800360a <fsm_handle_event+0x171e>

        			case EV_BUTTON_DN:
        				st7565_clear_buffer(LCD_Buffer);
 80035c0:	4b6c      	ldr	r3, [pc, #432]	; (8003774 <fsm_handle_event+0x1888>)
 80035c2:	0018      	movs	r0, r3
 80035c4:	f7fd fb94 	bl	8000cf0 <st7565_clear_buffer>
        				st7565_drawmenu_settime(LCD_Buffer, set_hour, set_min, set_day, set_mon, set_year);
 80035c8:	4b67      	ldr	r3, [pc, #412]	; (8003768 <fsm_handle_event+0x187c>)
 80035ca:	7819      	ldrb	r1, [r3, #0]
 80035cc:	4b64      	ldr	r3, [pc, #400]	; (8003760 <fsm_handle_event+0x1874>)
 80035ce:	781c      	ldrb	r4, [r3, #0]
 80035d0:	4b66      	ldr	r3, [pc, #408]	; (800376c <fsm_handle_event+0x1880>)
 80035d2:	781d      	ldrb	r5, [r3, #0]
 80035d4:	4b63      	ldr	r3, [pc, #396]	; (8003764 <fsm_handle_event+0x1878>)
 80035d6:	781b      	ldrb	r3, [r3, #0]
 80035d8:	4a65      	ldr	r2, [pc, #404]	; (8003770 <fsm_handle_event+0x1884>)
 80035da:	7812      	ldrb	r2, [r2, #0]
 80035dc:	4865      	ldr	r0, [pc, #404]	; (8003774 <fsm_handle_event+0x1888>)
 80035de:	9201      	str	r2, [sp, #4]
 80035e0:	9300      	str	r3, [sp, #0]
 80035e2:	002b      	movs	r3, r5
 80035e4:	0022      	movs	r2, r4
 80035e6:	f7fe f9df 	bl	80019a8 <st7565_drawmenu_settime>
        				ah_draw_cursor(6);
 80035ea:	2006      	movs	r0, #6
 80035ec:	f7fc ff08 	bl	8000400 <ah_draw_cursor>
        				st7565_write_buffer(LCD_Buffer);
 80035f0:	4b60      	ldr	r3, [pc, #384]	; (8003774 <fsm_handle_event+0x1888>)
 80035f2:	0018      	movs	r0, r3
 80035f4:	f7fd fa14 	bl	8000a20 <st7565_write_buffer>
        				state = MENU_SETTIME_RETURN;
 80035f8:	4b5f      	ldr	r3, [pc, #380]	; (8003778 <fsm_handle_event+0x188c>)
 80035fa:	221c      	movs	r2, #28
 80035fc:	701a      	strb	r2, [r3, #0]
        				break;
 80035fe:	e004      	b.n	800360a <fsm_handle_event+0x171e>

        			default:
        				state = MENU_SETTIME_YEAR;
 8003600:	4b5d      	ldr	r3, [pc, #372]	; (8003778 <fsm_handle_event+0x188c>)
 8003602:	221b      	movs	r2, #27
 8003604:	701a      	strb	r2, [r3, #0]
                }
            	break;
 8003606:	f000 fbe2 	bl	8003dce <fsm_handle_event+0x1ee2>
 800360a:	f000 fbe0 	bl	8003dce <fsm_handle_event+0x1ee2>


            case MENU_SETTIME_RETURN:
            	switch (event) {
 800360e:	1dfb      	adds	r3, r7, #7
 8003610:	781b      	ldrb	r3, [r3, #0]
 8003612:	2b02      	cmp	r3, #2
 8003614:	d036      	beq.n	8003684 <fsm_handle_event+0x1798>
 8003616:	2b05      	cmp	r3, #5
 8003618:	d002      	beq.n	8003620 <fsm_handle_event+0x1734>
 800361a:	2b01      	cmp	r3, #1
 800361c:	d012      	beq.n	8003644 <fsm_handle_event+0x1758>
 800361e:	e051      	b.n	80036c4 <fsm_handle_event+0x17d8>
        		case EV_BUTTON_SL:
        			st7565_clear_buffer(LCD_Buffer);
 8003620:	4b54      	ldr	r3, [pc, #336]	; (8003774 <fsm_handle_event+0x1888>)
 8003622:	0018      	movs	r0, r3
 8003624:	f7fd fb64 	bl	8000cf0 <st7565_clear_buffer>
        			ah_menu(clock);
 8003628:	2001      	movs	r0, #1
 800362a:	f7fc fefd 	bl	8000428 <ah_menu>
        			ah_draw_cursor(1);
 800362e:	2001      	movs	r0, #1
 8003630:	f7fc fee6 	bl	8000400 <ah_draw_cursor>
        			st7565_write_buffer(LCD_Buffer);
 8003634:	4b4f      	ldr	r3, [pc, #316]	; (8003774 <fsm_handle_event+0x1888>)
 8003636:	0018      	movs	r0, r3
 8003638:	f7fd f9f2 	bl	8000a20 <st7565_write_buffer>
        			state = MENU_CLOCK_TIME;
 800363c:	4b4e      	ldr	r3, [pc, #312]	; (8003778 <fsm_handle_event+0x188c>)
 800363e:	2206      	movs	r2, #6
 8003640:	701a      	strb	r2, [r3, #0]
        			break;
 8003642:	e044      	b.n	80036ce <fsm_handle_event+0x17e2>
        		case EV_BUTTON_UP:
        			st7565_clear_buffer(LCD_Buffer);
 8003644:	4b4b      	ldr	r3, [pc, #300]	; (8003774 <fsm_handle_event+0x1888>)
 8003646:	0018      	movs	r0, r3
 8003648:	f7fd fb52 	bl	8000cf0 <st7565_clear_buffer>
    				st7565_drawmenu_settime(LCD_Buffer, set_hour, set_min, set_day, set_mon, set_year);
 800364c:	4b46      	ldr	r3, [pc, #280]	; (8003768 <fsm_handle_event+0x187c>)
 800364e:	7819      	ldrb	r1, [r3, #0]
 8003650:	4b43      	ldr	r3, [pc, #268]	; (8003760 <fsm_handle_event+0x1874>)
 8003652:	781c      	ldrb	r4, [r3, #0]
 8003654:	4b45      	ldr	r3, [pc, #276]	; (800376c <fsm_handle_event+0x1880>)
 8003656:	781d      	ldrb	r5, [r3, #0]
 8003658:	4b42      	ldr	r3, [pc, #264]	; (8003764 <fsm_handle_event+0x1878>)
 800365a:	781b      	ldrb	r3, [r3, #0]
 800365c:	4a44      	ldr	r2, [pc, #272]	; (8003770 <fsm_handle_event+0x1884>)
 800365e:	7812      	ldrb	r2, [r2, #0]
 8003660:	4844      	ldr	r0, [pc, #272]	; (8003774 <fsm_handle_event+0x1888>)
 8003662:	9201      	str	r2, [sp, #4]
 8003664:	9300      	str	r3, [sp, #0]
 8003666:	002b      	movs	r3, r5
 8003668:	0022      	movs	r2, r4
 800366a:	f7fe f99d 	bl	80019a8 <st7565_drawmenu_settime>
    				ah_draw_cursor(5);
 800366e:	2005      	movs	r0, #5
 8003670:	f7fc fec6 	bl	8000400 <ah_draw_cursor>
        			st7565_write_buffer(LCD_Buffer);
 8003674:	4b3f      	ldr	r3, [pc, #252]	; (8003774 <fsm_handle_event+0x1888>)
 8003676:	0018      	movs	r0, r3
 8003678:	f7fd f9d2 	bl	8000a20 <st7565_write_buffer>
        			state = MENU_SETTIME_YEAR;
 800367c:	4b3e      	ldr	r3, [pc, #248]	; (8003778 <fsm_handle_event+0x188c>)
 800367e:	221b      	movs	r2, #27
 8003680:	701a      	strb	r2, [r3, #0]
        			break;
 8003682:	e024      	b.n	80036ce <fsm_handle_event+0x17e2>

        		case EV_BUTTON_DN:
        			st7565_clear_buffer(LCD_Buffer);
 8003684:	4b3b      	ldr	r3, [pc, #236]	; (8003774 <fsm_handle_event+0x1888>)
 8003686:	0018      	movs	r0, r3
 8003688:	f7fd fb32 	bl	8000cf0 <st7565_clear_buffer>
    				st7565_drawmenu_settime(LCD_Buffer, set_hour, set_min, set_day, set_mon, set_year);
 800368c:	4b36      	ldr	r3, [pc, #216]	; (8003768 <fsm_handle_event+0x187c>)
 800368e:	7819      	ldrb	r1, [r3, #0]
 8003690:	4b33      	ldr	r3, [pc, #204]	; (8003760 <fsm_handle_event+0x1874>)
 8003692:	781c      	ldrb	r4, [r3, #0]
 8003694:	4b35      	ldr	r3, [pc, #212]	; (800376c <fsm_handle_event+0x1880>)
 8003696:	781d      	ldrb	r5, [r3, #0]
 8003698:	4b32      	ldr	r3, [pc, #200]	; (8003764 <fsm_handle_event+0x1878>)
 800369a:	781b      	ldrb	r3, [r3, #0]
 800369c:	4a34      	ldr	r2, [pc, #208]	; (8003770 <fsm_handle_event+0x1884>)
 800369e:	7812      	ldrb	r2, [r2, #0]
 80036a0:	4834      	ldr	r0, [pc, #208]	; (8003774 <fsm_handle_event+0x1888>)
 80036a2:	9201      	str	r2, [sp, #4]
 80036a4:	9300      	str	r3, [sp, #0]
 80036a6:	002b      	movs	r3, r5
 80036a8:	0022      	movs	r2, r4
 80036aa:	f7fe f97d 	bl	80019a8 <st7565_drawmenu_settime>
    				ah_draw_cursor(1);
 80036ae:	2001      	movs	r0, #1
 80036b0:	f7fc fea6 	bl	8000400 <ah_draw_cursor>
        			st7565_write_buffer(LCD_Buffer);
 80036b4:	4b2f      	ldr	r3, [pc, #188]	; (8003774 <fsm_handle_event+0x1888>)
 80036b6:	0018      	movs	r0, r3
 80036b8:	f7fd f9b2 	bl	8000a20 <st7565_write_buffer>
        			state = MENU_SETTIME_HOUR;
 80036bc:	4b2e      	ldr	r3, [pc, #184]	; (8003778 <fsm_handle_event+0x188c>)
 80036be:	2217      	movs	r2, #23
 80036c0:	701a      	strb	r2, [r3, #0]
        			break;
 80036c2:	e004      	b.n	80036ce <fsm_handle_event+0x17e2>

                default:
                	state = MENU_SETTIME_RETURN;
 80036c4:	4b2c      	ldr	r3, [pc, #176]	; (8003778 <fsm_handle_event+0x188c>)
 80036c6:	221c      	movs	r2, #28
 80036c8:	701a      	strb	r2, [r3, #0]
                }
            	break;
 80036ca:	f000 fb80 	bl	8003dce <fsm_handle_event+0x1ee2>
 80036ce:	f000 fb7e 	bl	8003dce <fsm_handle_event+0x1ee2>
//=======================================================================================================================
// Menu - Clock - Alarm   (Set Alarm Time)
//=======================================================================================================================

            case MENU_ALARM_HOUR:
            	switch (event) {
 80036d2:	1dfb      	adds	r3, r7, #7
 80036d4:	781b      	ldrb	r3, [r3, #0]
 80036d6:	2b02      	cmp	r3, #2
 80036d8:	d100      	bne.n	80036dc <fsm_handle_event+0x17f0>
 80036da:	e084      	b.n	80037e6 <fsm_handle_event+0x18fa>
 80036dc:	dc02      	bgt.n	80036e4 <fsm_handle_event+0x17f8>
 80036de:	2b01      	cmp	r3, #1
 80036e0:	d06a      	beq.n	80037b8 <fsm_handle_event+0x18cc>
 80036e2:	e097      	b.n	8003814 <fsm_handle_event+0x1928>
 80036e4:	2b03      	cmp	r3, #3
 80036e6:	d002      	beq.n	80036ee <fsm_handle_event+0x1802>
 80036e8:	2b04      	cmp	r3, #4
 80036ea:	d029      	beq.n	8003740 <fsm_handle_event+0x1854>
 80036ec:	e092      	b.n	8003814 <fsm_handle_event+0x1928>
        			case EV_BUTTON_LT:
        				st7565_clear_buffer(LCD_Buffer);
 80036ee:	4b21      	ldr	r3, [pc, #132]	; (8003774 <fsm_handle_event+0x1888>)
 80036f0:	0018      	movs	r0, r3
 80036f2:	f7fd fafd 	bl	8000cf0 <st7565_clear_buffer>
        				if (set_al_hr > 0) {
 80036f6:	4b21      	ldr	r3, [pc, #132]	; (800377c <fsm_handle_event+0x1890>)
 80036f8:	781b      	ldrb	r3, [r3, #0]
 80036fa:	2b00      	cmp	r3, #0
 80036fc:	d006      	beq.n	800370c <fsm_handle_event+0x1820>
        					set_al_hr -= 1;
 80036fe:	4b1f      	ldr	r3, [pc, #124]	; (800377c <fsm_handle_event+0x1890>)
 8003700:	781b      	ldrb	r3, [r3, #0]
 8003702:	3b01      	subs	r3, #1
 8003704:	b2da      	uxtb	r2, r3
 8003706:	4b1d      	ldr	r3, [pc, #116]	; (800377c <fsm_handle_event+0x1890>)
 8003708:	701a      	strb	r2, [r3, #0]
 800370a:	e006      	b.n	800371a <fsm_handle_event+0x182e>
        				} else if (set_al_hr == 0) {
 800370c:	4b1b      	ldr	r3, [pc, #108]	; (800377c <fsm_handle_event+0x1890>)
 800370e:	781b      	ldrb	r3, [r3, #0]
 8003710:	2b00      	cmp	r3, #0
 8003712:	d102      	bne.n	800371a <fsm_handle_event+0x182e>
        					set_al_hr = 23;
 8003714:	4b19      	ldr	r3, [pc, #100]	; (800377c <fsm_handle_event+0x1890>)
 8003716:	2217      	movs	r2, #23
 8003718:	701a      	strb	r2, [r3, #0]
        				}
        				ah_draw_cursor(1);
 800371a:	2001      	movs	r0, #1
 800371c:	f7fc fe70 	bl	8000400 <ah_draw_cursor>
        				st7565_drawmenu_setalarm(LCD_Buffer, set_al_hr, set_al_min);
 8003720:	4b16      	ldr	r3, [pc, #88]	; (800377c <fsm_handle_event+0x1890>)
 8003722:	7819      	ldrb	r1, [r3, #0]
 8003724:	4b16      	ldr	r3, [pc, #88]	; (8003780 <fsm_handle_event+0x1894>)
 8003726:	781a      	ldrb	r2, [r3, #0]
 8003728:	4b12      	ldr	r3, [pc, #72]	; (8003774 <fsm_handle_event+0x1888>)
 800372a:	0018      	movs	r0, r3
 800372c:	f7fe f9e0 	bl	8001af0 <st7565_drawmenu_setalarm>
        				st7565_write_buffer(LCD_Buffer);
 8003730:	4b10      	ldr	r3, [pc, #64]	; (8003774 <fsm_handle_event+0x1888>)
 8003732:	0018      	movs	r0, r3
 8003734:	f7fd f974 	bl	8000a20 <st7565_write_buffer>
        				state = MENU_ALARM_HOUR;
 8003738:	4b0f      	ldr	r3, [pc, #60]	; (8003778 <fsm_handle_event+0x188c>)
 800373a:	221d      	movs	r2, #29
 800373c:	701a      	strb	r2, [r3, #0]
        				break;
 800373e:	e06d      	b.n	800381c <fsm_handle_event+0x1930>

        			case EV_BUTTON_RT:
        				st7565_clear_buffer(LCD_Buffer);
 8003740:	4b0c      	ldr	r3, [pc, #48]	; (8003774 <fsm_handle_event+0x1888>)
 8003742:	0018      	movs	r0, r3
 8003744:	f7fd fad4 	bl	8000cf0 <st7565_clear_buffer>
        				if (set_al_hr < 23) {
 8003748:	4b0c      	ldr	r3, [pc, #48]	; (800377c <fsm_handle_event+0x1890>)
 800374a:	781b      	ldrb	r3, [r3, #0]
 800374c:	2b16      	cmp	r3, #22
 800374e:	d819      	bhi.n	8003784 <fsm_handle_event+0x1898>
        					set_al_hr += 1;
 8003750:	4b0a      	ldr	r3, [pc, #40]	; (800377c <fsm_handle_event+0x1890>)
 8003752:	781b      	ldrb	r3, [r3, #0]
 8003754:	3301      	adds	r3, #1
 8003756:	b2da      	uxtb	r2, r3
 8003758:	4b08      	ldr	r3, [pc, #32]	; (800377c <fsm_handle_event+0x1890>)
 800375a:	701a      	strb	r2, [r3, #0]
 800375c:	e019      	b.n	8003792 <fsm_handle_event+0x18a6>
 800375e:	46c0      	nop			; (mov r8, r8)
 8003760:	2000003d 	.word	0x2000003d
 8003764:	20000011 	.word	0x20000011
 8003768:	2000003c 	.word	0x2000003c
 800376c:	20000010 	.word	0x20000010
 8003770:	20000012 	.word	0x20000012
 8003774:	200000d8 	.word	0x200000d8
 8003778:	20000040 	.word	0x20000040
 800377c:	2000003e 	.word	0x2000003e
 8003780:	2000003f 	.word	0x2000003f
        				} else if (set_al_hr == 23) {
 8003784:	4bdb      	ldr	r3, [pc, #876]	; (8003af4 <fsm_handle_event+0x1c08>)
 8003786:	781b      	ldrb	r3, [r3, #0]
 8003788:	2b17      	cmp	r3, #23
 800378a:	d102      	bne.n	8003792 <fsm_handle_event+0x18a6>
        					set_al_hr = 0;
 800378c:	4bd9      	ldr	r3, [pc, #868]	; (8003af4 <fsm_handle_event+0x1c08>)
 800378e:	2200      	movs	r2, #0
 8003790:	701a      	strb	r2, [r3, #0]
        				}
        				ah_draw_cursor(1);
 8003792:	2001      	movs	r0, #1
 8003794:	f7fc fe34 	bl	8000400 <ah_draw_cursor>
        				st7565_drawmenu_setalarm(LCD_Buffer, set_al_hr, set_al_min);
 8003798:	4bd6      	ldr	r3, [pc, #856]	; (8003af4 <fsm_handle_event+0x1c08>)
 800379a:	7819      	ldrb	r1, [r3, #0]
 800379c:	4bd6      	ldr	r3, [pc, #856]	; (8003af8 <fsm_handle_event+0x1c0c>)
 800379e:	781a      	ldrb	r2, [r3, #0]
 80037a0:	4bd6      	ldr	r3, [pc, #856]	; (8003afc <fsm_handle_event+0x1c10>)
 80037a2:	0018      	movs	r0, r3
 80037a4:	f7fe f9a4 	bl	8001af0 <st7565_drawmenu_setalarm>
        				st7565_write_buffer(LCD_Buffer);
 80037a8:	4bd4      	ldr	r3, [pc, #848]	; (8003afc <fsm_handle_event+0x1c10>)
 80037aa:	0018      	movs	r0, r3
 80037ac:	f7fd f938 	bl	8000a20 <st7565_write_buffer>
        				state = MENU_ALARM_HOUR;
 80037b0:	4bd3      	ldr	r3, [pc, #844]	; (8003b00 <fsm_handle_event+0x1c14>)
 80037b2:	221d      	movs	r2, #29
 80037b4:	701a      	strb	r2, [r3, #0]
        				break;
 80037b6:	e031      	b.n	800381c <fsm_handle_event+0x1930>

        			case EV_BUTTON_UP:
        				st7565_clear_buffer(LCD_Buffer);
 80037b8:	4bd0      	ldr	r3, [pc, #832]	; (8003afc <fsm_handle_event+0x1c10>)
 80037ba:	0018      	movs	r0, r3
 80037bc:	f7fd fa98 	bl	8000cf0 <st7565_clear_buffer>
        				st7565_drawmenu_setalarm(LCD_Buffer, set_al_hr, set_al_min);
 80037c0:	4bcc      	ldr	r3, [pc, #816]	; (8003af4 <fsm_handle_event+0x1c08>)
 80037c2:	7819      	ldrb	r1, [r3, #0]
 80037c4:	4bcc      	ldr	r3, [pc, #816]	; (8003af8 <fsm_handle_event+0x1c0c>)
 80037c6:	781a      	ldrb	r2, [r3, #0]
 80037c8:	4bcc      	ldr	r3, [pc, #816]	; (8003afc <fsm_handle_event+0x1c10>)
 80037ca:	0018      	movs	r0, r3
 80037cc:	f7fe f990 	bl	8001af0 <st7565_drawmenu_setalarm>
        				ah_draw_cursor(3);
 80037d0:	2003      	movs	r0, #3
 80037d2:	f7fc fe15 	bl	8000400 <ah_draw_cursor>
        				st7565_write_buffer(LCD_Buffer);
 80037d6:	4bc9      	ldr	r3, [pc, #804]	; (8003afc <fsm_handle_event+0x1c10>)
 80037d8:	0018      	movs	r0, r3
 80037da:	f7fd f921 	bl	8000a20 <st7565_write_buffer>
        				state = MENU_ALARM_RETURN;
 80037de:	4bc8      	ldr	r3, [pc, #800]	; (8003b00 <fsm_handle_event+0x1c14>)
 80037e0:	221f      	movs	r2, #31
 80037e2:	701a      	strb	r2, [r3, #0]
        				break;
 80037e4:	e01a      	b.n	800381c <fsm_handle_event+0x1930>

        			case EV_BUTTON_DN:
        				st7565_clear_buffer(LCD_Buffer);
 80037e6:	4bc5      	ldr	r3, [pc, #788]	; (8003afc <fsm_handle_event+0x1c10>)
 80037e8:	0018      	movs	r0, r3
 80037ea:	f7fd fa81 	bl	8000cf0 <st7565_clear_buffer>
        				st7565_drawmenu_setalarm(LCD_Buffer, set_al_hr, set_al_min);
 80037ee:	4bc1      	ldr	r3, [pc, #772]	; (8003af4 <fsm_handle_event+0x1c08>)
 80037f0:	7819      	ldrb	r1, [r3, #0]
 80037f2:	4bc1      	ldr	r3, [pc, #772]	; (8003af8 <fsm_handle_event+0x1c0c>)
 80037f4:	781a      	ldrb	r2, [r3, #0]
 80037f6:	4bc1      	ldr	r3, [pc, #772]	; (8003afc <fsm_handle_event+0x1c10>)
 80037f8:	0018      	movs	r0, r3
 80037fa:	f7fe f979 	bl	8001af0 <st7565_drawmenu_setalarm>
        				ah_draw_cursor(2);
 80037fe:	2002      	movs	r0, #2
 8003800:	f7fc fdfe 	bl	8000400 <ah_draw_cursor>
        				st7565_write_buffer(LCD_Buffer);
 8003804:	4bbd      	ldr	r3, [pc, #756]	; (8003afc <fsm_handle_event+0x1c10>)
 8003806:	0018      	movs	r0, r3
 8003808:	f7fd f90a 	bl	8000a20 <st7565_write_buffer>
        				state = MENU_ALARM_MINUTE;
 800380c:	4bbc      	ldr	r3, [pc, #752]	; (8003b00 <fsm_handle_event+0x1c14>)
 800380e:	221e      	movs	r2, #30
 8003810:	701a      	strb	r2, [r3, #0]
        				break;
 8003812:	e003      	b.n	800381c <fsm_handle_event+0x1930>

        			default:
        				state = MENU_ALARM_HOUR;
 8003814:	4bba      	ldr	r3, [pc, #744]	; (8003b00 <fsm_handle_event+0x1c14>)
 8003816:	221d      	movs	r2, #29
 8003818:	701a      	strb	r2, [r3, #0]
                }
            	break;
 800381a:	e2d8      	b.n	8003dce <fsm_handle_event+0x1ee2>
 800381c:	e2d7      	b.n	8003dce <fsm_handle_event+0x1ee2>

            case MENU_ALARM_MINUTE:
            	switch (event) {
 800381e:	1dfb      	adds	r3, r7, #7
 8003820:	781b      	ldrb	r3, [r3, #0]
 8003822:	2b02      	cmp	r3, #2
 8003824:	d100      	bne.n	8003828 <fsm_handle_event+0x193c>
 8003826:	e071      	b.n	800390c <fsm_handle_event+0x1a20>
 8003828:	dc02      	bgt.n	8003830 <fsm_handle_event+0x1944>
 800382a:	2b01      	cmp	r3, #1
 800382c:	d057      	beq.n	80038de <fsm_handle_event+0x19f2>
 800382e:	e084      	b.n	800393a <fsm_handle_event+0x1a4e>
 8003830:	2b03      	cmp	r3, #3
 8003832:	d002      	beq.n	800383a <fsm_handle_event+0x194e>
 8003834:	2b04      	cmp	r3, #4
 8003836:	d029      	beq.n	800388c <fsm_handle_event+0x19a0>
 8003838:	e07f      	b.n	800393a <fsm_handle_event+0x1a4e>
        			case EV_BUTTON_LT:
        				st7565_clear_buffer(LCD_Buffer);
 800383a:	4bb0      	ldr	r3, [pc, #704]	; (8003afc <fsm_handle_event+0x1c10>)
 800383c:	0018      	movs	r0, r3
 800383e:	f7fd fa57 	bl	8000cf0 <st7565_clear_buffer>
        				if (set_al_min > 0) {
 8003842:	4bad      	ldr	r3, [pc, #692]	; (8003af8 <fsm_handle_event+0x1c0c>)
 8003844:	781b      	ldrb	r3, [r3, #0]
 8003846:	2b00      	cmp	r3, #0
 8003848:	d006      	beq.n	8003858 <fsm_handle_event+0x196c>
        					set_al_min -= 1;
 800384a:	4bab      	ldr	r3, [pc, #684]	; (8003af8 <fsm_handle_event+0x1c0c>)
 800384c:	781b      	ldrb	r3, [r3, #0]
 800384e:	3b01      	subs	r3, #1
 8003850:	b2da      	uxtb	r2, r3
 8003852:	4ba9      	ldr	r3, [pc, #676]	; (8003af8 <fsm_handle_event+0x1c0c>)
 8003854:	701a      	strb	r2, [r3, #0]
 8003856:	e006      	b.n	8003866 <fsm_handle_event+0x197a>
        				} else if (set_al_min == 0) {
 8003858:	4ba7      	ldr	r3, [pc, #668]	; (8003af8 <fsm_handle_event+0x1c0c>)
 800385a:	781b      	ldrb	r3, [r3, #0]
 800385c:	2b00      	cmp	r3, #0
 800385e:	d102      	bne.n	8003866 <fsm_handle_event+0x197a>
        					set_al_min = 59;
 8003860:	4ba5      	ldr	r3, [pc, #660]	; (8003af8 <fsm_handle_event+0x1c0c>)
 8003862:	223b      	movs	r2, #59	; 0x3b
 8003864:	701a      	strb	r2, [r3, #0]
        				}
        				ah_draw_cursor(2);
 8003866:	2002      	movs	r0, #2
 8003868:	f7fc fdca 	bl	8000400 <ah_draw_cursor>
        				st7565_drawmenu_setalarm(LCD_Buffer, set_al_hr, set_al_min);
 800386c:	4ba1      	ldr	r3, [pc, #644]	; (8003af4 <fsm_handle_event+0x1c08>)
 800386e:	7819      	ldrb	r1, [r3, #0]
 8003870:	4ba1      	ldr	r3, [pc, #644]	; (8003af8 <fsm_handle_event+0x1c0c>)
 8003872:	781a      	ldrb	r2, [r3, #0]
 8003874:	4ba1      	ldr	r3, [pc, #644]	; (8003afc <fsm_handle_event+0x1c10>)
 8003876:	0018      	movs	r0, r3
 8003878:	f7fe f93a 	bl	8001af0 <st7565_drawmenu_setalarm>
        				st7565_write_buffer(LCD_Buffer);
 800387c:	4b9f      	ldr	r3, [pc, #636]	; (8003afc <fsm_handle_event+0x1c10>)
 800387e:	0018      	movs	r0, r3
 8003880:	f7fd f8ce 	bl	8000a20 <st7565_write_buffer>
        				state = MENU_ALARM_MINUTE;
 8003884:	4b9e      	ldr	r3, [pc, #632]	; (8003b00 <fsm_handle_event+0x1c14>)
 8003886:	221e      	movs	r2, #30
 8003888:	701a      	strb	r2, [r3, #0]
        				break;
 800388a:	e05a      	b.n	8003942 <fsm_handle_event+0x1a56>

        			case EV_BUTTON_RT:
        				st7565_clear_buffer(LCD_Buffer);
 800388c:	4b9b      	ldr	r3, [pc, #620]	; (8003afc <fsm_handle_event+0x1c10>)
 800388e:	0018      	movs	r0, r3
 8003890:	f7fd fa2e 	bl	8000cf0 <st7565_clear_buffer>
        				if (set_al_min < 59) {
 8003894:	4b98      	ldr	r3, [pc, #608]	; (8003af8 <fsm_handle_event+0x1c0c>)
 8003896:	781b      	ldrb	r3, [r3, #0]
 8003898:	2b3a      	cmp	r3, #58	; 0x3a
 800389a:	d806      	bhi.n	80038aa <fsm_handle_event+0x19be>
        					set_al_min += 1;
 800389c:	4b96      	ldr	r3, [pc, #600]	; (8003af8 <fsm_handle_event+0x1c0c>)
 800389e:	781b      	ldrb	r3, [r3, #0]
 80038a0:	3301      	adds	r3, #1
 80038a2:	b2da      	uxtb	r2, r3
 80038a4:	4b94      	ldr	r3, [pc, #592]	; (8003af8 <fsm_handle_event+0x1c0c>)
 80038a6:	701a      	strb	r2, [r3, #0]
 80038a8:	e006      	b.n	80038b8 <fsm_handle_event+0x19cc>
        				} else if (set_al_min == 59) {
 80038aa:	4b93      	ldr	r3, [pc, #588]	; (8003af8 <fsm_handle_event+0x1c0c>)
 80038ac:	781b      	ldrb	r3, [r3, #0]
 80038ae:	2b3b      	cmp	r3, #59	; 0x3b
 80038b0:	d102      	bne.n	80038b8 <fsm_handle_event+0x19cc>
        					set_al_min = 0;
 80038b2:	4b91      	ldr	r3, [pc, #580]	; (8003af8 <fsm_handle_event+0x1c0c>)
 80038b4:	2200      	movs	r2, #0
 80038b6:	701a      	strb	r2, [r3, #0]
        				}
        				ah_draw_cursor(2);
 80038b8:	2002      	movs	r0, #2
 80038ba:	f7fc fda1 	bl	8000400 <ah_draw_cursor>
        				st7565_drawmenu_setalarm(LCD_Buffer, set_al_hr, set_al_min);
 80038be:	4b8d      	ldr	r3, [pc, #564]	; (8003af4 <fsm_handle_event+0x1c08>)
 80038c0:	7819      	ldrb	r1, [r3, #0]
 80038c2:	4b8d      	ldr	r3, [pc, #564]	; (8003af8 <fsm_handle_event+0x1c0c>)
 80038c4:	781a      	ldrb	r2, [r3, #0]
 80038c6:	4b8d      	ldr	r3, [pc, #564]	; (8003afc <fsm_handle_event+0x1c10>)
 80038c8:	0018      	movs	r0, r3
 80038ca:	f7fe f911 	bl	8001af0 <st7565_drawmenu_setalarm>
        				st7565_write_buffer(LCD_Buffer);
 80038ce:	4b8b      	ldr	r3, [pc, #556]	; (8003afc <fsm_handle_event+0x1c10>)
 80038d0:	0018      	movs	r0, r3
 80038d2:	f7fd f8a5 	bl	8000a20 <st7565_write_buffer>
        				state = MENU_ALARM_MINUTE;
 80038d6:	4b8a      	ldr	r3, [pc, #552]	; (8003b00 <fsm_handle_event+0x1c14>)
 80038d8:	221e      	movs	r2, #30
 80038da:	701a      	strb	r2, [r3, #0]
        				break;
 80038dc:	e031      	b.n	8003942 <fsm_handle_event+0x1a56>

        			case EV_BUTTON_UP:
        				st7565_clear_buffer(LCD_Buffer);
 80038de:	4b87      	ldr	r3, [pc, #540]	; (8003afc <fsm_handle_event+0x1c10>)
 80038e0:	0018      	movs	r0, r3
 80038e2:	f7fd fa05 	bl	8000cf0 <st7565_clear_buffer>
        				st7565_drawmenu_setalarm(LCD_Buffer, set_al_hr, set_al_min);
 80038e6:	4b83      	ldr	r3, [pc, #524]	; (8003af4 <fsm_handle_event+0x1c08>)
 80038e8:	7819      	ldrb	r1, [r3, #0]
 80038ea:	4b83      	ldr	r3, [pc, #524]	; (8003af8 <fsm_handle_event+0x1c0c>)
 80038ec:	781a      	ldrb	r2, [r3, #0]
 80038ee:	4b83      	ldr	r3, [pc, #524]	; (8003afc <fsm_handle_event+0x1c10>)
 80038f0:	0018      	movs	r0, r3
 80038f2:	f7fe f8fd 	bl	8001af0 <st7565_drawmenu_setalarm>
        				ah_draw_cursor(1);
 80038f6:	2001      	movs	r0, #1
 80038f8:	f7fc fd82 	bl	8000400 <ah_draw_cursor>
        				st7565_write_buffer(LCD_Buffer);
 80038fc:	4b7f      	ldr	r3, [pc, #508]	; (8003afc <fsm_handle_event+0x1c10>)
 80038fe:	0018      	movs	r0, r3
 8003900:	f7fd f88e 	bl	8000a20 <st7565_write_buffer>
        				state = MENU_ALARM_HOUR;
 8003904:	4b7e      	ldr	r3, [pc, #504]	; (8003b00 <fsm_handle_event+0x1c14>)
 8003906:	221d      	movs	r2, #29
 8003908:	701a      	strb	r2, [r3, #0]
        				break;
 800390a:	e01a      	b.n	8003942 <fsm_handle_event+0x1a56>

        			case EV_BUTTON_DN:
        				st7565_clear_buffer(LCD_Buffer);
 800390c:	4b7b      	ldr	r3, [pc, #492]	; (8003afc <fsm_handle_event+0x1c10>)
 800390e:	0018      	movs	r0, r3
 8003910:	f7fd f9ee 	bl	8000cf0 <st7565_clear_buffer>
        				st7565_drawmenu_setalarm(LCD_Buffer, set_al_hr, set_al_min);
 8003914:	4b77      	ldr	r3, [pc, #476]	; (8003af4 <fsm_handle_event+0x1c08>)
 8003916:	7819      	ldrb	r1, [r3, #0]
 8003918:	4b77      	ldr	r3, [pc, #476]	; (8003af8 <fsm_handle_event+0x1c0c>)
 800391a:	781a      	ldrb	r2, [r3, #0]
 800391c:	4b77      	ldr	r3, [pc, #476]	; (8003afc <fsm_handle_event+0x1c10>)
 800391e:	0018      	movs	r0, r3
 8003920:	f7fe f8e6 	bl	8001af0 <st7565_drawmenu_setalarm>
        				ah_draw_cursor(3);
 8003924:	2003      	movs	r0, #3
 8003926:	f7fc fd6b 	bl	8000400 <ah_draw_cursor>
        				st7565_write_buffer(LCD_Buffer);
 800392a:	4b74      	ldr	r3, [pc, #464]	; (8003afc <fsm_handle_event+0x1c10>)
 800392c:	0018      	movs	r0, r3
 800392e:	f7fd f877 	bl	8000a20 <st7565_write_buffer>
        				state = MENU_ALARM_RETURN;
 8003932:	4b73      	ldr	r3, [pc, #460]	; (8003b00 <fsm_handle_event+0x1c14>)
 8003934:	221f      	movs	r2, #31
 8003936:	701a      	strb	r2, [r3, #0]
        				break;
 8003938:	e003      	b.n	8003942 <fsm_handle_event+0x1a56>

        			default:
        				state = MENU_ALARM_MINUTE;
 800393a:	4b71      	ldr	r3, [pc, #452]	; (8003b00 <fsm_handle_event+0x1c14>)
 800393c:	221e      	movs	r2, #30
 800393e:	701a      	strb	r2, [r3, #0]
                }
            	break;
 8003940:	e245      	b.n	8003dce <fsm_handle_event+0x1ee2>
 8003942:	e244      	b.n	8003dce <fsm_handle_event+0x1ee2>

            case MENU_ALARM_RETURN:
            	switch (event) {
 8003944:	1dfb      	adds	r3, r7, #7
 8003946:	781b      	ldrb	r3, [r3, #0]
 8003948:	2b02      	cmp	r3, #2
 800394a:	d02d      	beq.n	80039a8 <fsm_handle_event+0x1abc>
 800394c:	2b05      	cmp	r3, #5
 800394e:	d002      	beq.n	8003956 <fsm_handle_event+0x1a6a>
 8003950:	2b01      	cmp	r3, #1
 8003952:	d012      	beq.n	800397a <fsm_handle_event+0x1a8e>
 8003954:	e03f      	b.n	80039d6 <fsm_handle_event+0x1aea>
        		case EV_BUTTON_SL:
        			st7565_clear_buffer(LCD_Buffer);
 8003956:	4b69      	ldr	r3, [pc, #420]	; (8003afc <fsm_handle_event+0x1c10>)
 8003958:	0018      	movs	r0, r3
 800395a:	f7fd f9c9 	bl	8000cf0 <st7565_clear_buffer>
        			ah_menu(clock);
 800395e:	2001      	movs	r0, #1
 8003960:	f7fc fd62 	bl	8000428 <ah_menu>
        			ah_draw_cursor(1);
 8003964:	2001      	movs	r0, #1
 8003966:	f7fc fd4b 	bl	8000400 <ah_draw_cursor>
        			st7565_write_buffer(LCD_Buffer);
 800396a:	4b64      	ldr	r3, [pc, #400]	; (8003afc <fsm_handle_event+0x1c10>)
 800396c:	0018      	movs	r0, r3
 800396e:	f7fd f857 	bl	8000a20 <st7565_write_buffer>
        			state = MENU_CLOCK_TIME;
 8003972:	4b63      	ldr	r3, [pc, #396]	; (8003b00 <fsm_handle_event+0x1c14>)
 8003974:	2206      	movs	r2, #6
 8003976:	701a      	strb	r2, [r3, #0]
        			break;
 8003978:	e031      	b.n	80039de <fsm_handle_event+0x1af2>

        		case EV_BUTTON_UP:
        			st7565_clear_buffer(LCD_Buffer);
 800397a:	4b60      	ldr	r3, [pc, #384]	; (8003afc <fsm_handle_event+0x1c10>)
 800397c:	0018      	movs	r0, r3
 800397e:	f7fd f9b7 	bl	8000cf0 <st7565_clear_buffer>
    				st7565_drawmenu_setalarm(LCD_Buffer, set_al_hr, set_al_min);
 8003982:	4b5c      	ldr	r3, [pc, #368]	; (8003af4 <fsm_handle_event+0x1c08>)
 8003984:	7819      	ldrb	r1, [r3, #0]
 8003986:	4b5c      	ldr	r3, [pc, #368]	; (8003af8 <fsm_handle_event+0x1c0c>)
 8003988:	781a      	ldrb	r2, [r3, #0]
 800398a:	4b5c      	ldr	r3, [pc, #368]	; (8003afc <fsm_handle_event+0x1c10>)
 800398c:	0018      	movs	r0, r3
 800398e:	f7fe f8af 	bl	8001af0 <st7565_drawmenu_setalarm>
    				ah_draw_cursor(2);
 8003992:	2002      	movs	r0, #2
 8003994:	f7fc fd34 	bl	8000400 <ah_draw_cursor>
        			st7565_write_buffer(LCD_Buffer);
 8003998:	4b58      	ldr	r3, [pc, #352]	; (8003afc <fsm_handle_event+0x1c10>)
 800399a:	0018      	movs	r0, r3
 800399c:	f7fd f840 	bl	8000a20 <st7565_write_buffer>
        			state = MENU_ALARM_MINUTE;
 80039a0:	4b57      	ldr	r3, [pc, #348]	; (8003b00 <fsm_handle_event+0x1c14>)
 80039a2:	221e      	movs	r2, #30
 80039a4:	701a      	strb	r2, [r3, #0]
        			break;
 80039a6:	e01a      	b.n	80039de <fsm_handle_event+0x1af2>

        		case EV_BUTTON_DN:
        			st7565_clear_buffer(LCD_Buffer);
 80039a8:	4b54      	ldr	r3, [pc, #336]	; (8003afc <fsm_handle_event+0x1c10>)
 80039aa:	0018      	movs	r0, r3
 80039ac:	f7fd f9a0 	bl	8000cf0 <st7565_clear_buffer>
    				st7565_drawmenu_setalarm(LCD_Buffer, set_al_hr, set_al_min);
 80039b0:	4b50      	ldr	r3, [pc, #320]	; (8003af4 <fsm_handle_event+0x1c08>)
 80039b2:	7819      	ldrb	r1, [r3, #0]
 80039b4:	4b50      	ldr	r3, [pc, #320]	; (8003af8 <fsm_handle_event+0x1c0c>)
 80039b6:	781a      	ldrb	r2, [r3, #0]
 80039b8:	4b50      	ldr	r3, [pc, #320]	; (8003afc <fsm_handle_event+0x1c10>)
 80039ba:	0018      	movs	r0, r3
 80039bc:	f7fe f898 	bl	8001af0 <st7565_drawmenu_setalarm>
    				ah_draw_cursor(1);
 80039c0:	2001      	movs	r0, #1
 80039c2:	f7fc fd1d 	bl	8000400 <ah_draw_cursor>
        			st7565_write_buffer(LCD_Buffer);
 80039c6:	4b4d      	ldr	r3, [pc, #308]	; (8003afc <fsm_handle_event+0x1c10>)
 80039c8:	0018      	movs	r0, r3
 80039ca:	f7fd f829 	bl	8000a20 <st7565_write_buffer>
        			state = MENU_ALARM_HOUR;
 80039ce:	4b4c      	ldr	r3, [pc, #304]	; (8003b00 <fsm_handle_event+0x1c14>)
 80039d0:	221d      	movs	r2, #29
 80039d2:	701a      	strb	r2, [r3, #0]
        			break;
 80039d4:	e003      	b.n	80039de <fsm_handle_event+0x1af2>

                default:
                	state = MENU_ALARM_RETURN;
 80039d6:	4b4a      	ldr	r3, [pc, #296]	; (8003b00 <fsm_handle_event+0x1c14>)
 80039d8:	221f      	movs	r2, #31
 80039da:	701a      	strb	r2, [r3, #0]
                }
            	break;
 80039dc:	e1f7      	b.n	8003dce <fsm_handle_event+0x1ee2>
 80039de:	e1f6      	b.n	8003dce <fsm_handle_event+0x1ee2>
//=======================================================================================================================
// Menu - Moodlight - Colors (Choose Color presets)
//=======================================================================================================================

            case MENU_COLORS_WHITE:
            	switch (event) {
 80039e0:	1dfb      	adds	r3, r7, #7
 80039e2:	781b      	ldrb	r3, [r3, #0]
 80039e4:	2b02      	cmp	r3, #2
 80039e6:	d02b      	beq.n	8003a40 <fsm_handle_event+0x1b54>
 80039e8:	2b05      	cmp	r3, #5
 80039ea:	d002      	beq.n	80039f2 <fsm_handle_event+0x1b06>
 80039ec:	2b01      	cmp	r3, #1
 80039ee:	d015      	beq.n	8003a1c <fsm_handle_event+0x1b30>
 80039f0:	e038      	b.n	8003a64 <fsm_handle_event+0x1b78>
        		case EV_BUTTON_SL:
        			st7565_clear_buffer(LCD_Buffer);
 80039f2:	4b42      	ldr	r3, [pc, #264]	; (8003afc <fsm_handle_event+0x1c10>)
 80039f4:	0018      	movs	r0, r3
 80039f6:	f7fd f97b 	bl	8000cf0 <st7565_clear_buffer>
        			ah_menu(colors);
 80039fa:	2005      	movs	r0, #5
 80039fc:	f7fc fd14 	bl	8000428 <ah_menu>
        			ah_draw_cursor(1);
 8003a00:	2001      	movs	r0, #1
 8003a02:	f7fc fcfd 	bl	8000400 <ah_draw_cursor>
        			ah_setcolor(white);
 8003a06:	2000      	movs	r0, #0
 8003a08:	f7fc fd22 	bl	8000450 <ah_setcolor>
        			st7565_write_buffer(LCD_Buffer);
 8003a0c:	4b3b      	ldr	r3, [pc, #236]	; (8003afc <fsm_handle_event+0x1c10>)
 8003a0e:	0018      	movs	r0, r3
 8003a10:	f7fd f806 	bl	8000a20 <st7565_write_buffer>
        			state = MENU_COLORS_WHITE;
 8003a14:	4b3a      	ldr	r3, [pc, #232]	; (8003b00 <fsm_handle_event+0x1c14>)
 8003a16:	2220      	movs	r2, #32
 8003a18:	701a      	strb	r2, [r3, #0]
        			break;
 8003a1a:	e027      	b.n	8003a6c <fsm_handle_event+0x1b80>

        		case EV_BUTTON_UP:
        			st7565_clear_buffer(LCD_Buffer);
 8003a1c:	4b37      	ldr	r3, [pc, #220]	; (8003afc <fsm_handle_event+0x1c10>)
 8003a1e:	0018      	movs	r0, r3
 8003a20:	f7fd f966 	bl	8000cf0 <st7565_clear_buffer>
        			ah_menu(colors);
 8003a24:	2005      	movs	r0, #5
 8003a26:	f7fc fcff 	bl	8000428 <ah_menu>
        			ah_draw_cursor(7);
 8003a2a:	2007      	movs	r0, #7
 8003a2c:	f7fc fce8 	bl	8000400 <ah_draw_cursor>
        			st7565_write_buffer(LCD_Buffer);
 8003a30:	4b32      	ldr	r3, [pc, #200]	; (8003afc <fsm_handle_event+0x1c10>)
 8003a32:	0018      	movs	r0, r3
 8003a34:	f7fc fff4 	bl	8000a20 <st7565_write_buffer>
        			state = MENU_COLORS_RETURN;
 8003a38:	4b31      	ldr	r3, [pc, #196]	; (8003b00 <fsm_handle_event+0x1c14>)
 8003a3a:	2226      	movs	r2, #38	; 0x26
 8003a3c:	701a      	strb	r2, [r3, #0]
        			break;
 8003a3e:	e015      	b.n	8003a6c <fsm_handle_event+0x1b80>

        		case EV_BUTTON_DN:
        			st7565_clear_buffer(LCD_Buffer);
 8003a40:	4b2e      	ldr	r3, [pc, #184]	; (8003afc <fsm_handle_event+0x1c10>)
 8003a42:	0018      	movs	r0, r3
 8003a44:	f7fd f954 	bl	8000cf0 <st7565_clear_buffer>
        			ah_menu(colors);
 8003a48:	2005      	movs	r0, #5
 8003a4a:	f7fc fced 	bl	8000428 <ah_menu>
        			ah_draw_cursor(2);
 8003a4e:	2002      	movs	r0, #2
 8003a50:	f7fc fcd6 	bl	8000400 <ah_draw_cursor>
        			st7565_write_buffer(LCD_Buffer);
 8003a54:	4b29      	ldr	r3, [pc, #164]	; (8003afc <fsm_handle_event+0x1c10>)
 8003a56:	0018      	movs	r0, r3
 8003a58:	f7fc ffe2 	bl	8000a20 <st7565_write_buffer>
        			state = MENU_COLORS_RED;
 8003a5c:	4b28      	ldr	r3, [pc, #160]	; (8003b00 <fsm_handle_event+0x1c14>)
 8003a5e:	2221      	movs	r2, #33	; 0x21
 8003a60:	701a      	strb	r2, [r3, #0]
        			break;
 8003a62:	e003      	b.n	8003a6c <fsm_handle_event+0x1b80>

                default:
                	state = MENU_COLORS_WHITE;
 8003a64:	4b26      	ldr	r3, [pc, #152]	; (8003b00 <fsm_handle_event+0x1c14>)
 8003a66:	2220      	movs	r2, #32
 8003a68:	701a      	strb	r2, [r3, #0]
                }
            	break;
 8003a6a:	e1b0      	b.n	8003dce <fsm_handle_event+0x1ee2>
 8003a6c:	e1af      	b.n	8003dce <fsm_handle_event+0x1ee2>


            case MENU_COLORS_RED:
            	switch (event) {
 8003a6e:	1dfb      	adds	r3, r7, #7
 8003a70:	781b      	ldrb	r3, [r3, #0]
 8003a72:	2b02      	cmp	r3, #2
 8003a74:	d02b      	beq.n	8003ace <fsm_handle_event+0x1be2>
 8003a76:	2b05      	cmp	r3, #5
 8003a78:	d002      	beq.n	8003a80 <fsm_handle_event+0x1b94>
 8003a7a:	2b01      	cmp	r3, #1
 8003a7c:	d015      	beq.n	8003aaa <fsm_handle_event+0x1bbe>
 8003a7e:	e041      	b.n	8003b04 <fsm_handle_event+0x1c18>
        		case EV_BUTTON_SL:
        			st7565_clear_buffer(LCD_Buffer);
 8003a80:	4b1e      	ldr	r3, [pc, #120]	; (8003afc <fsm_handle_event+0x1c10>)
 8003a82:	0018      	movs	r0, r3
 8003a84:	f7fd f934 	bl	8000cf0 <st7565_clear_buffer>
        			ah_menu(colors);
 8003a88:	2005      	movs	r0, #5
 8003a8a:	f7fc fccd 	bl	8000428 <ah_menu>
        			ah_draw_cursor(2);
 8003a8e:	2002      	movs	r0, #2
 8003a90:	f7fc fcb6 	bl	8000400 <ah_draw_cursor>
        			ah_setcolor(red);
 8003a94:	2001      	movs	r0, #1
 8003a96:	f7fc fcdb 	bl	8000450 <ah_setcolor>
        			st7565_write_buffer(LCD_Buffer);
 8003a9a:	4b18      	ldr	r3, [pc, #96]	; (8003afc <fsm_handle_event+0x1c10>)
 8003a9c:	0018      	movs	r0, r3
 8003a9e:	f7fc ffbf 	bl	8000a20 <st7565_write_buffer>
        			state = MENU_COLORS_RED;
 8003aa2:	4b17      	ldr	r3, [pc, #92]	; (8003b00 <fsm_handle_event+0x1c14>)
 8003aa4:	2221      	movs	r2, #33	; 0x21
 8003aa6:	701a      	strb	r2, [r3, #0]
        			break;
 8003aa8:	e030      	b.n	8003b0c <fsm_handle_event+0x1c20>

        		case EV_BUTTON_UP:
        			st7565_clear_buffer(LCD_Buffer);
 8003aaa:	4b14      	ldr	r3, [pc, #80]	; (8003afc <fsm_handle_event+0x1c10>)
 8003aac:	0018      	movs	r0, r3
 8003aae:	f7fd f91f 	bl	8000cf0 <st7565_clear_buffer>
        			ah_menu(colors);
 8003ab2:	2005      	movs	r0, #5
 8003ab4:	f7fc fcb8 	bl	8000428 <ah_menu>
        			ah_draw_cursor(1);
 8003ab8:	2001      	movs	r0, #1
 8003aba:	f7fc fca1 	bl	8000400 <ah_draw_cursor>
        			st7565_write_buffer(LCD_Buffer);
 8003abe:	4b0f      	ldr	r3, [pc, #60]	; (8003afc <fsm_handle_event+0x1c10>)
 8003ac0:	0018      	movs	r0, r3
 8003ac2:	f7fc ffad 	bl	8000a20 <st7565_write_buffer>
        			state = MENU_COLORS_WHITE;
 8003ac6:	4b0e      	ldr	r3, [pc, #56]	; (8003b00 <fsm_handle_event+0x1c14>)
 8003ac8:	2220      	movs	r2, #32
 8003aca:	701a      	strb	r2, [r3, #0]
        			break;
 8003acc:	e01e      	b.n	8003b0c <fsm_handle_event+0x1c20>

        		case EV_BUTTON_DN:
        			st7565_clear_buffer(LCD_Buffer);
 8003ace:	4b0b      	ldr	r3, [pc, #44]	; (8003afc <fsm_handle_event+0x1c10>)
 8003ad0:	0018      	movs	r0, r3
 8003ad2:	f7fd f90d 	bl	8000cf0 <st7565_clear_buffer>
        			ah_menu(colors);
 8003ad6:	2005      	movs	r0, #5
 8003ad8:	f7fc fca6 	bl	8000428 <ah_menu>
        			ah_draw_cursor(3);
 8003adc:	2003      	movs	r0, #3
 8003ade:	f7fc fc8f 	bl	8000400 <ah_draw_cursor>
        			st7565_write_buffer(LCD_Buffer);
 8003ae2:	4b06      	ldr	r3, [pc, #24]	; (8003afc <fsm_handle_event+0x1c10>)
 8003ae4:	0018      	movs	r0, r3
 8003ae6:	f7fc ff9b 	bl	8000a20 <st7565_write_buffer>
        			state = MENU_COLORS_GREEN;
 8003aea:	4b05      	ldr	r3, [pc, #20]	; (8003b00 <fsm_handle_event+0x1c14>)
 8003aec:	2222      	movs	r2, #34	; 0x22
 8003aee:	701a      	strb	r2, [r3, #0]
        			break;
 8003af0:	e00c      	b.n	8003b0c <fsm_handle_event+0x1c20>
 8003af2:	46c0      	nop			; (mov r8, r8)
 8003af4:	2000003e 	.word	0x2000003e
 8003af8:	2000003f 	.word	0x2000003f
 8003afc:	200000d8 	.word	0x200000d8
 8003b00:	20000040 	.word	0x20000040

                default:
                	state = MENU_COLORS_RED;
 8003b04:	4bb4      	ldr	r3, [pc, #720]	; (8003dd8 <fsm_handle_event+0x1eec>)
 8003b06:	2221      	movs	r2, #33	; 0x21
 8003b08:	701a      	strb	r2, [r3, #0]
                }
            	break;
 8003b0a:	e160      	b.n	8003dce <fsm_handle_event+0x1ee2>
 8003b0c:	e15f      	b.n	8003dce <fsm_handle_event+0x1ee2>


            case MENU_COLORS_GREEN:
            	switch (event) {
 8003b0e:	1dfb      	adds	r3, r7, #7
 8003b10:	781b      	ldrb	r3, [r3, #0]
 8003b12:	2b02      	cmp	r3, #2
 8003b14:	d02b      	beq.n	8003b6e <fsm_handle_event+0x1c82>
 8003b16:	2b05      	cmp	r3, #5
 8003b18:	d002      	beq.n	8003b20 <fsm_handle_event+0x1c34>
 8003b1a:	2b01      	cmp	r3, #1
 8003b1c:	d015      	beq.n	8003b4a <fsm_handle_event+0x1c5e>
 8003b1e:	e038      	b.n	8003b92 <fsm_handle_event+0x1ca6>
        		case EV_BUTTON_SL:
        			st7565_clear_buffer(LCD_Buffer);
 8003b20:	4bae      	ldr	r3, [pc, #696]	; (8003ddc <fsm_handle_event+0x1ef0>)
 8003b22:	0018      	movs	r0, r3
 8003b24:	f7fd f8e4 	bl	8000cf0 <st7565_clear_buffer>
        			ah_menu(colors);
 8003b28:	2005      	movs	r0, #5
 8003b2a:	f7fc fc7d 	bl	8000428 <ah_menu>
        			ah_draw_cursor(3);
 8003b2e:	2003      	movs	r0, #3
 8003b30:	f7fc fc66 	bl	8000400 <ah_draw_cursor>
        			ah_setcolor(green);
 8003b34:	2002      	movs	r0, #2
 8003b36:	f7fc fc8b 	bl	8000450 <ah_setcolor>
        			st7565_write_buffer(LCD_Buffer);
 8003b3a:	4ba8      	ldr	r3, [pc, #672]	; (8003ddc <fsm_handle_event+0x1ef0>)
 8003b3c:	0018      	movs	r0, r3
 8003b3e:	f7fc ff6f 	bl	8000a20 <st7565_write_buffer>
        			state = MENU_COLORS_GREEN;
 8003b42:	4ba5      	ldr	r3, [pc, #660]	; (8003dd8 <fsm_handle_event+0x1eec>)
 8003b44:	2222      	movs	r2, #34	; 0x22
 8003b46:	701a      	strb	r2, [r3, #0]
        			break;
 8003b48:	e027      	b.n	8003b9a <fsm_handle_event+0x1cae>

        		case EV_BUTTON_UP:
        			st7565_clear_buffer(LCD_Buffer);
 8003b4a:	4ba4      	ldr	r3, [pc, #656]	; (8003ddc <fsm_handle_event+0x1ef0>)
 8003b4c:	0018      	movs	r0, r3
 8003b4e:	f7fd f8cf 	bl	8000cf0 <st7565_clear_buffer>
        			ah_menu(colors);
 8003b52:	2005      	movs	r0, #5
 8003b54:	f7fc fc68 	bl	8000428 <ah_menu>
        			ah_draw_cursor(2);
 8003b58:	2002      	movs	r0, #2
 8003b5a:	f7fc fc51 	bl	8000400 <ah_draw_cursor>
        			st7565_write_buffer(LCD_Buffer);
 8003b5e:	4b9f      	ldr	r3, [pc, #636]	; (8003ddc <fsm_handle_event+0x1ef0>)
 8003b60:	0018      	movs	r0, r3
 8003b62:	f7fc ff5d 	bl	8000a20 <st7565_write_buffer>
        			state = MENU_COLORS_RED;
 8003b66:	4b9c      	ldr	r3, [pc, #624]	; (8003dd8 <fsm_handle_event+0x1eec>)
 8003b68:	2221      	movs	r2, #33	; 0x21
 8003b6a:	701a      	strb	r2, [r3, #0]
        			break;
 8003b6c:	e015      	b.n	8003b9a <fsm_handle_event+0x1cae>

        		case EV_BUTTON_DN:
        			st7565_clear_buffer(LCD_Buffer);
 8003b6e:	4b9b      	ldr	r3, [pc, #620]	; (8003ddc <fsm_handle_event+0x1ef0>)
 8003b70:	0018      	movs	r0, r3
 8003b72:	f7fd f8bd 	bl	8000cf0 <st7565_clear_buffer>
        			ah_menu(colors);
 8003b76:	2005      	movs	r0, #5
 8003b78:	f7fc fc56 	bl	8000428 <ah_menu>
        			ah_draw_cursor(4);
 8003b7c:	2004      	movs	r0, #4
 8003b7e:	f7fc fc3f 	bl	8000400 <ah_draw_cursor>
        			st7565_write_buffer(LCD_Buffer);
 8003b82:	4b96      	ldr	r3, [pc, #600]	; (8003ddc <fsm_handle_event+0x1ef0>)
 8003b84:	0018      	movs	r0, r3
 8003b86:	f7fc ff4b 	bl	8000a20 <st7565_write_buffer>
        			state = MENU_COLORS_BLUE;
 8003b8a:	4b93      	ldr	r3, [pc, #588]	; (8003dd8 <fsm_handle_event+0x1eec>)
 8003b8c:	2223      	movs	r2, #35	; 0x23
 8003b8e:	701a      	strb	r2, [r3, #0]
        			break;
 8003b90:	e003      	b.n	8003b9a <fsm_handle_event+0x1cae>

                default:
                	state = MENU_COLORS_GREEN;
 8003b92:	4b91      	ldr	r3, [pc, #580]	; (8003dd8 <fsm_handle_event+0x1eec>)
 8003b94:	2222      	movs	r2, #34	; 0x22
 8003b96:	701a      	strb	r2, [r3, #0]
                }
            	break;
 8003b98:	e119      	b.n	8003dce <fsm_handle_event+0x1ee2>
 8003b9a:	e118      	b.n	8003dce <fsm_handle_event+0x1ee2>


            case MENU_COLORS_BLUE:
            	switch (event) {
 8003b9c:	1dfb      	adds	r3, r7, #7
 8003b9e:	781b      	ldrb	r3, [r3, #0]
 8003ba0:	2b02      	cmp	r3, #2
 8003ba2:	d02b      	beq.n	8003bfc <fsm_handle_event+0x1d10>
 8003ba4:	2b05      	cmp	r3, #5
 8003ba6:	d002      	beq.n	8003bae <fsm_handle_event+0x1cc2>
 8003ba8:	2b01      	cmp	r3, #1
 8003baa:	d015      	beq.n	8003bd8 <fsm_handle_event+0x1cec>
 8003bac:	e038      	b.n	8003c20 <fsm_handle_event+0x1d34>
        		case EV_BUTTON_SL:
        			st7565_clear_buffer(LCD_Buffer);
 8003bae:	4b8b      	ldr	r3, [pc, #556]	; (8003ddc <fsm_handle_event+0x1ef0>)
 8003bb0:	0018      	movs	r0, r3
 8003bb2:	f7fd f89d 	bl	8000cf0 <st7565_clear_buffer>
        			ah_menu(colors);
 8003bb6:	2005      	movs	r0, #5
 8003bb8:	f7fc fc36 	bl	8000428 <ah_menu>
        			ah_draw_cursor(4);
 8003bbc:	2004      	movs	r0, #4
 8003bbe:	f7fc fc1f 	bl	8000400 <ah_draw_cursor>
        			ah_setcolor(blue);
 8003bc2:	2003      	movs	r0, #3
 8003bc4:	f7fc fc44 	bl	8000450 <ah_setcolor>
        			st7565_write_buffer(LCD_Buffer);
 8003bc8:	4b84      	ldr	r3, [pc, #528]	; (8003ddc <fsm_handle_event+0x1ef0>)
 8003bca:	0018      	movs	r0, r3
 8003bcc:	f7fc ff28 	bl	8000a20 <st7565_write_buffer>
        			state = MENU_COLORS_BLUE;
 8003bd0:	4b81      	ldr	r3, [pc, #516]	; (8003dd8 <fsm_handle_event+0x1eec>)
 8003bd2:	2223      	movs	r2, #35	; 0x23
 8003bd4:	701a      	strb	r2, [r3, #0]
        			break;
 8003bd6:	e027      	b.n	8003c28 <fsm_handle_event+0x1d3c>

        		case EV_BUTTON_UP:
        			st7565_clear_buffer(LCD_Buffer);
 8003bd8:	4b80      	ldr	r3, [pc, #512]	; (8003ddc <fsm_handle_event+0x1ef0>)
 8003bda:	0018      	movs	r0, r3
 8003bdc:	f7fd f888 	bl	8000cf0 <st7565_clear_buffer>
        			ah_menu(colors);
 8003be0:	2005      	movs	r0, #5
 8003be2:	f7fc fc21 	bl	8000428 <ah_menu>
        			ah_draw_cursor(3);
 8003be6:	2003      	movs	r0, #3
 8003be8:	f7fc fc0a 	bl	8000400 <ah_draw_cursor>
        			st7565_write_buffer(LCD_Buffer);
 8003bec:	4b7b      	ldr	r3, [pc, #492]	; (8003ddc <fsm_handle_event+0x1ef0>)
 8003bee:	0018      	movs	r0, r3
 8003bf0:	f7fc ff16 	bl	8000a20 <st7565_write_buffer>
        			state = MENU_COLORS_GREEN;
 8003bf4:	4b78      	ldr	r3, [pc, #480]	; (8003dd8 <fsm_handle_event+0x1eec>)
 8003bf6:	2222      	movs	r2, #34	; 0x22
 8003bf8:	701a      	strb	r2, [r3, #0]
        			break;
 8003bfa:	e015      	b.n	8003c28 <fsm_handle_event+0x1d3c>

        		case EV_BUTTON_DN:
        			st7565_clear_buffer(LCD_Buffer);
 8003bfc:	4b77      	ldr	r3, [pc, #476]	; (8003ddc <fsm_handle_event+0x1ef0>)
 8003bfe:	0018      	movs	r0, r3
 8003c00:	f7fd f876 	bl	8000cf0 <st7565_clear_buffer>
        			ah_menu(colors);
 8003c04:	2005      	movs	r0, #5
 8003c06:	f7fc fc0f 	bl	8000428 <ah_menu>
        			ah_draw_cursor(5);
 8003c0a:	2005      	movs	r0, #5
 8003c0c:	f7fc fbf8 	bl	8000400 <ah_draw_cursor>
        			st7565_write_buffer(LCD_Buffer);
 8003c10:	4b72      	ldr	r3, [pc, #456]	; (8003ddc <fsm_handle_event+0x1ef0>)
 8003c12:	0018      	movs	r0, r3
 8003c14:	f7fc ff04 	bl	8000a20 <st7565_write_buffer>
        			state = MENU_COLORS_YELLOW;
 8003c18:	4b6f      	ldr	r3, [pc, #444]	; (8003dd8 <fsm_handle_event+0x1eec>)
 8003c1a:	2224      	movs	r2, #36	; 0x24
 8003c1c:	701a      	strb	r2, [r3, #0]
        			break;
 8003c1e:	e003      	b.n	8003c28 <fsm_handle_event+0x1d3c>

                default:
                	state = MENU_COLORS_BLUE;
 8003c20:	4b6d      	ldr	r3, [pc, #436]	; (8003dd8 <fsm_handle_event+0x1eec>)
 8003c22:	2223      	movs	r2, #35	; 0x23
 8003c24:	701a      	strb	r2, [r3, #0]
                }
            	break;
 8003c26:	e0d2      	b.n	8003dce <fsm_handle_event+0x1ee2>
 8003c28:	e0d1      	b.n	8003dce <fsm_handle_event+0x1ee2>


            case MENU_COLORS_YELLOW:
            	switch (event) {
 8003c2a:	1dfb      	adds	r3, r7, #7
 8003c2c:	781b      	ldrb	r3, [r3, #0]
 8003c2e:	2b02      	cmp	r3, #2
 8003c30:	d02b      	beq.n	8003c8a <fsm_handle_event+0x1d9e>
 8003c32:	2b05      	cmp	r3, #5
 8003c34:	d002      	beq.n	8003c3c <fsm_handle_event+0x1d50>
 8003c36:	2b01      	cmp	r3, #1
 8003c38:	d015      	beq.n	8003c66 <fsm_handle_event+0x1d7a>
 8003c3a:	e038      	b.n	8003cae <fsm_handle_event+0x1dc2>
        		case EV_BUTTON_SL:
        			st7565_clear_buffer(LCD_Buffer);
 8003c3c:	4b67      	ldr	r3, [pc, #412]	; (8003ddc <fsm_handle_event+0x1ef0>)
 8003c3e:	0018      	movs	r0, r3
 8003c40:	f7fd f856 	bl	8000cf0 <st7565_clear_buffer>
        			ah_menu(colors);
 8003c44:	2005      	movs	r0, #5
 8003c46:	f7fc fbef 	bl	8000428 <ah_menu>
        			ah_draw_cursor(5);
 8003c4a:	2005      	movs	r0, #5
 8003c4c:	f7fc fbd8 	bl	8000400 <ah_draw_cursor>
        			ah_setcolor(yellow);
 8003c50:	2004      	movs	r0, #4
 8003c52:	f7fc fbfd 	bl	8000450 <ah_setcolor>
        			st7565_write_buffer(LCD_Buffer);
 8003c56:	4b61      	ldr	r3, [pc, #388]	; (8003ddc <fsm_handle_event+0x1ef0>)
 8003c58:	0018      	movs	r0, r3
 8003c5a:	f7fc fee1 	bl	8000a20 <st7565_write_buffer>
        			state = MENU_COLORS_YELLOW;
 8003c5e:	4b5e      	ldr	r3, [pc, #376]	; (8003dd8 <fsm_handle_event+0x1eec>)
 8003c60:	2224      	movs	r2, #36	; 0x24
 8003c62:	701a      	strb	r2, [r3, #0]
        			break;
 8003c64:	e027      	b.n	8003cb6 <fsm_handle_event+0x1dca>

        		case EV_BUTTON_UP:
        			st7565_clear_buffer(LCD_Buffer);
 8003c66:	4b5d      	ldr	r3, [pc, #372]	; (8003ddc <fsm_handle_event+0x1ef0>)
 8003c68:	0018      	movs	r0, r3
 8003c6a:	f7fd f841 	bl	8000cf0 <st7565_clear_buffer>
        			ah_menu(colors);
 8003c6e:	2005      	movs	r0, #5
 8003c70:	f7fc fbda 	bl	8000428 <ah_menu>
        			ah_draw_cursor(4);
 8003c74:	2004      	movs	r0, #4
 8003c76:	f7fc fbc3 	bl	8000400 <ah_draw_cursor>
        			st7565_write_buffer(LCD_Buffer);
 8003c7a:	4b58      	ldr	r3, [pc, #352]	; (8003ddc <fsm_handle_event+0x1ef0>)
 8003c7c:	0018      	movs	r0, r3
 8003c7e:	f7fc fecf 	bl	8000a20 <st7565_write_buffer>
        			state = MENU_COLORS_BLUE;
 8003c82:	4b55      	ldr	r3, [pc, #340]	; (8003dd8 <fsm_handle_event+0x1eec>)
 8003c84:	2223      	movs	r2, #35	; 0x23
 8003c86:	701a      	strb	r2, [r3, #0]
        			break;
 8003c88:	e015      	b.n	8003cb6 <fsm_handle_event+0x1dca>

        		case EV_BUTTON_DN:
        			st7565_clear_buffer(LCD_Buffer);
 8003c8a:	4b54      	ldr	r3, [pc, #336]	; (8003ddc <fsm_handle_event+0x1ef0>)
 8003c8c:	0018      	movs	r0, r3
 8003c8e:	f7fd f82f 	bl	8000cf0 <st7565_clear_buffer>
        			ah_menu(colors);
 8003c92:	2005      	movs	r0, #5
 8003c94:	f7fc fbc8 	bl	8000428 <ah_menu>
        			ah_draw_cursor(6);
 8003c98:	2006      	movs	r0, #6
 8003c9a:	f7fc fbb1 	bl	8000400 <ah_draw_cursor>
        			st7565_write_buffer(LCD_Buffer);
 8003c9e:	4b4f      	ldr	r3, [pc, #316]	; (8003ddc <fsm_handle_event+0x1ef0>)
 8003ca0:	0018      	movs	r0, r3
 8003ca2:	f7fc febd 	bl	8000a20 <st7565_write_buffer>
        			state = MENU_COLORS_PURPLE;
 8003ca6:	4b4c      	ldr	r3, [pc, #304]	; (8003dd8 <fsm_handle_event+0x1eec>)
 8003ca8:	2225      	movs	r2, #37	; 0x25
 8003caa:	701a      	strb	r2, [r3, #0]
        			break;
 8003cac:	e003      	b.n	8003cb6 <fsm_handle_event+0x1dca>

                default:
                	state = MENU_COLORS_YELLOW;
 8003cae:	4b4a      	ldr	r3, [pc, #296]	; (8003dd8 <fsm_handle_event+0x1eec>)
 8003cb0:	2224      	movs	r2, #36	; 0x24
 8003cb2:	701a      	strb	r2, [r3, #0]
                }
            	break;
 8003cb4:	e08b      	b.n	8003dce <fsm_handle_event+0x1ee2>
 8003cb6:	e08a      	b.n	8003dce <fsm_handle_event+0x1ee2>


            case MENU_COLORS_PURPLE:
            	switch (event) {
 8003cb8:	1dfb      	adds	r3, r7, #7
 8003cba:	781b      	ldrb	r3, [r3, #0]
 8003cbc:	2b02      	cmp	r3, #2
 8003cbe:	d02b      	beq.n	8003d18 <fsm_handle_event+0x1e2c>
 8003cc0:	2b05      	cmp	r3, #5
 8003cc2:	d002      	beq.n	8003cca <fsm_handle_event+0x1dde>
 8003cc4:	2b01      	cmp	r3, #1
 8003cc6:	d015      	beq.n	8003cf4 <fsm_handle_event+0x1e08>
 8003cc8:	e038      	b.n	8003d3c <fsm_handle_event+0x1e50>
        		case EV_BUTTON_SL:
        			st7565_clear_buffer(LCD_Buffer);
 8003cca:	4b44      	ldr	r3, [pc, #272]	; (8003ddc <fsm_handle_event+0x1ef0>)
 8003ccc:	0018      	movs	r0, r3
 8003cce:	f7fd f80f 	bl	8000cf0 <st7565_clear_buffer>
        			ah_menu(colors);
 8003cd2:	2005      	movs	r0, #5
 8003cd4:	f7fc fba8 	bl	8000428 <ah_menu>
        			ah_draw_cursor(6);
 8003cd8:	2006      	movs	r0, #6
 8003cda:	f7fc fb91 	bl	8000400 <ah_draw_cursor>
        			ah_setcolor(purple);
 8003cde:	2005      	movs	r0, #5
 8003ce0:	f7fc fbb6 	bl	8000450 <ah_setcolor>
        			st7565_write_buffer(LCD_Buffer);
 8003ce4:	4b3d      	ldr	r3, [pc, #244]	; (8003ddc <fsm_handle_event+0x1ef0>)
 8003ce6:	0018      	movs	r0, r3
 8003ce8:	f7fc fe9a 	bl	8000a20 <st7565_write_buffer>
        			state = MENU_COLORS_PURPLE;
 8003cec:	4b3a      	ldr	r3, [pc, #232]	; (8003dd8 <fsm_handle_event+0x1eec>)
 8003cee:	2225      	movs	r2, #37	; 0x25
 8003cf0:	701a      	strb	r2, [r3, #0]
        			break;
 8003cf2:	e027      	b.n	8003d44 <fsm_handle_event+0x1e58>

        		case EV_BUTTON_UP:
        			st7565_clear_buffer(LCD_Buffer);
 8003cf4:	4b39      	ldr	r3, [pc, #228]	; (8003ddc <fsm_handle_event+0x1ef0>)
 8003cf6:	0018      	movs	r0, r3
 8003cf8:	f7fc fffa 	bl	8000cf0 <st7565_clear_buffer>
        			ah_menu(colors);
 8003cfc:	2005      	movs	r0, #5
 8003cfe:	f7fc fb93 	bl	8000428 <ah_menu>
        			ah_draw_cursor(5);
 8003d02:	2005      	movs	r0, #5
 8003d04:	f7fc fb7c 	bl	8000400 <ah_draw_cursor>
        			st7565_write_buffer(LCD_Buffer);
 8003d08:	4b34      	ldr	r3, [pc, #208]	; (8003ddc <fsm_handle_event+0x1ef0>)
 8003d0a:	0018      	movs	r0, r3
 8003d0c:	f7fc fe88 	bl	8000a20 <st7565_write_buffer>
        			state = MENU_COLORS_YELLOW;
 8003d10:	4b31      	ldr	r3, [pc, #196]	; (8003dd8 <fsm_handle_event+0x1eec>)
 8003d12:	2224      	movs	r2, #36	; 0x24
 8003d14:	701a      	strb	r2, [r3, #0]
        			break;
 8003d16:	e015      	b.n	8003d44 <fsm_handle_event+0x1e58>

        		case EV_BUTTON_DN:
        			st7565_clear_buffer(LCD_Buffer);
 8003d18:	4b30      	ldr	r3, [pc, #192]	; (8003ddc <fsm_handle_event+0x1ef0>)
 8003d1a:	0018      	movs	r0, r3
 8003d1c:	f7fc ffe8 	bl	8000cf0 <st7565_clear_buffer>
        			ah_menu(colors);
 8003d20:	2005      	movs	r0, #5
 8003d22:	f7fc fb81 	bl	8000428 <ah_menu>
        			ah_draw_cursor(7);
 8003d26:	2007      	movs	r0, #7
 8003d28:	f7fc fb6a 	bl	8000400 <ah_draw_cursor>
        			st7565_write_buffer(LCD_Buffer);
 8003d2c:	4b2b      	ldr	r3, [pc, #172]	; (8003ddc <fsm_handle_event+0x1ef0>)
 8003d2e:	0018      	movs	r0, r3
 8003d30:	f7fc fe76 	bl	8000a20 <st7565_write_buffer>
        			state = MENU_COLORS_RETURN;
 8003d34:	4b28      	ldr	r3, [pc, #160]	; (8003dd8 <fsm_handle_event+0x1eec>)
 8003d36:	2226      	movs	r2, #38	; 0x26
 8003d38:	701a      	strb	r2, [r3, #0]
        			break;
 8003d3a:	e003      	b.n	8003d44 <fsm_handle_event+0x1e58>

                default:
                	state = MENU_COLORS_PURPLE;
 8003d3c:	4b26      	ldr	r3, [pc, #152]	; (8003dd8 <fsm_handle_event+0x1eec>)
 8003d3e:	2225      	movs	r2, #37	; 0x25
 8003d40:	701a      	strb	r2, [r3, #0]
                }
            	break;
 8003d42:	e044      	b.n	8003dce <fsm_handle_event+0x1ee2>
 8003d44:	e043      	b.n	8003dce <fsm_handle_event+0x1ee2>

            case MENU_COLORS_RETURN:
            	switch (event) {
 8003d46:	1dfb      	adds	r3, r7, #7
 8003d48:	781b      	ldrb	r3, [r3, #0]
 8003d4a:	2b02      	cmp	r3, #2
 8003d4c:	d028      	beq.n	8003da0 <fsm_handle_event+0x1eb4>
 8003d4e:	2b05      	cmp	r3, #5
 8003d50:	d002      	beq.n	8003d58 <fsm_handle_event+0x1e6c>
 8003d52:	2b01      	cmp	r3, #1
 8003d54:	d012      	beq.n	8003d7c <fsm_handle_event+0x1e90>
 8003d56:	e035      	b.n	8003dc4 <fsm_handle_event+0x1ed8>
        		case EV_BUTTON_SL:
        			st7565_clear_buffer(LCD_Buffer);
 8003d58:	4b20      	ldr	r3, [pc, #128]	; (8003ddc <fsm_handle_event+0x1ef0>)
 8003d5a:	0018      	movs	r0, r3
 8003d5c:	f7fc ffc8 	bl	8000cf0 <st7565_clear_buffer>
        			ah_menu(moodlight);
 8003d60:	2002      	movs	r0, #2
 8003d62:	f7fc fb61 	bl	8000428 <ah_menu>
        			ah_draw_cursor(1);
 8003d66:	2001      	movs	r0, #1
 8003d68:	f7fc fb4a 	bl	8000400 <ah_draw_cursor>
        			st7565_write_buffer(LCD_Buffer);
 8003d6c:	4b1b      	ldr	r3, [pc, #108]	; (8003ddc <fsm_handle_event+0x1ef0>)
 8003d6e:	0018      	movs	r0, r3
 8003d70:	f7fc fe56 	bl	8000a20 <st7565_write_buffer>
        			state = MENU_MOODL_PRESETS;
 8003d74:	4b18      	ldr	r3, [pc, #96]	; (8003dd8 <fsm_handle_event+0x1eec>)
 8003d76:	220a      	movs	r2, #10
 8003d78:	701a      	strb	r2, [r3, #0]
        			break;
 8003d7a:	e027      	b.n	8003dcc <fsm_handle_event+0x1ee0>

        		case EV_BUTTON_UP:
        			st7565_clear_buffer(LCD_Buffer);
 8003d7c:	4b17      	ldr	r3, [pc, #92]	; (8003ddc <fsm_handle_event+0x1ef0>)
 8003d7e:	0018      	movs	r0, r3
 8003d80:	f7fc ffb6 	bl	8000cf0 <st7565_clear_buffer>
        			ah_menu(colors);
 8003d84:	2005      	movs	r0, #5
 8003d86:	f7fc fb4f 	bl	8000428 <ah_menu>
        			ah_draw_cursor(6);
 8003d8a:	2006      	movs	r0, #6
 8003d8c:	f7fc fb38 	bl	8000400 <ah_draw_cursor>
        			st7565_write_buffer(LCD_Buffer);
 8003d90:	4b12      	ldr	r3, [pc, #72]	; (8003ddc <fsm_handle_event+0x1ef0>)
 8003d92:	0018      	movs	r0, r3
 8003d94:	f7fc fe44 	bl	8000a20 <st7565_write_buffer>
        			state = MENU_COLORS_PURPLE;
 8003d98:	4b0f      	ldr	r3, [pc, #60]	; (8003dd8 <fsm_handle_event+0x1eec>)
 8003d9a:	2225      	movs	r2, #37	; 0x25
 8003d9c:	701a      	strb	r2, [r3, #0]
        			break;
 8003d9e:	e015      	b.n	8003dcc <fsm_handle_event+0x1ee0>

        		case EV_BUTTON_DN:
        			st7565_clear_buffer(LCD_Buffer);
 8003da0:	4b0e      	ldr	r3, [pc, #56]	; (8003ddc <fsm_handle_event+0x1ef0>)
 8003da2:	0018      	movs	r0, r3
 8003da4:	f7fc ffa4 	bl	8000cf0 <st7565_clear_buffer>
        			ah_menu(colors);
 8003da8:	2005      	movs	r0, #5
 8003daa:	f7fc fb3d 	bl	8000428 <ah_menu>
        			ah_draw_cursor(1);
 8003dae:	2001      	movs	r0, #1
 8003db0:	f7fc fb26 	bl	8000400 <ah_draw_cursor>
        			st7565_write_buffer(LCD_Buffer);
 8003db4:	4b09      	ldr	r3, [pc, #36]	; (8003ddc <fsm_handle_event+0x1ef0>)
 8003db6:	0018      	movs	r0, r3
 8003db8:	f7fc fe32 	bl	8000a20 <st7565_write_buffer>
        			state = MENU_COLORS_WHITE;
 8003dbc:	4b06      	ldr	r3, [pc, #24]	; (8003dd8 <fsm_handle_event+0x1eec>)
 8003dbe:	2220      	movs	r2, #32
 8003dc0:	701a      	strb	r2, [r3, #0]
        			break;
 8003dc2:	e003      	b.n	8003dcc <fsm_handle_event+0x1ee0>

                default:
                	state = MENU_COLORS_RETURN;
 8003dc4:	4b04      	ldr	r3, [pc, #16]	; (8003dd8 <fsm_handle_event+0x1eec>)
 8003dc6:	2226      	movs	r2, #38	; 0x26
 8003dc8:	701a      	strb	r2, [r3, #0]
                }
            	break;
 8003dca:	e7ff      	b.n	8003dcc <fsm_handle_event+0x1ee0>
 8003dcc:	46c0      	nop			; (mov r8, r8)

        }            
}
 8003dce:	46c0      	nop			; (mov r8, r8)
 8003dd0:	46bd      	mov	sp, r7
 8003dd2:	b002      	add	sp, #8
 8003dd4:	bdb0      	pop	{r4, r5, r7, pc}
 8003dd6:	46c0      	nop			; (mov r8, r8)
 8003dd8:	20000040 	.word	0x20000040
 8003ddc:	200000d8 	.word	0x200000d8

08003de0 <HAL_MspInit>:
/* USER CODE END 0 */
/**
  * Initializes the Global MSP.
  */
void HAL_MspInit(void)
{
 8003de0:	b580      	push	{r7, lr}
 8003de2:	b082      	sub	sp, #8
 8003de4:	af00      	add	r7, sp, #0
  /* USER CODE BEGIN MspInit 0 */

  /* USER CODE END MspInit 0 */

  __HAL_RCC_SYSCFG_CLK_ENABLE();
 8003de6:	4b0f      	ldr	r3, [pc, #60]	; (8003e24 <HAL_MspInit+0x44>)
 8003de8:	699a      	ldr	r2, [r3, #24]
 8003dea:	4b0e      	ldr	r3, [pc, #56]	; (8003e24 <HAL_MspInit+0x44>)
 8003dec:	2101      	movs	r1, #1
 8003dee:	430a      	orrs	r2, r1
 8003df0:	619a      	str	r2, [r3, #24]
 8003df2:	4b0c      	ldr	r3, [pc, #48]	; (8003e24 <HAL_MspInit+0x44>)
 8003df4:	699b      	ldr	r3, [r3, #24]
 8003df6:	2201      	movs	r2, #1
 8003df8:	4013      	ands	r3, r2
 8003dfa:	607b      	str	r3, [r7, #4]
 8003dfc:	687b      	ldr	r3, [r7, #4]
  __HAL_RCC_PWR_CLK_ENABLE();
 8003dfe:	4b09      	ldr	r3, [pc, #36]	; (8003e24 <HAL_MspInit+0x44>)
 8003e00:	69da      	ldr	r2, [r3, #28]
 8003e02:	4b08      	ldr	r3, [pc, #32]	; (8003e24 <HAL_MspInit+0x44>)
 8003e04:	2180      	movs	r1, #128	; 0x80
 8003e06:	0549      	lsls	r1, r1, #21
 8003e08:	430a      	orrs	r2, r1
 8003e0a:	61da      	str	r2, [r3, #28]
 8003e0c:	4b05      	ldr	r3, [pc, #20]	; (8003e24 <HAL_MspInit+0x44>)
 8003e0e:	69da      	ldr	r2, [r3, #28]
 8003e10:	2380      	movs	r3, #128	; 0x80
 8003e12:	055b      	lsls	r3, r3, #21
 8003e14:	4013      	ands	r3, r2
 8003e16:	603b      	str	r3, [r7, #0]
 8003e18:	683b      	ldr	r3, [r7, #0]
  /* System interrupt init*/

  /* USER CODE BEGIN MspInit 1 */

  /* USER CODE END MspInit 1 */
}
 8003e1a:	46c0      	nop			; (mov r8, r8)
 8003e1c:	46bd      	mov	sp, r7
 8003e1e:	b002      	add	sp, #8
 8003e20:	bd80      	pop	{r7, pc}
 8003e22:	46c0      	nop			; (mov r8, r8)
 8003e24:	40021000 	.word	0x40021000

08003e28 <NMI_Handler>:
/******************************************************************************/
/**
  * @brief This function handles Non maskable interrupt.
  */
void NMI_Handler(void)
{
 8003e28:	b580      	push	{r7, lr}
 8003e2a:	af00      	add	r7, sp, #0

  /* USER CODE END NonMaskableInt_IRQn 0 */
  /* USER CODE BEGIN NonMaskableInt_IRQn 1 */

  /* USER CODE END NonMaskableInt_IRQn 1 */
}
 8003e2c:	46c0      	nop			; (mov r8, r8)
 8003e2e:	46bd      	mov	sp, r7
 8003e30:	bd80      	pop	{r7, pc}

08003e32 <HardFault_Handler>:

/**
  * @brief This function handles Hard fault interrupt.
  */
void HardFault_Handler(void)
{
 8003e32:	b580      	push	{r7, lr}
 8003e34:	af00      	add	r7, sp, #0
  /* USER CODE BEGIN HardFault_IRQn 0 */

  /* USER CODE END HardFault_IRQn 0 */
  while (1)
 8003e36:	e7fe      	b.n	8003e36 <HardFault_Handler+0x4>

08003e38 <SVC_Handler>:

/**
  * @brief This function handles System service call via SWI instruction.
  */
void SVC_Handler(void)
{
 8003e38:	b580      	push	{r7, lr}
 8003e3a:	af00      	add	r7, sp, #0

  /* USER CODE END SVC_IRQn 0 */
  /* USER CODE BEGIN SVC_IRQn 1 */

  /* USER CODE END SVC_IRQn 1 */
}
 8003e3c:	46c0      	nop			; (mov r8, r8)
 8003e3e:	46bd      	mov	sp, r7
 8003e40:	bd80      	pop	{r7, pc}

08003e42 <PendSV_Handler>:

/**
  * @brief This function handles Pendable request for system service.
  */
void PendSV_Handler(void)
{
 8003e42:	b580      	push	{r7, lr}
 8003e44:	af00      	add	r7, sp, #0

  /* USER CODE END PendSV_IRQn 0 */
  /* USER CODE BEGIN PendSV_IRQn 1 */

  /* USER CODE END PendSV_IRQn 1 */
}
 8003e46:	46c0      	nop			; (mov r8, r8)
 8003e48:	46bd      	mov	sp, r7
 8003e4a:	bd80      	pop	{r7, pc}

08003e4c <SysTick_Handler>:

/**
  * @brief This function handles System tick timer.
  */
void SysTick_Handler(void)
{
 8003e4c:	b580      	push	{r7, lr}
 8003e4e:	af00      	add	r7, sp, #0
  /* USER CODE BEGIN SysTick_IRQn 0 */

  /* USER CODE END SysTick_IRQn 0 */
  HAL_IncTick();
 8003e50:	f000 fbb0 	bl	80045b4 <HAL_IncTick>
  /* USER CODE BEGIN SysTick_IRQn 1 */

  /* USER CODE END SysTick_IRQn 1 */
}
 8003e54:	46c0      	nop			; (mov r8, r8)
 8003e56:	46bd      	mov	sp, r7
 8003e58:	bd80      	pop	{r7, pc}
	...

08003e5c <ADC1_IRQHandler>:

/**
  * @brief This function handles ADC global interrupt.
  */
void ADC1_IRQHandler(void)
{
 8003e5c:	b580      	push	{r7, lr}
 8003e5e:	af00      	add	r7, sp, #0
  /* USER CODE BEGIN ADC1_IRQn 0 */

  /* USER CODE END ADC1_IRQn 0 */
  HAL_ADC_IRQHandler(&hadc);
 8003e60:	4b03      	ldr	r3, [pc, #12]	; (8003e70 <ADC1_IRQHandler+0x14>)
 8003e62:	0018      	movs	r0, r3
 8003e64:	f000 fd24 	bl	80048b0 <HAL_ADC_IRQHandler>
  /* USER CODE BEGIN ADC1_IRQn 1 */

  /* USER CODE END ADC1_IRQn 1 */
}
 8003e68:	46c0      	nop			; (mov r8, r8)
 8003e6a:	46bd      	mov	sp, r7
 8003e6c:	bd80      	pop	{r7, pc}
 8003e6e:	46c0      	nop			; (mov r8, r8)
 8003e70:	20000044 	.word	0x20000044

08003e74 <TIM3_IRQHandler>:

/**
  * @brief This function handles TIM3 global interrupt.
  */
void TIM3_IRQHandler(void)
{
 8003e74:	b580      	push	{r7, lr}
 8003e76:	af00      	add	r7, sp, #0
  /* USER CODE BEGIN TIM3_IRQn 0 */

  /* USER CODE END TIM3_IRQn 0 */
  HAL_TIM_IRQHandler(&htim3);
 8003e78:	4b03      	ldr	r3, [pc, #12]	; (8003e88 <TIM3_IRQHandler+0x14>)
 8003e7a:	0018      	movs	r0, r3
 8003e7c:	f003 f8a4 	bl	8006fc8 <HAL_TIM_IRQHandler>
  /* USER CODE BEGIN TIM3_IRQn 1 */

  /* USER CODE END TIM3_IRQn 1 */
}
 8003e80:	46c0      	nop			; (mov r8, r8)
 8003e82:	46bd      	mov	sp, r7
 8003e84:	bd80      	pop	{r7, pc}
 8003e86:	46c0      	nop			; (mov r8, r8)
 8003e88:	2000053c 	.word	0x2000053c

08003e8c <TIM6_IRQHandler>:

/**
  * @brief This function handles TIM6 global interrupt.
  */
void TIM6_IRQHandler(void)
{
 8003e8c:	b580      	push	{r7, lr}
 8003e8e:	af00      	add	r7, sp, #0
  /* USER CODE BEGIN TIM6_IRQn 0 */

  /* USER CODE END TIM6_IRQn 0 */
  HAL_TIM_IRQHandler(&htim6);
 8003e90:	4b03      	ldr	r3, [pc, #12]	; (8003ea0 <TIM6_IRQHandler+0x14>)
 8003e92:	0018      	movs	r0, r3
 8003e94:	f003 f898 	bl	8006fc8 <HAL_TIM_IRQHandler>
  /* USER CODE BEGIN TIM6_IRQn 1 */

  /* USER CODE END TIM6_IRQn 1 */
}
 8003e98:	46c0      	nop			; (mov r8, r8)
 8003e9a:	46bd      	mov	sp, r7
 8003e9c:	bd80      	pop	{r7, pc}
 8003e9e:	46c0      	nop			; (mov r8, r8)
 8003ea0:	2000057c 	.word	0x2000057c

08003ea4 <TIM14_IRQHandler>:

/**
  * @brief This function handles TIM14 global interrupt.
  */
void TIM14_IRQHandler(void)
{
 8003ea4:	b580      	push	{r7, lr}
 8003ea6:	af00      	add	r7, sp, #0
  /* USER CODE BEGIN TIM14_IRQn 0 */

  /* USER CODE END TIM14_IRQn 0 */
  HAL_TIM_IRQHandler(&htim14);
 8003ea8:	4b03      	ldr	r3, [pc, #12]	; (8003eb8 <TIM14_IRQHandler+0x14>)
 8003eaa:	0018      	movs	r0, r3
 8003eac:	f003 f88c 	bl	8006fc8 <HAL_TIM_IRQHandler>
  /* USER CODE BEGIN TIM14_IRQn 1 */

  /* USER CODE END TIM14_IRQn 1 */
}
 8003eb0:	46c0      	nop			; (mov r8, r8)
 8003eb2:	46bd      	mov	sp, r7
 8003eb4:	bd80      	pop	{r7, pc}
 8003eb6:	46c0      	nop			; (mov r8, r8)
 8003eb8:	200005fc 	.word	0x200005fc

08003ebc <I2C2_IRQHandler>:

/**
  * @brief This function handles I2C2 global interrupt.
  */
void I2C2_IRQHandler(void)
{
 8003ebc:	b580      	push	{r7, lr}
 8003ebe:	af00      	add	r7, sp, #0
  /* USER CODE BEGIN I2C2_IRQn 0 */

  /* USER CODE END I2C2_IRQn 0 */
  if (hi2c2.Instance->ISR & (I2C_FLAG_BERR | I2C_FLAG_ARLO | I2C_FLAG_OVR)) {
 8003ec0:	4b09      	ldr	r3, [pc, #36]	; (8003ee8 <I2C2_IRQHandler+0x2c>)
 8003ec2:	681b      	ldr	r3, [r3, #0]
 8003ec4:	699a      	ldr	r2, [r3, #24]
 8003ec6:	23e0      	movs	r3, #224	; 0xe0
 8003ec8:	00db      	lsls	r3, r3, #3
 8003eca:	4013      	ands	r3, r2
 8003ecc:	d004      	beq.n	8003ed8 <I2C2_IRQHandler+0x1c>
    HAL_I2C_ER_IRQHandler(&hi2c2);
 8003ece:	4b06      	ldr	r3, [pc, #24]	; (8003ee8 <I2C2_IRQHandler+0x2c>)
 8003ed0:	0018      	movs	r0, r3
 8003ed2:	f001 fa31 	bl	8005338 <HAL_I2C_ER_IRQHandler>
    HAL_I2C_EV_IRQHandler(&hi2c2);
  }
  /* USER CODE BEGIN I2C2_IRQn 1 */

  /* USER CODE END I2C2_IRQn 1 */
}
 8003ed6:	e003      	b.n	8003ee0 <I2C2_IRQHandler+0x24>
    HAL_I2C_EV_IRQHandler(&hi2c2);
 8003ed8:	4b03      	ldr	r3, [pc, #12]	; (8003ee8 <I2C2_IRQHandler+0x2c>)
 8003eda:	0018      	movs	r0, r3
 8003edc:	f001 fa12 	bl	8005304 <HAL_I2C_EV_IRQHandler>
}
 8003ee0:	46c0      	nop			; (mov r8, r8)
 8003ee2:	46bd      	mov	sp, r7
 8003ee4:	bd80      	pop	{r7, pc}
 8003ee6:	46c0      	nop			; (mov r8, r8)
 8003ee8:	20000084 	.word	0x20000084

08003eec <MX_TIM1_Init>:
TIM_HandleTypeDef htim14;
TIM_HandleTypeDef htim15;

/* TIM1 init function */
void MX_TIM1_Init(void)
{
 8003eec:	b580      	push	{r7, lr}
 8003eee:	b096      	sub	sp, #88	; 0x58
 8003ef0:	af00      	add	r7, sp, #0
  TIM_ClockConfigTypeDef sClockSourceConfig = {0};
 8003ef2:	2348      	movs	r3, #72	; 0x48
 8003ef4:	18fb      	adds	r3, r7, r3
 8003ef6:	0018      	movs	r0, r3
 8003ef8:	2310      	movs	r3, #16
 8003efa:	001a      	movs	r2, r3
 8003efc:	2100      	movs	r1, #0
 8003efe:	f004 fa9f 	bl	8008440 <memset>
  TIM_MasterConfigTypeDef sMasterConfig = {0};
 8003f02:	2340      	movs	r3, #64	; 0x40
 8003f04:	18fb      	adds	r3, r7, r3
 8003f06:	0018      	movs	r0, r3
 8003f08:	2308      	movs	r3, #8
 8003f0a:	001a      	movs	r2, r3
 8003f0c:	2100      	movs	r1, #0
 8003f0e:	f004 fa97 	bl	8008440 <memset>
  TIM_OC_InitTypeDef sConfigOC = {0};
 8003f12:	2324      	movs	r3, #36	; 0x24
 8003f14:	18fb      	adds	r3, r7, r3
 8003f16:	0018      	movs	r0, r3
 8003f18:	231c      	movs	r3, #28
 8003f1a:	001a      	movs	r2, r3
 8003f1c:	2100      	movs	r1, #0
 8003f1e:	f004 fa8f 	bl	8008440 <memset>
  TIM_BreakDeadTimeConfigTypeDef sBreakDeadTimeConfig = {0};
 8003f22:	1d3b      	adds	r3, r7, #4
 8003f24:	0018      	movs	r0, r3
 8003f26:	2320      	movs	r3, #32
 8003f28:	001a      	movs	r2, r3
 8003f2a:	2100      	movs	r1, #0
 8003f2c:	f004 fa88 	bl	8008440 <memset>

  htim1.Instance = TIM1;
 8003f30:	4b57      	ldr	r3, [pc, #348]	; (8004090 <MX_TIM1_Init+0x1a4>)
 8003f32:	4a58      	ldr	r2, [pc, #352]	; (8004094 <MX_TIM1_Init+0x1a8>)
 8003f34:	601a      	str	r2, [r3, #0]
  htim1.Init.Prescaler = 256;
 8003f36:	4b56      	ldr	r3, [pc, #344]	; (8004090 <MX_TIM1_Init+0x1a4>)
 8003f38:	2280      	movs	r2, #128	; 0x80
 8003f3a:	0052      	lsls	r2, r2, #1
 8003f3c:	605a      	str	r2, [r3, #4]
  htim1.Init.CounterMode = TIM_COUNTERMODE_UP;
 8003f3e:	4b54      	ldr	r3, [pc, #336]	; (8004090 <MX_TIM1_Init+0x1a4>)
 8003f40:	2200      	movs	r2, #0
 8003f42:	609a      	str	r2, [r3, #8]
  htim1.Init.Period = 1000;
 8003f44:	4b52      	ldr	r3, [pc, #328]	; (8004090 <MX_TIM1_Init+0x1a4>)
 8003f46:	22fa      	movs	r2, #250	; 0xfa
 8003f48:	0092      	lsls	r2, r2, #2
 8003f4a:	60da      	str	r2, [r3, #12]
  htim1.Init.ClockDivision = TIM_CLOCKDIVISION_DIV1;
 8003f4c:	4b50      	ldr	r3, [pc, #320]	; (8004090 <MX_TIM1_Init+0x1a4>)
 8003f4e:	2200      	movs	r2, #0
 8003f50:	611a      	str	r2, [r3, #16]
  htim1.Init.RepetitionCounter = 0;
 8003f52:	4b4f      	ldr	r3, [pc, #316]	; (8004090 <MX_TIM1_Init+0x1a4>)
 8003f54:	2200      	movs	r2, #0
 8003f56:	615a      	str	r2, [r3, #20]
  htim1.Init.AutoReloadPreload = TIM_AUTORELOAD_PRELOAD_DISABLE;
 8003f58:	4b4d      	ldr	r3, [pc, #308]	; (8004090 <MX_TIM1_Init+0x1a4>)
 8003f5a:	2200      	movs	r2, #0
 8003f5c:	619a      	str	r2, [r3, #24]
  if (HAL_TIM_Base_Init(&htim1) != HAL_OK)
 8003f5e:	4b4c      	ldr	r3, [pc, #304]	; (8004090 <MX_TIM1_Init+0x1a4>)
 8003f60:	0018      	movs	r0, r3
 8003f62:	f002 ff85 	bl	8006e70 <HAL_TIM_Base_Init>
 8003f66:	1e03      	subs	r3, r0, #0
 8003f68:	d001      	beq.n	8003f6e <MX_TIM1_Init+0x82>
  {
    Error_Handler();
 8003f6a:	f7fd ff2b 	bl	8001dc4 <Error_Handler>
  }
  sClockSourceConfig.ClockSource = TIM_CLOCKSOURCE_INTERNAL;
 8003f6e:	2148      	movs	r1, #72	; 0x48
 8003f70:	187b      	adds	r3, r7, r1
 8003f72:	2280      	movs	r2, #128	; 0x80
 8003f74:	0152      	lsls	r2, r2, #5
 8003f76:	601a      	str	r2, [r3, #0]
  if (HAL_TIM_ConfigClockSource(&htim1, &sClockSourceConfig) != HAL_OK)
 8003f78:	187a      	adds	r2, r7, r1
 8003f7a:	4b45      	ldr	r3, [pc, #276]	; (8004090 <MX_TIM1_Init+0x1a4>)
 8003f7c:	0011      	movs	r1, r2
 8003f7e:	0018      	movs	r0, r3
 8003f80:	f003 f9f0 	bl	8007364 <HAL_TIM_ConfigClockSource>
 8003f84:	1e03      	subs	r3, r0, #0
 8003f86:	d001      	beq.n	8003f8c <MX_TIM1_Init+0xa0>
  {
    Error_Handler();
 8003f88:	f7fd ff1c 	bl	8001dc4 <Error_Handler>
  }
  if (HAL_TIM_PWM_Init(&htim1) != HAL_OK)
 8003f8c:	4b40      	ldr	r3, [pc, #256]	; (8004090 <MX_TIM1_Init+0x1a4>)
 8003f8e:	0018      	movs	r0, r3
 8003f90:	f002 ff9a 	bl	8006ec8 <HAL_TIM_PWM_Init>
 8003f94:	1e03      	subs	r3, r0, #0
 8003f96:	d001      	beq.n	8003f9c <MX_TIM1_Init+0xb0>
  {
    Error_Handler();
 8003f98:	f7fd ff14 	bl	8001dc4 <Error_Handler>
  }
  sMasterConfig.MasterOutputTrigger = TIM_TRGO_RESET;
 8003f9c:	2140      	movs	r1, #64	; 0x40
 8003f9e:	187b      	adds	r3, r7, r1
 8003fa0:	2200      	movs	r2, #0
 8003fa2:	601a      	str	r2, [r3, #0]
  sMasterConfig.MasterSlaveMode = TIM_MASTERSLAVEMODE_DISABLE;
 8003fa4:	187b      	adds	r3, r7, r1
 8003fa6:	2200      	movs	r2, #0
 8003fa8:	605a      	str	r2, [r3, #4]
  if (HAL_TIMEx_MasterConfigSynchronization(&htim1, &sMasterConfig) != HAL_OK)
 8003faa:	187a      	adds	r2, r7, r1
 8003fac:	4b38      	ldr	r3, [pc, #224]	; (8004090 <MX_TIM1_Init+0x1a4>)
 8003fae:	0011      	movs	r1, r2
 8003fb0:	0018      	movs	r0, r3
 8003fb2:	f003 fded 	bl	8007b90 <HAL_TIMEx_MasterConfigSynchronization>
 8003fb6:	1e03      	subs	r3, r0, #0
 8003fb8:	d001      	beq.n	8003fbe <MX_TIM1_Init+0xd2>
  {
    Error_Handler();
 8003fba:	f7fd ff03 	bl	8001dc4 <Error_Handler>
  }
  sConfigOC.OCMode = TIM_OCMODE_PWM1;
 8003fbe:	2124      	movs	r1, #36	; 0x24
 8003fc0:	187b      	adds	r3, r7, r1
 8003fc2:	2260      	movs	r2, #96	; 0x60
 8003fc4:	601a      	str	r2, [r3, #0]
  sConfigOC.Pulse = 0;
 8003fc6:	187b      	adds	r3, r7, r1
 8003fc8:	2200      	movs	r2, #0
 8003fca:	605a      	str	r2, [r3, #4]
  sConfigOC.OCPolarity = TIM_OCPOLARITY_HIGH;
 8003fcc:	187b      	adds	r3, r7, r1
 8003fce:	2200      	movs	r2, #0
 8003fd0:	609a      	str	r2, [r3, #8]
  sConfigOC.OCNPolarity = TIM_OCNPOLARITY_HIGH;
 8003fd2:	187b      	adds	r3, r7, r1
 8003fd4:	2200      	movs	r2, #0
 8003fd6:	60da      	str	r2, [r3, #12]
  sConfigOC.OCFastMode = TIM_OCFAST_DISABLE;
 8003fd8:	187b      	adds	r3, r7, r1
 8003fda:	2200      	movs	r2, #0
 8003fdc:	611a      	str	r2, [r3, #16]
  sConfigOC.OCIdleState = TIM_OCIDLESTATE_RESET;
 8003fde:	187b      	adds	r3, r7, r1
 8003fe0:	2200      	movs	r2, #0
 8003fe2:	615a      	str	r2, [r3, #20]
  sConfigOC.OCNIdleState = TIM_OCNIDLESTATE_RESET;
 8003fe4:	187b      	adds	r3, r7, r1
 8003fe6:	2200      	movs	r2, #0
 8003fe8:	619a      	str	r2, [r3, #24]
  if (HAL_TIM_PWM_ConfigChannel(&htim1, &sConfigOC, TIM_CHANNEL_1) != HAL_OK)
 8003fea:	1879      	adds	r1, r7, r1
 8003fec:	4b28      	ldr	r3, [pc, #160]	; (8004090 <MX_TIM1_Init+0x1a4>)
 8003fee:	2200      	movs	r2, #0
 8003ff0:	0018      	movs	r0, r3
 8003ff2:	f003 f8ff 	bl	80071f4 <HAL_TIM_PWM_ConfigChannel>
 8003ff6:	1e03      	subs	r3, r0, #0
 8003ff8:	d001      	beq.n	8003ffe <MX_TIM1_Init+0x112>
  {
    Error_Handler();
 8003ffa:	f7fd fee3 	bl	8001dc4 <Error_Handler>
  }
  if (HAL_TIM_PWM_ConfigChannel(&htim1, &sConfigOC, TIM_CHANNEL_2) != HAL_OK)
 8003ffe:	2324      	movs	r3, #36	; 0x24
 8004000:	18f9      	adds	r1, r7, r3
 8004002:	4b23      	ldr	r3, [pc, #140]	; (8004090 <MX_TIM1_Init+0x1a4>)
 8004004:	2204      	movs	r2, #4
 8004006:	0018      	movs	r0, r3
 8004008:	f003 f8f4 	bl	80071f4 <HAL_TIM_PWM_ConfigChannel>
 800400c:	1e03      	subs	r3, r0, #0
 800400e:	d001      	beq.n	8004014 <MX_TIM1_Init+0x128>
  {
    Error_Handler();
 8004010:	f7fd fed8 	bl	8001dc4 <Error_Handler>
  }
  if (HAL_TIM_PWM_ConfigChannel(&htim1, &sConfigOC, TIM_CHANNEL_3) != HAL_OK)
 8004014:	2324      	movs	r3, #36	; 0x24
 8004016:	18f9      	adds	r1, r7, r3
 8004018:	4b1d      	ldr	r3, [pc, #116]	; (8004090 <MX_TIM1_Init+0x1a4>)
 800401a:	2208      	movs	r2, #8
 800401c:	0018      	movs	r0, r3
 800401e:	f003 f8e9 	bl	80071f4 <HAL_TIM_PWM_ConfigChannel>
 8004022:	1e03      	subs	r3, r0, #0
 8004024:	d001      	beq.n	800402a <MX_TIM1_Init+0x13e>
  {
    Error_Handler();
 8004026:	f7fd fecd 	bl	8001dc4 <Error_Handler>
  }
  if (HAL_TIM_PWM_ConfigChannel(&htim1, &sConfigOC, TIM_CHANNEL_4) != HAL_OK)
 800402a:	2324      	movs	r3, #36	; 0x24
 800402c:	18f9      	adds	r1, r7, r3
 800402e:	4b18      	ldr	r3, [pc, #96]	; (8004090 <MX_TIM1_Init+0x1a4>)
 8004030:	220c      	movs	r2, #12
 8004032:	0018      	movs	r0, r3
 8004034:	f003 f8de 	bl	80071f4 <HAL_TIM_PWM_ConfigChannel>
 8004038:	1e03      	subs	r3, r0, #0
 800403a:	d001      	beq.n	8004040 <MX_TIM1_Init+0x154>
  {
    Error_Handler();
 800403c:	f7fd fec2 	bl	8001dc4 <Error_Handler>
  }
  sBreakDeadTimeConfig.OffStateRunMode = TIM_OSSR_DISABLE;
 8004040:	1d3b      	adds	r3, r7, #4
 8004042:	2200      	movs	r2, #0
 8004044:	601a      	str	r2, [r3, #0]
  sBreakDeadTimeConfig.OffStateIDLEMode = TIM_OSSI_DISABLE;
 8004046:	1d3b      	adds	r3, r7, #4
 8004048:	2200      	movs	r2, #0
 800404a:	605a      	str	r2, [r3, #4]
  sBreakDeadTimeConfig.LockLevel = TIM_LOCKLEVEL_OFF;
 800404c:	1d3b      	adds	r3, r7, #4
 800404e:	2200      	movs	r2, #0
 8004050:	609a      	str	r2, [r3, #8]
  sBreakDeadTimeConfig.DeadTime = 0;
 8004052:	1d3b      	adds	r3, r7, #4
 8004054:	2200      	movs	r2, #0
 8004056:	60da      	str	r2, [r3, #12]
  sBreakDeadTimeConfig.BreakState = TIM_BREAK_DISABLE;
 8004058:	1d3b      	adds	r3, r7, #4
 800405a:	2200      	movs	r2, #0
 800405c:	611a      	str	r2, [r3, #16]
  sBreakDeadTimeConfig.BreakPolarity = TIM_BREAKPOLARITY_HIGH;
 800405e:	1d3b      	adds	r3, r7, #4
 8004060:	2280      	movs	r2, #128	; 0x80
 8004062:	0192      	lsls	r2, r2, #6
 8004064:	615a      	str	r2, [r3, #20]
  sBreakDeadTimeConfig.AutomaticOutput = TIM_AUTOMATICOUTPUT_DISABLE;
 8004066:	1d3b      	adds	r3, r7, #4
 8004068:	2200      	movs	r2, #0
 800406a:	61da      	str	r2, [r3, #28]
  if (HAL_TIMEx_ConfigBreakDeadTime(&htim1, &sBreakDeadTimeConfig) != HAL_OK)
 800406c:	1d3a      	adds	r2, r7, #4
 800406e:	4b08      	ldr	r3, [pc, #32]	; (8004090 <MX_TIM1_Init+0x1a4>)
 8004070:	0011      	movs	r1, r2
 8004072:	0018      	movs	r0, r3
 8004074:	f003 fde4 	bl	8007c40 <HAL_TIMEx_ConfigBreakDeadTime>
 8004078:	1e03      	subs	r3, r0, #0
 800407a:	d001      	beq.n	8004080 <MX_TIM1_Init+0x194>
  {
    Error_Handler();
 800407c:	f7fd fea2 	bl	8001dc4 <Error_Handler>
  }
  HAL_TIM_MspPostInit(&htim1);
 8004080:	4b03      	ldr	r3, [pc, #12]	; (8004090 <MX_TIM1_Init+0x1a4>)
 8004082:	0018      	movs	r0, r3
 8004084:	f000 f98a 	bl	800439c <HAL_TIM_MspPostInit>

}
 8004088:	46c0      	nop			; (mov r8, r8)
 800408a:	46bd      	mov	sp, r7
 800408c:	b016      	add	sp, #88	; 0x58
 800408e:	bd80      	pop	{r7, pc}
 8004090:	200005bc 	.word	0x200005bc
 8004094:	40012c00 	.word	0x40012c00

08004098 <MX_TIM3_Init>:
/* TIM3 init function */
void MX_TIM3_Init(void)
{
 8004098:	b580      	push	{r7, lr}
 800409a:	b086      	sub	sp, #24
 800409c:	af00      	add	r7, sp, #0
  TIM_ClockConfigTypeDef sClockSourceConfig = {0};
 800409e:	2308      	movs	r3, #8
 80040a0:	18fb      	adds	r3, r7, r3
 80040a2:	0018      	movs	r0, r3
 80040a4:	2310      	movs	r3, #16
 80040a6:	001a      	movs	r2, r3
 80040a8:	2100      	movs	r1, #0
 80040aa:	f004 f9c9 	bl	8008440 <memset>
  TIM_MasterConfigTypeDef sMasterConfig = {0};
 80040ae:	003b      	movs	r3, r7
 80040b0:	0018      	movs	r0, r3
 80040b2:	2308      	movs	r3, #8
 80040b4:	001a      	movs	r2, r3
 80040b6:	2100      	movs	r1, #0
 80040b8:	f004 f9c2 	bl	8008440 <memset>

  htim3.Instance = TIM3;
 80040bc:	4b1f      	ldr	r3, [pc, #124]	; (800413c <MX_TIM3_Init+0xa4>)
 80040be:	4a20      	ldr	r2, [pc, #128]	; (8004140 <MX_TIM3_Init+0xa8>)
 80040c0:	601a      	str	r2, [r3, #0]
  htim3.Init.Prescaler = 480;
 80040c2:	4b1e      	ldr	r3, [pc, #120]	; (800413c <MX_TIM3_Init+0xa4>)
 80040c4:	22f0      	movs	r2, #240	; 0xf0
 80040c6:	0052      	lsls	r2, r2, #1
 80040c8:	605a      	str	r2, [r3, #4]
  htim3.Init.CounterMode = TIM_COUNTERMODE_UP;
 80040ca:	4b1c      	ldr	r3, [pc, #112]	; (800413c <MX_TIM3_Init+0xa4>)
 80040cc:	2200      	movs	r2, #0
 80040ce:	609a      	str	r2, [r3, #8]
  htim3.Init.Period = 1000;
 80040d0:	4b1a      	ldr	r3, [pc, #104]	; (800413c <MX_TIM3_Init+0xa4>)
 80040d2:	22fa      	movs	r2, #250	; 0xfa
 80040d4:	0092      	lsls	r2, r2, #2
 80040d6:	60da      	str	r2, [r3, #12]
  htim3.Init.ClockDivision = TIM_CLOCKDIVISION_DIV1;
 80040d8:	4b18      	ldr	r3, [pc, #96]	; (800413c <MX_TIM3_Init+0xa4>)
 80040da:	2200      	movs	r2, #0
 80040dc:	611a      	str	r2, [r3, #16]
  htim3.Init.AutoReloadPreload = TIM_AUTORELOAD_PRELOAD_DISABLE;
 80040de:	4b17      	ldr	r3, [pc, #92]	; (800413c <MX_TIM3_Init+0xa4>)
 80040e0:	2200      	movs	r2, #0
 80040e2:	619a      	str	r2, [r3, #24]
  if (HAL_TIM_Base_Init(&htim3) != HAL_OK)
 80040e4:	4b15      	ldr	r3, [pc, #84]	; (800413c <MX_TIM3_Init+0xa4>)
 80040e6:	0018      	movs	r0, r3
 80040e8:	f002 fec2 	bl	8006e70 <HAL_TIM_Base_Init>
 80040ec:	1e03      	subs	r3, r0, #0
 80040ee:	d001      	beq.n	80040f4 <MX_TIM3_Init+0x5c>
  {
    Error_Handler();
 80040f0:	f7fd fe68 	bl	8001dc4 <Error_Handler>
  }
  sClockSourceConfig.ClockSource = TIM_CLOCKSOURCE_INTERNAL;
 80040f4:	2108      	movs	r1, #8
 80040f6:	187b      	adds	r3, r7, r1
 80040f8:	2280      	movs	r2, #128	; 0x80
 80040fa:	0152      	lsls	r2, r2, #5
 80040fc:	601a      	str	r2, [r3, #0]
  if (HAL_TIM_ConfigClockSource(&htim3, &sClockSourceConfig) != HAL_OK)
 80040fe:	187a      	adds	r2, r7, r1
 8004100:	4b0e      	ldr	r3, [pc, #56]	; (800413c <MX_TIM3_Init+0xa4>)
 8004102:	0011      	movs	r1, r2
 8004104:	0018      	movs	r0, r3
 8004106:	f003 f92d 	bl	8007364 <HAL_TIM_ConfigClockSource>
 800410a:	1e03      	subs	r3, r0, #0
 800410c:	d001      	beq.n	8004112 <MX_TIM3_Init+0x7a>
  {
    Error_Handler();
 800410e:	f7fd fe59 	bl	8001dc4 <Error_Handler>
  }
  sMasterConfig.MasterOutputTrigger = TIM_TRGO_RESET;
 8004112:	003b      	movs	r3, r7
 8004114:	2200      	movs	r2, #0
 8004116:	601a      	str	r2, [r3, #0]
  sMasterConfig.MasterSlaveMode = TIM_MASTERSLAVEMODE_DISABLE;
 8004118:	003b      	movs	r3, r7
 800411a:	2200      	movs	r2, #0
 800411c:	605a      	str	r2, [r3, #4]
  if (HAL_TIMEx_MasterConfigSynchronization(&htim3, &sMasterConfig) != HAL_OK)
 800411e:	003a      	movs	r2, r7
 8004120:	4b06      	ldr	r3, [pc, #24]	; (800413c <MX_TIM3_Init+0xa4>)
 8004122:	0011      	movs	r1, r2
 8004124:	0018      	movs	r0, r3
 8004126:	f003 fd33 	bl	8007b90 <HAL_TIMEx_MasterConfigSynchronization>
 800412a:	1e03      	subs	r3, r0, #0
 800412c:	d001      	beq.n	8004132 <MX_TIM3_Init+0x9a>
  {
    Error_Handler();
 800412e:	f7fd fe49 	bl	8001dc4 <Error_Handler>
  }

}
 8004132:	46c0      	nop			; (mov r8, r8)
 8004134:	46bd      	mov	sp, r7
 8004136:	b006      	add	sp, #24
 8004138:	bd80      	pop	{r7, pc}
 800413a:	46c0      	nop			; (mov r8, r8)
 800413c:	2000053c 	.word	0x2000053c
 8004140:	40000400 	.word	0x40000400

08004144 <MX_TIM6_Init>:
/* TIM6 init function */
void MX_TIM6_Init(void)
{
 8004144:	b580      	push	{r7, lr}
 8004146:	af00      	add	r7, sp, #0

  htim6.Instance = TIM6;
 8004148:	4b0d      	ldr	r3, [pc, #52]	; (8004180 <MX_TIM6_Init+0x3c>)
 800414a:	4a0e      	ldr	r2, [pc, #56]	; (8004184 <MX_TIM6_Init+0x40>)
 800414c:	601a      	str	r2, [r3, #0]
  htim6.Init.Prescaler = 48000;
 800414e:	4b0c      	ldr	r3, [pc, #48]	; (8004180 <MX_TIM6_Init+0x3c>)
 8004150:	4a0d      	ldr	r2, [pc, #52]	; (8004188 <MX_TIM6_Init+0x44>)
 8004152:	605a      	str	r2, [r3, #4]
  htim6.Init.CounterMode = TIM_COUNTERMODE_UP;
 8004154:	4b0a      	ldr	r3, [pc, #40]	; (8004180 <MX_TIM6_Init+0x3c>)
 8004156:	2200      	movs	r2, #0
 8004158:	609a      	str	r2, [r3, #8]
  htim6.Init.Period = 500;
 800415a:	4b09      	ldr	r3, [pc, #36]	; (8004180 <MX_TIM6_Init+0x3c>)
 800415c:	22fa      	movs	r2, #250	; 0xfa
 800415e:	0052      	lsls	r2, r2, #1
 8004160:	60da      	str	r2, [r3, #12]
  htim6.Init.AutoReloadPreload = TIM_AUTORELOAD_PRELOAD_DISABLE;
 8004162:	4b07      	ldr	r3, [pc, #28]	; (8004180 <MX_TIM6_Init+0x3c>)
 8004164:	2200      	movs	r2, #0
 8004166:	619a      	str	r2, [r3, #24]
  if (HAL_TIM_Base_Init(&htim6) != HAL_OK)
 8004168:	4b05      	ldr	r3, [pc, #20]	; (8004180 <MX_TIM6_Init+0x3c>)
 800416a:	0018      	movs	r0, r3
 800416c:	f002 fe80 	bl	8006e70 <HAL_TIM_Base_Init>
 8004170:	1e03      	subs	r3, r0, #0
 8004172:	d001      	beq.n	8004178 <MX_TIM6_Init+0x34>
  {
    Error_Handler();
 8004174:	f7fd fe26 	bl	8001dc4 <Error_Handler>
  }

}
 8004178:	46c0      	nop			; (mov r8, r8)
 800417a:	46bd      	mov	sp, r7
 800417c:	bd80      	pop	{r7, pc}
 800417e:	46c0      	nop			; (mov r8, r8)
 8004180:	2000057c 	.word	0x2000057c
 8004184:	40001000 	.word	0x40001000
 8004188:	0000bb80 	.word	0x0000bb80

0800418c <MX_TIM14_Init>:
/* TIM14 init function */
void MX_TIM14_Init(void)
{
 800418c:	b580      	push	{r7, lr}
 800418e:	af00      	add	r7, sp, #0

  htim14.Instance = TIM14;
 8004190:	4b0f      	ldr	r3, [pc, #60]	; (80041d0 <MX_TIM14_Init+0x44>)
 8004192:	4a10      	ldr	r2, [pc, #64]	; (80041d4 <MX_TIM14_Init+0x48>)
 8004194:	601a      	str	r2, [r3, #0]
  htim14.Init.Prescaler = 480;
 8004196:	4b0e      	ldr	r3, [pc, #56]	; (80041d0 <MX_TIM14_Init+0x44>)
 8004198:	22f0      	movs	r2, #240	; 0xf0
 800419a:	0052      	lsls	r2, r2, #1
 800419c:	605a      	str	r2, [r3, #4]
  htim14.Init.CounterMode = TIM_COUNTERMODE_UP;
 800419e:	4b0c      	ldr	r3, [pc, #48]	; (80041d0 <MX_TIM14_Init+0x44>)
 80041a0:	2200      	movs	r2, #0
 80041a2:	609a      	str	r2, [r3, #8]
  htim14.Init.Period = 1000;
 80041a4:	4b0a      	ldr	r3, [pc, #40]	; (80041d0 <MX_TIM14_Init+0x44>)
 80041a6:	22fa      	movs	r2, #250	; 0xfa
 80041a8:	0092      	lsls	r2, r2, #2
 80041aa:	60da      	str	r2, [r3, #12]
  htim14.Init.ClockDivision = TIM_CLOCKDIVISION_DIV1;
 80041ac:	4b08      	ldr	r3, [pc, #32]	; (80041d0 <MX_TIM14_Init+0x44>)
 80041ae:	2200      	movs	r2, #0
 80041b0:	611a      	str	r2, [r3, #16]
  htim14.Init.AutoReloadPreload = TIM_AUTORELOAD_PRELOAD_DISABLE;
 80041b2:	4b07      	ldr	r3, [pc, #28]	; (80041d0 <MX_TIM14_Init+0x44>)
 80041b4:	2200      	movs	r2, #0
 80041b6:	619a      	str	r2, [r3, #24]
  if (HAL_TIM_Base_Init(&htim14) != HAL_OK)
 80041b8:	4b05      	ldr	r3, [pc, #20]	; (80041d0 <MX_TIM14_Init+0x44>)
 80041ba:	0018      	movs	r0, r3
 80041bc:	f002 fe58 	bl	8006e70 <HAL_TIM_Base_Init>
 80041c0:	1e03      	subs	r3, r0, #0
 80041c2:	d001      	beq.n	80041c8 <MX_TIM14_Init+0x3c>
  {
    Error_Handler();
 80041c4:	f7fd fdfe 	bl	8001dc4 <Error_Handler>
  }

}
 80041c8:	46c0      	nop			; (mov r8, r8)
 80041ca:	46bd      	mov	sp, r7
 80041cc:	bd80      	pop	{r7, pc}
 80041ce:	46c0      	nop			; (mov r8, r8)
 80041d0:	200005fc 	.word	0x200005fc
 80041d4:	40002000 	.word	0x40002000

080041d8 <MX_TIM15_Init>:
/* TIM15 init function */
void MX_TIM15_Init(void)
{
 80041d8:	b580      	push	{r7, lr}
 80041da:	b086      	sub	sp, #24
 80041dc:	af00      	add	r7, sp, #0
  TIM_ClockConfigTypeDef sClockSourceConfig = {0};
 80041de:	2308      	movs	r3, #8
 80041e0:	18fb      	adds	r3, r7, r3
 80041e2:	0018      	movs	r0, r3
 80041e4:	2310      	movs	r3, #16
 80041e6:	001a      	movs	r2, r3
 80041e8:	2100      	movs	r1, #0
 80041ea:	f004 f929 	bl	8008440 <memset>
  TIM_MasterConfigTypeDef sMasterConfig = {0};
 80041ee:	003b      	movs	r3, r7
 80041f0:	0018      	movs	r0, r3
 80041f2:	2308      	movs	r3, #8
 80041f4:	001a      	movs	r2, r3
 80041f6:	2100      	movs	r1, #0
 80041f8:	f004 f922 	bl	8008440 <memset>

  htim15.Instance = TIM15;
 80041fc:	4b1f      	ldr	r3, [pc, #124]	; (800427c <MX_TIM15_Init+0xa4>)
 80041fe:	4a20      	ldr	r2, [pc, #128]	; (8004280 <MX_TIM15_Init+0xa8>)
 8004200:	601a      	str	r2, [r3, #0]
  htim15.Init.Prescaler = 0;
 8004202:	4b1e      	ldr	r3, [pc, #120]	; (800427c <MX_TIM15_Init+0xa4>)
 8004204:	2200      	movs	r2, #0
 8004206:	605a      	str	r2, [r3, #4]
  htim15.Init.CounterMode = TIM_COUNTERMODE_UP;
 8004208:	4b1c      	ldr	r3, [pc, #112]	; (800427c <MX_TIM15_Init+0xa4>)
 800420a:	2200      	movs	r2, #0
 800420c:	609a      	str	r2, [r3, #8]
  htim15.Init.Period = 0;
 800420e:	4b1b      	ldr	r3, [pc, #108]	; (800427c <MX_TIM15_Init+0xa4>)
 8004210:	2200      	movs	r2, #0
 8004212:	60da      	str	r2, [r3, #12]
  htim15.Init.ClockDivision = TIM_CLOCKDIVISION_DIV1;
 8004214:	4b19      	ldr	r3, [pc, #100]	; (800427c <MX_TIM15_Init+0xa4>)
 8004216:	2200      	movs	r2, #0
 8004218:	611a      	str	r2, [r3, #16]
  htim15.Init.RepetitionCounter = 0;
 800421a:	4b18      	ldr	r3, [pc, #96]	; (800427c <MX_TIM15_Init+0xa4>)
 800421c:	2200      	movs	r2, #0
 800421e:	615a      	str	r2, [r3, #20]
  htim15.Init.AutoReloadPreload = TIM_AUTORELOAD_PRELOAD_DISABLE;
 8004220:	4b16      	ldr	r3, [pc, #88]	; (800427c <MX_TIM15_Init+0xa4>)
 8004222:	2200      	movs	r2, #0
 8004224:	619a      	str	r2, [r3, #24]
  if (HAL_TIM_Base_Init(&htim15) != HAL_OK)
 8004226:	4b15      	ldr	r3, [pc, #84]	; (800427c <MX_TIM15_Init+0xa4>)
 8004228:	0018      	movs	r0, r3
 800422a:	f002 fe21 	bl	8006e70 <HAL_TIM_Base_Init>
 800422e:	1e03      	subs	r3, r0, #0
 8004230:	d001      	beq.n	8004236 <MX_TIM15_Init+0x5e>
  {
    Error_Handler();
 8004232:	f7fd fdc7 	bl	8001dc4 <Error_Handler>
  }
  sClockSourceConfig.ClockSource = TIM_CLOCKSOURCE_INTERNAL;
 8004236:	2108      	movs	r1, #8
 8004238:	187b      	adds	r3, r7, r1
 800423a:	2280      	movs	r2, #128	; 0x80
 800423c:	0152      	lsls	r2, r2, #5
 800423e:	601a      	str	r2, [r3, #0]
  if (HAL_TIM_ConfigClockSource(&htim15, &sClockSourceConfig) != HAL_OK)
 8004240:	187a      	adds	r2, r7, r1
 8004242:	4b0e      	ldr	r3, [pc, #56]	; (800427c <MX_TIM15_Init+0xa4>)
 8004244:	0011      	movs	r1, r2
 8004246:	0018      	movs	r0, r3
 8004248:	f003 f88c 	bl	8007364 <HAL_TIM_ConfigClockSource>
 800424c:	1e03      	subs	r3, r0, #0
 800424e:	d001      	beq.n	8004254 <MX_TIM15_Init+0x7c>
  {
    Error_Handler();
 8004250:	f7fd fdb8 	bl	8001dc4 <Error_Handler>
  }
  sMasterConfig.MasterOutputTrigger = TIM_TRGO_RESET;
 8004254:	003b      	movs	r3, r7
 8004256:	2200      	movs	r2, #0
 8004258:	601a      	str	r2, [r3, #0]
  sMasterConfig.MasterSlaveMode = TIM_MASTERSLAVEMODE_DISABLE;
 800425a:	003b      	movs	r3, r7
 800425c:	2200      	movs	r2, #0
 800425e:	605a      	str	r2, [r3, #4]
  if (HAL_TIMEx_MasterConfigSynchronization(&htim15, &sMasterConfig) != HAL_OK)
 8004260:	003a      	movs	r2, r7
 8004262:	4b06      	ldr	r3, [pc, #24]	; (800427c <MX_TIM15_Init+0xa4>)
 8004264:	0011      	movs	r1, r2
 8004266:	0018      	movs	r0, r3
 8004268:	f003 fc92 	bl	8007b90 <HAL_TIMEx_MasterConfigSynchronization>
 800426c:	1e03      	subs	r3, r0, #0
 800426e:	d001      	beq.n	8004274 <MX_TIM15_Init+0x9c>
  {
    Error_Handler();
 8004270:	f7fd fda8 	bl	8001dc4 <Error_Handler>
  }

}
 8004274:	46c0      	nop			; (mov r8, r8)
 8004276:	46bd      	mov	sp, r7
 8004278:	b006      	add	sp, #24
 800427a:	bd80      	pop	{r7, pc}
 800427c:	200004fc 	.word	0x200004fc
 8004280:	40014000 	.word	0x40014000

08004284 <HAL_TIM_Base_MspInit>:

void HAL_TIM_Base_MspInit(TIM_HandleTypeDef* tim_baseHandle)
{
 8004284:	b580      	push	{r7, lr}
 8004286:	b088      	sub	sp, #32
 8004288:	af00      	add	r7, sp, #0
 800428a:	6078      	str	r0, [r7, #4]

  if(tim_baseHandle->Instance==TIM1)
 800428c:	687b      	ldr	r3, [r7, #4]
 800428e:	681b      	ldr	r3, [r3, #0]
 8004290:	4a3c      	ldr	r2, [pc, #240]	; (8004384 <HAL_TIM_Base_MspInit+0x100>)
 8004292:	4293      	cmp	r3, r2
 8004294:	d10e      	bne.n	80042b4 <HAL_TIM_Base_MspInit+0x30>
  {
  /* USER CODE BEGIN TIM1_MspInit 0 */

  /* USER CODE END TIM1_MspInit 0 */
    /* TIM1 clock enable */
    __HAL_RCC_TIM1_CLK_ENABLE();
 8004296:	4b3c      	ldr	r3, [pc, #240]	; (8004388 <HAL_TIM_Base_MspInit+0x104>)
 8004298:	699a      	ldr	r2, [r3, #24]
 800429a:	4b3b      	ldr	r3, [pc, #236]	; (8004388 <HAL_TIM_Base_MspInit+0x104>)
 800429c:	2180      	movs	r1, #128	; 0x80
 800429e:	0109      	lsls	r1, r1, #4
 80042a0:	430a      	orrs	r2, r1
 80042a2:	619a      	str	r2, [r3, #24]
 80042a4:	4b38      	ldr	r3, [pc, #224]	; (8004388 <HAL_TIM_Base_MspInit+0x104>)
 80042a6:	699a      	ldr	r2, [r3, #24]
 80042a8:	2380      	movs	r3, #128	; 0x80
 80042aa:	011b      	lsls	r3, r3, #4
 80042ac:	4013      	ands	r3, r2
 80042ae:	61fb      	str	r3, [r7, #28]
 80042b0:	69fb      	ldr	r3, [r7, #28]
    __HAL_RCC_TIM15_CLK_ENABLE();
  /* USER CODE BEGIN TIM15_MspInit 1 */

  /* USER CODE END TIM15_MspInit 1 */
  }
}
 80042b2:	e062      	b.n	800437a <HAL_TIM_Base_MspInit+0xf6>
  else if(tim_baseHandle->Instance==TIM3)
 80042b4:	687b      	ldr	r3, [r7, #4]
 80042b6:	681b      	ldr	r3, [r3, #0]
 80042b8:	4a34      	ldr	r2, [pc, #208]	; (800438c <HAL_TIM_Base_MspInit+0x108>)
 80042ba:	4293      	cmp	r3, r2
 80042bc:	d114      	bne.n	80042e8 <HAL_TIM_Base_MspInit+0x64>
    __HAL_RCC_TIM3_CLK_ENABLE();
 80042be:	4b32      	ldr	r3, [pc, #200]	; (8004388 <HAL_TIM_Base_MspInit+0x104>)
 80042c0:	69da      	ldr	r2, [r3, #28]
 80042c2:	4b31      	ldr	r3, [pc, #196]	; (8004388 <HAL_TIM_Base_MspInit+0x104>)
 80042c4:	2102      	movs	r1, #2
 80042c6:	430a      	orrs	r2, r1
 80042c8:	61da      	str	r2, [r3, #28]
 80042ca:	4b2f      	ldr	r3, [pc, #188]	; (8004388 <HAL_TIM_Base_MspInit+0x104>)
 80042cc:	69db      	ldr	r3, [r3, #28]
 80042ce:	2202      	movs	r2, #2
 80042d0:	4013      	ands	r3, r2
 80042d2:	61bb      	str	r3, [r7, #24]
 80042d4:	69bb      	ldr	r3, [r7, #24]
    HAL_NVIC_SetPriority(TIM3_IRQn, 1, 0);
 80042d6:	2200      	movs	r2, #0
 80042d8:	2101      	movs	r1, #1
 80042da:	2010      	movs	r0, #16
 80042dc:	f000 fd5a 	bl	8004d94 <HAL_NVIC_SetPriority>
    HAL_NVIC_EnableIRQ(TIM3_IRQn);
 80042e0:	2010      	movs	r0, #16
 80042e2:	f000 fd6c 	bl	8004dbe <HAL_NVIC_EnableIRQ>
}
 80042e6:	e048      	b.n	800437a <HAL_TIM_Base_MspInit+0xf6>
  else if(tim_baseHandle->Instance==TIM6)
 80042e8:	687b      	ldr	r3, [r7, #4]
 80042ea:	681b      	ldr	r3, [r3, #0]
 80042ec:	4a28      	ldr	r2, [pc, #160]	; (8004390 <HAL_TIM_Base_MspInit+0x10c>)
 80042ee:	4293      	cmp	r3, r2
 80042f0:	d114      	bne.n	800431c <HAL_TIM_Base_MspInit+0x98>
    __HAL_RCC_TIM6_CLK_ENABLE();
 80042f2:	4b25      	ldr	r3, [pc, #148]	; (8004388 <HAL_TIM_Base_MspInit+0x104>)
 80042f4:	69da      	ldr	r2, [r3, #28]
 80042f6:	4b24      	ldr	r3, [pc, #144]	; (8004388 <HAL_TIM_Base_MspInit+0x104>)
 80042f8:	2110      	movs	r1, #16
 80042fa:	430a      	orrs	r2, r1
 80042fc:	61da      	str	r2, [r3, #28]
 80042fe:	4b22      	ldr	r3, [pc, #136]	; (8004388 <HAL_TIM_Base_MspInit+0x104>)
 8004300:	69db      	ldr	r3, [r3, #28]
 8004302:	2210      	movs	r2, #16
 8004304:	4013      	ands	r3, r2
 8004306:	617b      	str	r3, [r7, #20]
 8004308:	697b      	ldr	r3, [r7, #20]
    HAL_NVIC_SetPriority(TIM6_IRQn, 0, 0);
 800430a:	2200      	movs	r2, #0
 800430c:	2100      	movs	r1, #0
 800430e:	2011      	movs	r0, #17
 8004310:	f000 fd40 	bl	8004d94 <HAL_NVIC_SetPriority>
    HAL_NVIC_EnableIRQ(TIM6_IRQn);
 8004314:	2011      	movs	r0, #17
 8004316:	f000 fd52 	bl	8004dbe <HAL_NVIC_EnableIRQ>
}
 800431a:	e02e      	b.n	800437a <HAL_TIM_Base_MspInit+0xf6>
  else if(tim_baseHandle->Instance==TIM14)
 800431c:	687b      	ldr	r3, [r7, #4]
 800431e:	681b      	ldr	r3, [r3, #0]
 8004320:	4a1c      	ldr	r2, [pc, #112]	; (8004394 <HAL_TIM_Base_MspInit+0x110>)
 8004322:	4293      	cmp	r3, r2
 8004324:	d116      	bne.n	8004354 <HAL_TIM_Base_MspInit+0xd0>
    __HAL_RCC_TIM14_CLK_ENABLE();
 8004326:	4b18      	ldr	r3, [pc, #96]	; (8004388 <HAL_TIM_Base_MspInit+0x104>)
 8004328:	69da      	ldr	r2, [r3, #28]
 800432a:	4b17      	ldr	r3, [pc, #92]	; (8004388 <HAL_TIM_Base_MspInit+0x104>)
 800432c:	2180      	movs	r1, #128	; 0x80
 800432e:	0049      	lsls	r1, r1, #1
 8004330:	430a      	orrs	r2, r1
 8004332:	61da      	str	r2, [r3, #28]
 8004334:	4b14      	ldr	r3, [pc, #80]	; (8004388 <HAL_TIM_Base_MspInit+0x104>)
 8004336:	69da      	ldr	r2, [r3, #28]
 8004338:	2380      	movs	r3, #128	; 0x80
 800433a:	005b      	lsls	r3, r3, #1
 800433c:	4013      	ands	r3, r2
 800433e:	613b      	str	r3, [r7, #16]
 8004340:	693b      	ldr	r3, [r7, #16]
    HAL_NVIC_SetPriority(TIM14_IRQn, 0, 0);
 8004342:	2200      	movs	r2, #0
 8004344:	2100      	movs	r1, #0
 8004346:	2013      	movs	r0, #19
 8004348:	f000 fd24 	bl	8004d94 <HAL_NVIC_SetPriority>
    HAL_NVIC_EnableIRQ(TIM14_IRQn);
 800434c:	2013      	movs	r0, #19
 800434e:	f000 fd36 	bl	8004dbe <HAL_NVIC_EnableIRQ>
}
 8004352:	e012      	b.n	800437a <HAL_TIM_Base_MspInit+0xf6>
  else if(tim_baseHandle->Instance==TIM15)
 8004354:	687b      	ldr	r3, [r7, #4]
 8004356:	681b      	ldr	r3, [r3, #0]
 8004358:	4a0f      	ldr	r2, [pc, #60]	; (8004398 <HAL_TIM_Base_MspInit+0x114>)
 800435a:	4293      	cmp	r3, r2
 800435c:	d10d      	bne.n	800437a <HAL_TIM_Base_MspInit+0xf6>
    __HAL_RCC_TIM15_CLK_ENABLE();
 800435e:	4b0a      	ldr	r3, [pc, #40]	; (8004388 <HAL_TIM_Base_MspInit+0x104>)
 8004360:	699a      	ldr	r2, [r3, #24]
 8004362:	4b09      	ldr	r3, [pc, #36]	; (8004388 <HAL_TIM_Base_MspInit+0x104>)
 8004364:	2180      	movs	r1, #128	; 0x80
 8004366:	0249      	lsls	r1, r1, #9
 8004368:	430a      	orrs	r2, r1
 800436a:	619a      	str	r2, [r3, #24]
 800436c:	4b06      	ldr	r3, [pc, #24]	; (8004388 <HAL_TIM_Base_MspInit+0x104>)
 800436e:	699a      	ldr	r2, [r3, #24]
 8004370:	2380      	movs	r3, #128	; 0x80
 8004372:	025b      	lsls	r3, r3, #9
 8004374:	4013      	ands	r3, r2
 8004376:	60fb      	str	r3, [r7, #12]
 8004378:	68fb      	ldr	r3, [r7, #12]
}
 800437a:	46c0      	nop			; (mov r8, r8)
 800437c:	46bd      	mov	sp, r7
 800437e:	b008      	add	sp, #32
 8004380:	bd80      	pop	{r7, pc}
 8004382:	46c0      	nop			; (mov r8, r8)
 8004384:	40012c00 	.word	0x40012c00
 8004388:	40021000 	.word	0x40021000
 800438c:	40000400 	.word	0x40000400
 8004390:	40001000 	.word	0x40001000
 8004394:	40002000 	.word	0x40002000
 8004398:	40014000 	.word	0x40014000

0800439c <HAL_TIM_MspPostInit>:
void HAL_TIM_MspPostInit(TIM_HandleTypeDef* timHandle)
{
 800439c:	b580      	push	{r7, lr}
 800439e:	b088      	sub	sp, #32
 80043a0:	af00      	add	r7, sp, #0
 80043a2:	6078      	str	r0, [r7, #4]

  GPIO_InitTypeDef GPIO_InitStruct = {0};
 80043a4:	230c      	movs	r3, #12
 80043a6:	18fb      	adds	r3, r7, r3
 80043a8:	0018      	movs	r0, r3
 80043aa:	2314      	movs	r3, #20
 80043ac:	001a      	movs	r2, r3
 80043ae:	2100      	movs	r1, #0
 80043b0:	f004 f846 	bl	8008440 <memset>
  if(timHandle->Instance==TIM1)
 80043b4:	687b      	ldr	r3, [r7, #4]
 80043b6:	681b      	ldr	r3, [r3, #0]
 80043b8:	4a16      	ldr	r2, [pc, #88]	; (8004414 <HAL_TIM_MspPostInit+0x78>)
 80043ba:	4293      	cmp	r3, r2
 80043bc:	d125      	bne.n	800440a <HAL_TIM_MspPostInit+0x6e>
  {
  /* USER CODE BEGIN TIM1_MspPostInit 0 */

  /* USER CODE END TIM1_MspPostInit 0 */
  
    __HAL_RCC_GPIOA_CLK_ENABLE();
 80043be:	4b16      	ldr	r3, [pc, #88]	; (8004418 <HAL_TIM_MspPostInit+0x7c>)
 80043c0:	695a      	ldr	r2, [r3, #20]
 80043c2:	4b15      	ldr	r3, [pc, #84]	; (8004418 <HAL_TIM_MspPostInit+0x7c>)
 80043c4:	2180      	movs	r1, #128	; 0x80
 80043c6:	0289      	lsls	r1, r1, #10
 80043c8:	430a      	orrs	r2, r1
 80043ca:	615a      	str	r2, [r3, #20]
 80043cc:	4b12      	ldr	r3, [pc, #72]	; (8004418 <HAL_TIM_MspPostInit+0x7c>)
 80043ce:	695a      	ldr	r2, [r3, #20]
 80043d0:	2380      	movs	r3, #128	; 0x80
 80043d2:	029b      	lsls	r3, r3, #10
 80043d4:	4013      	ands	r3, r2
 80043d6:	60bb      	str	r3, [r7, #8]
 80043d8:	68bb      	ldr	r3, [r7, #8]
    PA8     ------> TIM1_CH1
    PA9     ------> TIM1_CH2
    PA10     ------> TIM1_CH3
    PA11     ------> TIM1_CH4 
    */
    GPIO_InitStruct.Pin = LEDR_Pin|LEDG_Pin|LEDB_Pin|LEDW_Pin;
 80043da:	210c      	movs	r1, #12
 80043dc:	187b      	adds	r3, r7, r1
 80043de:	22f0      	movs	r2, #240	; 0xf0
 80043e0:	0112      	lsls	r2, r2, #4
 80043e2:	601a      	str	r2, [r3, #0]
    GPIO_InitStruct.Mode = GPIO_MODE_AF_PP;
 80043e4:	187b      	adds	r3, r7, r1
 80043e6:	2202      	movs	r2, #2
 80043e8:	605a      	str	r2, [r3, #4]
    GPIO_InitStruct.Pull = GPIO_NOPULL;
 80043ea:	187b      	adds	r3, r7, r1
 80043ec:	2200      	movs	r2, #0
 80043ee:	609a      	str	r2, [r3, #8]
    GPIO_InitStruct.Speed = GPIO_SPEED_FREQ_LOW;
 80043f0:	187b      	adds	r3, r7, r1
 80043f2:	2200      	movs	r2, #0
 80043f4:	60da      	str	r2, [r3, #12]
    GPIO_InitStruct.Alternate = GPIO_AF2_TIM1;
 80043f6:	187b      	adds	r3, r7, r1
 80043f8:	2202      	movs	r2, #2
 80043fa:	611a      	str	r2, [r3, #16]
    HAL_GPIO_Init(GPIOA, &GPIO_InitStruct);
 80043fc:	187a      	adds	r2, r7, r1
 80043fe:	2390      	movs	r3, #144	; 0x90
 8004400:	05db      	lsls	r3, r3, #23
 8004402:	0011      	movs	r1, r2
 8004404:	0018      	movs	r0, r3
 8004406:	f000 fd3d 	bl	8004e84 <HAL_GPIO_Init>
  /* USER CODE BEGIN TIM1_MspPostInit 1 */

  /* USER CODE END TIM1_MspPostInit 1 */
  }

}
 800440a:	46c0      	nop			; (mov r8, r8)
 800440c:	46bd      	mov	sp, r7
 800440e:	b008      	add	sp, #32
 8004410:	bd80      	pop	{r7, pc}
 8004412:	46c0      	nop			; (mov r8, r8)
 8004414:	40012c00 	.word	0x40012c00
 8004418:	40021000 	.word	0x40021000

0800441c <MX_USART1_UART_Init>:
UART_HandleTypeDef huart1;

/* USART1 init function */

void MX_USART1_UART_Init(void)
{
 800441c:	b580      	push	{r7, lr}
 800441e:	af00      	add	r7, sp, #0

  huart1.Instance = USART1;
 8004420:	4b14      	ldr	r3, [pc, #80]	; (8004474 <MX_USART1_UART_Init+0x58>)
 8004422:	4a15      	ldr	r2, [pc, #84]	; (8004478 <MX_USART1_UART_Init+0x5c>)
 8004424:	601a      	str	r2, [r3, #0]
  huart1.Init.BaudRate = 38400;
 8004426:	4b13      	ldr	r3, [pc, #76]	; (8004474 <MX_USART1_UART_Init+0x58>)
 8004428:	2296      	movs	r2, #150	; 0x96
 800442a:	0212      	lsls	r2, r2, #8
 800442c:	605a      	str	r2, [r3, #4]
  huart1.Init.WordLength = UART_WORDLENGTH_8B;
 800442e:	4b11      	ldr	r3, [pc, #68]	; (8004474 <MX_USART1_UART_Init+0x58>)
 8004430:	2200      	movs	r2, #0
 8004432:	609a      	str	r2, [r3, #8]
  huart1.Init.StopBits = UART_STOPBITS_1;
 8004434:	4b0f      	ldr	r3, [pc, #60]	; (8004474 <MX_USART1_UART_Init+0x58>)
 8004436:	2200      	movs	r2, #0
 8004438:	60da      	str	r2, [r3, #12]
  huart1.Init.Parity = UART_PARITY_NONE;
 800443a:	4b0e      	ldr	r3, [pc, #56]	; (8004474 <MX_USART1_UART_Init+0x58>)
 800443c:	2200      	movs	r2, #0
 800443e:	611a      	str	r2, [r3, #16]
  huart1.Init.Mode = UART_MODE_TX_RX;
 8004440:	4b0c      	ldr	r3, [pc, #48]	; (8004474 <MX_USART1_UART_Init+0x58>)
 8004442:	220c      	movs	r2, #12
 8004444:	615a      	str	r2, [r3, #20]
  huart1.Init.HwFlowCtl = UART_HWCONTROL_NONE;
 8004446:	4b0b      	ldr	r3, [pc, #44]	; (8004474 <MX_USART1_UART_Init+0x58>)
 8004448:	2200      	movs	r2, #0
 800444a:	619a      	str	r2, [r3, #24]
  huart1.Init.OverSampling = UART_OVERSAMPLING_16;
 800444c:	4b09      	ldr	r3, [pc, #36]	; (8004474 <MX_USART1_UART_Init+0x58>)
 800444e:	2200      	movs	r2, #0
 8004450:	61da      	str	r2, [r3, #28]
  huart1.Init.OneBitSampling = UART_ONE_BIT_SAMPLE_DISABLE;
 8004452:	4b08      	ldr	r3, [pc, #32]	; (8004474 <MX_USART1_UART_Init+0x58>)
 8004454:	2200      	movs	r2, #0
 8004456:	621a      	str	r2, [r3, #32]
  huart1.AdvancedInit.AdvFeatureInit = UART_ADVFEATURE_NO_INIT;
 8004458:	4b06      	ldr	r3, [pc, #24]	; (8004474 <MX_USART1_UART_Init+0x58>)
 800445a:	2200      	movs	r2, #0
 800445c:	625a      	str	r2, [r3, #36]	; 0x24
  if (HAL_UART_Init(&huart1) != HAL_OK)
 800445e:	4b05      	ldr	r3, [pc, #20]	; (8004474 <MX_USART1_UART_Init+0x58>)
 8004460:	0018      	movs	r0, r3
 8004462:	f003 fc5b 	bl	8007d1c <HAL_UART_Init>
 8004466:	1e03      	subs	r3, r0, #0
 8004468:	d001      	beq.n	800446e <MX_USART1_UART_Init+0x52>
  {
    Error_Handler();
 800446a:	f7fd fcab 	bl	8001dc4 <Error_Handler>
  }

}
 800446e:	46c0      	nop			; (mov r8, r8)
 8004470:	46bd      	mov	sp, r7
 8004472:	bd80      	pop	{r7, pc}
 8004474:	2000063c 	.word	0x2000063c
 8004478:	40013800 	.word	0x40013800

0800447c <HAL_UART_MspInit>:

void HAL_UART_MspInit(UART_HandleTypeDef* uartHandle)
{
 800447c:	b580      	push	{r7, lr}
 800447e:	b08a      	sub	sp, #40	; 0x28
 8004480:	af00      	add	r7, sp, #0
 8004482:	6078      	str	r0, [r7, #4]

  GPIO_InitTypeDef GPIO_InitStruct = {0};
 8004484:	2314      	movs	r3, #20
 8004486:	18fb      	adds	r3, r7, r3
 8004488:	0018      	movs	r0, r3
 800448a:	2314      	movs	r3, #20
 800448c:	001a      	movs	r2, r3
 800448e:	2100      	movs	r1, #0
 8004490:	f003 ffd6 	bl	8008440 <memset>
  if(uartHandle->Instance==USART1)
 8004494:	687b      	ldr	r3, [r7, #4]
 8004496:	681b      	ldr	r3, [r3, #0]
 8004498:	4a1c      	ldr	r2, [pc, #112]	; (800450c <HAL_UART_MspInit+0x90>)
 800449a:	4293      	cmp	r3, r2
 800449c:	d131      	bne.n	8004502 <HAL_UART_MspInit+0x86>
  {
  /* USER CODE BEGIN USART1_MspInit 0 */

  /* USER CODE END USART1_MspInit 0 */
    /* USART1 clock enable */
    __HAL_RCC_USART1_CLK_ENABLE();
 800449e:	4b1c      	ldr	r3, [pc, #112]	; (8004510 <HAL_UART_MspInit+0x94>)
 80044a0:	699a      	ldr	r2, [r3, #24]
 80044a2:	4b1b      	ldr	r3, [pc, #108]	; (8004510 <HAL_UART_MspInit+0x94>)
 80044a4:	2180      	movs	r1, #128	; 0x80
 80044a6:	01c9      	lsls	r1, r1, #7
 80044a8:	430a      	orrs	r2, r1
 80044aa:	619a      	str	r2, [r3, #24]
 80044ac:	4b18      	ldr	r3, [pc, #96]	; (8004510 <HAL_UART_MspInit+0x94>)
 80044ae:	699a      	ldr	r2, [r3, #24]
 80044b0:	2380      	movs	r3, #128	; 0x80
 80044b2:	01db      	lsls	r3, r3, #7
 80044b4:	4013      	ands	r3, r2
 80044b6:	613b      	str	r3, [r7, #16]
 80044b8:	693b      	ldr	r3, [r7, #16]
  
    __HAL_RCC_GPIOB_CLK_ENABLE();
 80044ba:	4b15      	ldr	r3, [pc, #84]	; (8004510 <HAL_UART_MspInit+0x94>)
 80044bc:	695a      	ldr	r2, [r3, #20]
 80044be:	4b14      	ldr	r3, [pc, #80]	; (8004510 <HAL_UART_MspInit+0x94>)
 80044c0:	2180      	movs	r1, #128	; 0x80
 80044c2:	02c9      	lsls	r1, r1, #11
 80044c4:	430a      	orrs	r2, r1
 80044c6:	615a      	str	r2, [r3, #20]
 80044c8:	4b11      	ldr	r3, [pc, #68]	; (8004510 <HAL_UART_MspInit+0x94>)
 80044ca:	695a      	ldr	r2, [r3, #20]
 80044cc:	2380      	movs	r3, #128	; 0x80
 80044ce:	02db      	lsls	r3, r3, #11
 80044d0:	4013      	ands	r3, r2
 80044d2:	60fb      	str	r3, [r7, #12]
 80044d4:	68fb      	ldr	r3, [r7, #12]
    /**USART1 GPIO Configuration    
    PB6     ------> USART1_TX
    PB7     ------> USART1_RX 
    */
    GPIO_InitStruct.Pin = GPIO_PIN_6|GPIO_PIN_7;
 80044d6:	2114      	movs	r1, #20
 80044d8:	187b      	adds	r3, r7, r1
 80044da:	22c0      	movs	r2, #192	; 0xc0
 80044dc:	601a      	str	r2, [r3, #0]
    GPIO_InitStruct.Mode = GPIO_MODE_AF_PP;
 80044de:	187b      	adds	r3, r7, r1
 80044e0:	2202      	movs	r2, #2
 80044e2:	605a      	str	r2, [r3, #4]
    GPIO_InitStruct.Pull = GPIO_NOPULL;
 80044e4:	187b      	adds	r3, r7, r1
 80044e6:	2200      	movs	r2, #0
 80044e8:	609a      	str	r2, [r3, #8]
    GPIO_InitStruct.Speed = GPIO_SPEED_FREQ_HIGH;
 80044ea:	187b      	adds	r3, r7, r1
 80044ec:	2203      	movs	r2, #3
 80044ee:	60da      	str	r2, [r3, #12]
    GPIO_InitStruct.Alternate = GPIO_AF0_USART1;
 80044f0:	187b      	adds	r3, r7, r1
 80044f2:	2200      	movs	r2, #0
 80044f4:	611a      	str	r2, [r3, #16]
    HAL_GPIO_Init(GPIOB, &GPIO_InitStruct);
 80044f6:	187b      	adds	r3, r7, r1
 80044f8:	4a06      	ldr	r2, [pc, #24]	; (8004514 <HAL_UART_MspInit+0x98>)
 80044fa:	0019      	movs	r1, r3
 80044fc:	0010      	movs	r0, r2
 80044fe:	f000 fcc1 	bl	8004e84 <HAL_GPIO_Init>

  /* USER CODE BEGIN USART1_MspInit 1 */

  /* USER CODE END USART1_MspInit 1 */
  }
}
 8004502:	46c0      	nop			; (mov r8, r8)
 8004504:	46bd      	mov	sp, r7
 8004506:	b00a      	add	sp, #40	; 0x28
 8004508:	bd80      	pop	{r7, pc}
 800450a:	46c0      	nop			; (mov r8, r8)
 800450c:	40013800 	.word	0x40013800
 8004510:	40021000 	.word	0x40021000
 8004514:	48000400 	.word	0x48000400

08004518 <SystemInit>:
  * @brief  Setup the microcontroller system.
  * @param  None
  * @retval None
  */
void SystemInit(void)
{
 8004518:	b580      	push	{r7, lr}
 800451a:	af00      	add	r7, sp, #0
                         before branch to main program. This call is made inside
                         the "startup_stm32f0xx.s" file.
                         User can setups the default system clock (System clock source, PLL Multiplier
                         and Divider factors, AHB/APBx prescalers and Flash settings).
   */
}
 800451c:	46c0      	nop			; (mov r8, r8)
 800451e:	46bd      	mov	sp, r7
 8004520:	bd80      	pop	{r7, pc}
	...

08004524 <HAL_Init>:
  *       In the default implementation,Systick is used as source of time base.
  *       The tick variable is incremented each 1ms in its ISR.
  * @retval HAL status
  */
HAL_StatusTypeDef HAL_Init(void)
{
 8004524:	b580      	push	{r7, lr}
 8004526:	af00      	add	r7, sp, #0
  /* Configure Flash prefetch */ 
#if (PREFETCH_ENABLE != 0)
  __HAL_FLASH_PREFETCH_BUFFER_ENABLE();
 8004528:	4b07      	ldr	r3, [pc, #28]	; (8004548 <HAL_Init+0x24>)
 800452a:	681a      	ldr	r2, [r3, #0]
 800452c:	4b06      	ldr	r3, [pc, #24]	; (8004548 <HAL_Init+0x24>)
 800452e:	2110      	movs	r1, #16
 8004530:	430a      	orrs	r2, r1
 8004532:	601a      	str	r2, [r3, #0]
#endif /* PREFETCH_ENABLE */

  /* Use systick as time base source and configure 1ms tick (default clock after Reset is HSI) */

  HAL_InitTick(TICK_INT_PRIORITY);
 8004534:	2000      	movs	r0, #0
 8004536:	f000 f809 	bl	800454c <HAL_InitTick>

  /* Init the low level hardware */
  HAL_MspInit();
 800453a:	f7ff fc51 	bl	8003de0 <HAL_MspInit>

  /* Return function status */
  return HAL_OK;
 800453e:	2300      	movs	r3, #0
}
 8004540:	0018      	movs	r0, r3
 8004542:	46bd      	mov	sp, r7
 8004544:	bd80      	pop	{r7, pc}
 8004546:	46c0      	nop			; (mov r8, r8)
 8004548:	40022000 	.word	0x40022000

0800454c <HAL_InitTick>:
  *       implementation  in user file.
  * @param TickPriority Tick interrupt priority.
  * @retval HAL status
  */
__weak HAL_StatusTypeDef HAL_InitTick(uint32_t TickPriority)
{
 800454c:	b590      	push	{r4, r7, lr}
 800454e:	b083      	sub	sp, #12
 8004550:	af00      	add	r7, sp, #0
 8004552:	6078      	str	r0, [r7, #4]
  /*Configure the SysTick to have interrupt in 1ms time basis*/
  if (HAL_SYSTICK_Config(SystemCoreClock / (1000U / uwTickFreq)) > 0U)
 8004554:	4b14      	ldr	r3, [pc, #80]	; (80045a8 <HAL_InitTick+0x5c>)
 8004556:	681c      	ldr	r4, [r3, #0]
 8004558:	4b14      	ldr	r3, [pc, #80]	; (80045ac <HAL_InitTick+0x60>)
 800455a:	781b      	ldrb	r3, [r3, #0]
 800455c:	0019      	movs	r1, r3
 800455e:	23fa      	movs	r3, #250	; 0xfa
 8004560:	0098      	lsls	r0, r3, #2
 8004562:	f7fb fdd1 	bl	8000108 <__udivsi3>
 8004566:	0003      	movs	r3, r0
 8004568:	0019      	movs	r1, r3
 800456a:	0020      	movs	r0, r4
 800456c:	f7fb fdcc 	bl	8000108 <__udivsi3>
 8004570:	0003      	movs	r3, r0
 8004572:	0018      	movs	r0, r3
 8004574:	f000 fc33 	bl	8004dde <HAL_SYSTICK_Config>
 8004578:	1e03      	subs	r3, r0, #0
 800457a:	d001      	beq.n	8004580 <HAL_InitTick+0x34>
  {
    return HAL_ERROR;
 800457c:	2301      	movs	r3, #1
 800457e:	e00f      	b.n	80045a0 <HAL_InitTick+0x54>
  }

  /* Configure the SysTick IRQ priority */
  if (TickPriority < (1UL << __NVIC_PRIO_BITS))
 8004580:	687b      	ldr	r3, [r7, #4]
 8004582:	2b03      	cmp	r3, #3
 8004584:	d80b      	bhi.n	800459e <HAL_InitTick+0x52>
  {
    HAL_NVIC_SetPriority(SysTick_IRQn, TickPriority, 0U);
 8004586:	6879      	ldr	r1, [r7, #4]
 8004588:	2301      	movs	r3, #1
 800458a:	425b      	negs	r3, r3
 800458c:	2200      	movs	r2, #0
 800458e:	0018      	movs	r0, r3
 8004590:	f000 fc00 	bl	8004d94 <HAL_NVIC_SetPriority>
    uwTickPrio = TickPriority;
 8004594:	4b06      	ldr	r3, [pc, #24]	; (80045b0 <HAL_InitTick+0x64>)
 8004596:	687a      	ldr	r2, [r7, #4]
 8004598:	601a      	str	r2, [r3, #0]
  {
    return HAL_ERROR;
  }

   /* Return function status */
  return HAL_OK;
 800459a:	2300      	movs	r3, #0
 800459c:	e000      	b.n	80045a0 <HAL_InitTick+0x54>
    return HAL_ERROR;
 800459e:	2301      	movs	r3, #1
}
 80045a0:	0018      	movs	r0, r3
 80045a2:	46bd      	mov	sp, r7
 80045a4:	b003      	add	sp, #12
 80045a6:	bd90      	pop	{r4, r7, pc}
 80045a8:	20000014 	.word	0x20000014
 80045ac:	2000001c 	.word	0x2000001c
 80045b0:	20000018 	.word	0x20000018

080045b4 <HAL_IncTick>:
  * @note This function is declared as __weak to be overwritten in case of other 
  *       implementations in user file.
  * @retval None
  */
__weak void HAL_IncTick(void)
{
 80045b4:	b580      	push	{r7, lr}
 80045b6:	af00      	add	r7, sp, #0
  uwTick += uwTickFreq;
 80045b8:	4b05      	ldr	r3, [pc, #20]	; (80045d0 <HAL_IncTick+0x1c>)
 80045ba:	781b      	ldrb	r3, [r3, #0]
 80045bc:	001a      	movs	r2, r3
 80045be:	4b05      	ldr	r3, [pc, #20]	; (80045d4 <HAL_IncTick+0x20>)
 80045c0:	681b      	ldr	r3, [r3, #0]
 80045c2:	18d2      	adds	r2, r2, r3
 80045c4:	4b03      	ldr	r3, [pc, #12]	; (80045d4 <HAL_IncTick+0x20>)
 80045c6:	601a      	str	r2, [r3, #0]
}
 80045c8:	46c0      	nop			; (mov r8, r8)
 80045ca:	46bd      	mov	sp, r7
 80045cc:	bd80      	pop	{r7, pc}
 80045ce:	46c0      	nop			; (mov r8, r8)
 80045d0:	2000001c 	.word	0x2000001c
 80045d4:	200006bc 	.word	0x200006bc

080045d8 <HAL_GetTick>:
  * @note   This function is declared as __weak  to be overwritten  in case of other 
  *       implementations in user file.
  * @retval tick value
  */
__weak uint32_t HAL_GetTick(void)
{
 80045d8:	b580      	push	{r7, lr}
 80045da:	af00      	add	r7, sp, #0
  return uwTick;
 80045dc:	4b02      	ldr	r3, [pc, #8]	; (80045e8 <HAL_GetTick+0x10>)
 80045de:	681b      	ldr	r3, [r3, #0]
}
 80045e0:	0018      	movs	r0, r3
 80045e2:	46bd      	mov	sp, r7
 80045e4:	bd80      	pop	{r7, pc}
 80045e6:	46c0      	nop			; (mov r8, r8)
 80045e8:	200006bc 	.word	0x200006bc

080045ec <HAL_Delay>:
  *       implementations in user file.
  * @param Delay specifies the delay time length, in milliseconds.
  * @retval None
  */
__weak void HAL_Delay(uint32_t Delay)
{
 80045ec:	b580      	push	{r7, lr}
 80045ee:	b084      	sub	sp, #16
 80045f0:	af00      	add	r7, sp, #0
 80045f2:	6078      	str	r0, [r7, #4]
  uint32_t tickstart = HAL_GetTick();
 80045f4:	f7ff fff0 	bl	80045d8 <HAL_GetTick>
 80045f8:	0003      	movs	r3, r0
 80045fa:	60bb      	str	r3, [r7, #8]
  uint32_t wait = Delay;
 80045fc:	687b      	ldr	r3, [r7, #4]
 80045fe:	60fb      	str	r3, [r7, #12]
  
  /* Add a freq to guarantee minimum wait */
  if (wait < HAL_MAX_DELAY)
 8004600:	68fb      	ldr	r3, [r7, #12]
 8004602:	3301      	adds	r3, #1
 8004604:	d005      	beq.n	8004612 <HAL_Delay+0x26>
  {
    wait += (uint32_t)(uwTickFreq);
 8004606:	4b09      	ldr	r3, [pc, #36]	; (800462c <HAL_Delay+0x40>)
 8004608:	781b      	ldrb	r3, [r3, #0]
 800460a:	001a      	movs	r2, r3
 800460c:	68fb      	ldr	r3, [r7, #12]
 800460e:	189b      	adds	r3, r3, r2
 8004610:	60fb      	str	r3, [r7, #12]
  }
  
  while((HAL_GetTick() - tickstart) < wait)
 8004612:	46c0      	nop			; (mov r8, r8)
 8004614:	f7ff ffe0 	bl	80045d8 <HAL_GetTick>
 8004618:	0002      	movs	r2, r0
 800461a:	68bb      	ldr	r3, [r7, #8]
 800461c:	1ad3      	subs	r3, r2, r3
 800461e:	68fa      	ldr	r2, [r7, #12]
 8004620:	429a      	cmp	r2, r3
 8004622:	d8f7      	bhi.n	8004614 <HAL_Delay+0x28>
  {
  }
}
 8004624:	46c0      	nop			; (mov r8, r8)
 8004626:	46bd      	mov	sp, r7
 8004628:	b004      	add	sp, #16
 800462a:	bd80      	pop	{r7, pc}
 800462c:	2000001c 	.word	0x2000001c

08004630 <HAL_ADC_Init>:
  *         of structure "ADC_InitTypeDef".
  * @param  hadc ADC handle
  * @retval HAL status
  */
HAL_StatusTypeDef HAL_ADC_Init(ADC_HandleTypeDef* hadc)
{
 8004630:	b580      	push	{r7, lr}
 8004632:	b084      	sub	sp, #16
 8004634:	af00      	add	r7, sp, #0
 8004636:	6078      	str	r0, [r7, #4]
  HAL_StatusTypeDef tmp_hal_status = HAL_OK;
 8004638:	230f      	movs	r3, #15
 800463a:	18fb      	adds	r3, r7, r3
 800463c:	2200      	movs	r2, #0
 800463e:	701a      	strb	r2, [r3, #0]
  uint32_t tmpCFGR1 = 0U;
 8004640:	2300      	movs	r3, #0
 8004642:	60bb      	str	r3, [r7, #8]

  /* Check ADC handle */
  if(hadc == NULL)
 8004644:	687b      	ldr	r3, [r7, #4]
 8004646:	2b00      	cmp	r3, #0
 8004648:	d101      	bne.n	800464e <HAL_ADC_Init+0x1e>
  {
    return HAL_ERROR;
 800464a:	2301      	movs	r3, #1
 800464c:	e125      	b.n	800489a <HAL_ADC_Init+0x26a>
  /* Refer to header of this file for more details on clock enabling procedure*/
  
  /* Actions performed only if ADC is coming from state reset:                */
  /* - Initialization of ADC MSP                                              */
  /* - ADC voltage regulator enable                                           */
  if (hadc->State == HAL_ADC_STATE_RESET)
 800464e:	687b      	ldr	r3, [r7, #4]
 8004650:	6b9b      	ldr	r3, [r3, #56]	; 0x38
 8004652:	2b00      	cmp	r3, #0
 8004654:	d10a      	bne.n	800466c <HAL_ADC_Init+0x3c>
  {
    /* Initialize ADC error code */
    ADC_CLEAR_ERRORCODE(hadc);
 8004656:	687b      	ldr	r3, [r7, #4]
 8004658:	2200      	movs	r2, #0
 800465a:	63da      	str	r2, [r3, #60]	; 0x3c
    
    /* Allocate lock resource and initialize it */
    hadc->Lock = HAL_UNLOCKED;
 800465c:	687b      	ldr	r3, [r7, #4]
 800465e:	2234      	movs	r2, #52	; 0x34
 8004660:	2100      	movs	r1, #0
 8004662:	5499      	strb	r1, [r3, r2]
    
    /* Init the low level hardware */
    hadc->MspInitCallback(hadc);
#else
    /* Init the low level hardware */
    HAL_ADC_MspInit(hadc);
 8004664:	687b      	ldr	r3, [r7, #4]
 8004666:	0018      	movs	r0, r3
 8004668:	f7fb ff58 	bl	800051c <HAL_ADC_MspInit>
  /* Configuration of ADC parameters if previous preliminary actions are      */ 
  /* correctly completed.                                                     */
  /* and if there is no conversion on going on regular group (ADC can be      */ 
  /* enabled anyway, in case of call of this function to update a parameter   */
  /* on the fly).                                                             */
  if (HAL_IS_BIT_CLR(hadc->State, HAL_ADC_STATE_ERROR_INTERNAL) &&
 800466c:	687b      	ldr	r3, [r7, #4]
 800466e:	6b9b      	ldr	r3, [r3, #56]	; 0x38
 8004670:	2210      	movs	r2, #16
 8004672:	4013      	ands	r3, r2
 8004674:	d000      	beq.n	8004678 <HAL_ADC_Init+0x48>
 8004676:	e103      	b.n	8004880 <HAL_ADC_Init+0x250>
 8004678:	230f      	movs	r3, #15
 800467a:	18fb      	adds	r3, r7, r3
 800467c:	781b      	ldrb	r3, [r3, #0]
 800467e:	2b00      	cmp	r3, #0
 8004680:	d000      	beq.n	8004684 <HAL_ADC_Init+0x54>
 8004682:	e0fd      	b.n	8004880 <HAL_ADC_Init+0x250>
      (tmp_hal_status == HAL_OK)                                &&
      (ADC_IS_CONVERSION_ONGOING_REGULAR(hadc) == RESET)          )
 8004684:	687b      	ldr	r3, [r7, #4]
 8004686:	681b      	ldr	r3, [r3, #0]
 8004688:	689b      	ldr	r3, [r3, #8]
 800468a:	2204      	movs	r2, #4
 800468c:	4013      	ands	r3, r2
      (tmp_hal_status == HAL_OK)                                &&
 800468e:	d000      	beq.n	8004692 <HAL_ADC_Init+0x62>
 8004690:	e0f6      	b.n	8004880 <HAL_ADC_Init+0x250>
  {
    /* Set ADC state */
    ADC_STATE_CLR_SET(hadc->State,
 8004692:	687b      	ldr	r3, [r7, #4]
 8004694:	6b9b      	ldr	r3, [r3, #56]	; 0x38
 8004696:	4a83      	ldr	r2, [pc, #524]	; (80048a4 <HAL_ADC_Init+0x274>)
 8004698:	4013      	ands	r3, r2
 800469a:	2202      	movs	r2, #2
 800469c:	431a      	orrs	r2, r3
 800469e:	687b      	ldr	r3, [r7, #4]
 80046a0:	639a      	str	r2, [r3, #56]	; 0x38
    /* Parameters update conditioned to ADC state:                            */
    /* Parameters that can be updated only when ADC is disabled:              */
    /*  - ADC clock mode                                                      */
    /*  - ADC clock prescaler                                                 */
    /*  - ADC resolution                                                      */
    if (ADC_IS_ENABLE(hadc) == RESET)
 80046a2:	687b      	ldr	r3, [r7, #4]
 80046a4:	681b      	ldr	r3, [r3, #0]
 80046a6:	689b      	ldr	r3, [r3, #8]
 80046a8:	2203      	movs	r2, #3
 80046aa:	4013      	ands	r3, r2
 80046ac:	2b01      	cmp	r3, #1
 80046ae:	d112      	bne.n	80046d6 <HAL_ADC_Init+0xa6>
 80046b0:	687b      	ldr	r3, [r7, #4]
 80046b2:	681b      	ldr	r3, [r3, #0]
 80046b4:	681b      	ldr	r3, [r3, #0]
 80046b6:	2201      	movs	r2, #1
 80046b8:	4013      	ands	r3, r2
 80046ba:	2b01      	cmp	r3, #1
 80046bc:	d009      	beq.n	80046d2 <HAL_ADC_Init+0xa2>
 80046be:	687b      	ldr	r3, [r7, #4]
 80046c0:	681b      	ldr	r3, [r3, #0]
 80046c2:	68da      	ldr	r2, [r3, #12]
 80046c4:	2380      	movs	r3, #128	; 0x80
 80046c6:	021b      	lsls	r3, r3, #8
 80046c8:	401a      	ands	r2, r3
 80046ca:	2380      	movs	r3, #128	; 0x80
 80046cc:	021b      	lsls	r3, r3, #8
 80046ce:	429a      	cmp	r2, r3
 80046d0:	d101      	bne.n	80046d6 <HAL_ADC_Init+0xa6>
 80046d2:	2301      	movs	r3, #1
 80046d4:	e000      	b.n	80046d8 <HAL_ADC_Init+0xa8>
 80046d6:	2300      	movs	r3, #0
 80046d8:	2b00      	cmp	r3, #0
 80046da:	d116      	bne.n	800470a <HAL_ADC_Init+0xda>
      /* parameters):                                                         */
      /*   - internal measurement paths: Vbat, temperature sensor, Vref       */
      /*     (set into HAL_ADC_ConfigChannel() )                              */
     
      /* Configuration of ADC resolution                                      */
      MODIFY_REG(hadc->Instance->CFGR1,
 80046dc:	687b      	ldr	r3, [r7, #4]
 80046de:	681b      	ldr	r3, [r3, #0]
 80046e0:	68db      	ldr	r3, [r3, #12]
 80046e2:	2218      	movs	r2, #24
 80046e4:	4393      	bics	r3, r2
 80046e6:	0019      	movs	r1, r3
 80046e8:	687b      	ldr	r3, [r7, #4]
 80046ea:	689a      	ldr	r2, [r3, #8]
 80046ec:	687b      	ldr	r3, [r7, #4]
 80046ee:	681b      	ldr	r3, [r3, #0]
 80046f0:	430a      	orrs	r2, r1
 80046f2:	60da      	str	r2, [r3, #12]
                 ADC_CFGR1_RES        ,
                 hadc->Init.Resolution );
      
      /* Configuration of ADC clock mode: clock source AHB or HSI with        */
      /* selectable prescaler                                                 */
      MODIFY_REG(hadc->Instance->CFGR2    ,
 80046f4:	687b      	ldr	r3, [r7, #4]
 80046f6:	681b      	ldr	r3, [r3, #0]
 80046f8:	691b      	ldr	r3, [r3, #16]
 80046fa:	009b      	lsls	r3, r3, #2
 80046fc:	0899      	lsrs	r1, r3, #2
 80046fe:	687b      	ldr	r3, [r7, #4]
 8004700:	685a      	ldr	r2, [r3, #4]
 8004702:	687b      	ldr	r3, [r7, #4]
 8004704:	681b      	ldr	r3, [r3, #0]
 8004706:	430a      	orrs	r2, r1
 8004708:	611a      	str	r2, [r3, #16]
    /*  - external trigger polarity                                           */
    /*  - data alignment                                                      */
    /*  - resolution                                                          */
    /*  - scan direction                                                      */
    /*  - DMA continuous request                                              */
    hadc->Instance->CFGR1 &= ~( ADC_CFGR1_DISCEN  |
 800470a:	687b      	ldr	r3, [r7, #4]
 800470c:	681b      	ldr	r3, [r3, #0]
 800470e:	68da      	ldr	r2, [r3, #12]
 8004710:	687b      	ldr	r3, [r7, #4]
 8004712:	681b      	ldr	r3, [r3, #0]
 8004714:	4964      	ldr	r1, [pc, #400]	; (80048a8 <HAL_ADC_Init+0x278>)
 8004716:	400a      	ands	r2, r1
 8004718:	60da      	str	r2, [r3, #12]
                                ADC_CFGR1_EXTEN   |
                                ADC_CFGR1_ALIGN   |
                                ADC_CFGR1_SCANDIR |
                                ADC_CFGR1_DMACFG   );

    tmpCFGR1 |= (ADC_CFGR1_AUTOWAIT((uint32_t)hadc->Init.LowPowerAutoWait)        |
 800471a:	687b      	ldr	r3, [r7, #4]
 800471c:	7e1b      	ldrb	r3, [r3, #24]
 800471e:	039a      	lsls	r2, r3, #14
                 ADC_CFGR1_AUTOOFF((uint32_t)hadc->Init.LowPowerAutoPowerOff)     |
 8004720:	687b      	ldr	r3, [r7, #4]
 8004722:	7e5b      	ldrb	r3, [r3, #25]
 8004724:	03db      	lsls	r3, r3, #15
    tmpCFGR1 |= (ADC_CFGR1_AUTOWAIT((uint32_t)hadc->Init.LowPowerAutoWait)        |
 8004726:	431a      	orrs	r2, r3
                 ADC_CFGR1_CONTINUOUS((uint32_t)hadc->Init.ContinuousConvMode)    |
 8004728:	687b      	ldr	r3, [r7, #4]
 800472a:	7e9b      	ldrb	r3, [r3, #26]
 800472c:	035b      	lsls	r3, r3, #13
                 ADC_CFGR1_AUTOOFF((uint32_t)hadc->Init.LowPowerAutoPowerOff)     |
 800472e:	431a      	orrs	r2, r3
                 ADC_CFGR1_OVERRUN(hadc->Init.Overrun)                            |
 8004730:	687b      	ldr	r3, [r7, #4]
 8004732:	6a9b      	ldr	r3, [r3, #40]	; 0x28
 8004734:	2b01      	cmp	r3, #1
 8004736:	d002      	beq.n	800473e <HAL_ADC_Init+0x10e>
 8004738:	2380      	movs	r3, #128	; 0x80
 800473a:	015b      	lsls	r3, r3, #5
 800473c:	e000      	b.n	8004740 <HAL_ADC_Init+0x110>
 800473e:	2300      	movs	r3, #0
                 ADC_CFGR1_CONTINUOUS((uint32_t)hadc->Init.ContinuousConvMode)    |
 8004740:	431a      	orrs	r2, r3
                 hadc->Init.DataAlign                                             |
 8004742:	687b      	ldr	r3, [r7, #4]
 8004744:	68db      	ldr	r3, [r3, #12]
                 ADC_CFGR1_OVERRUN(hadc->Init.Overrun)                            |
 8004746:	431a      	orrs	r2, r3
                 ADC_SCANDIR(hadc->Init.ScanConvMode)                             |
 8004748:	687b      	ldr	r3, [r7, #4]
 800474a:	691b      	ldr	r3, [r3, #16]
 800474c:	2b02      	cmp	r3, #2
 800474e:	d101      	bne.n	8004754 <HAL_ADC_Init+0x124>
 8004750:	2304      	movs	r3, #4
 8004752:	e000      	b.n	8004756 <HAL_ADC_Init+0x126>
 8004754:	2300      	movs	r3, #0
                 hadc->Init.DataAlign                                             |
 8004756:	431a      	orrs	r2, r3
                 ADC_CFGR1_DMACONTREQ((uint32_t)hadc->Init.DMAContinuousRequests)  );
 8004758:	687b      	ldr	r3, [r7, #4]
 800475a:	2124      	movs	r1, #36	; 0x24
 800475c:	5c5b      	ldrb	r3, [r3, r1]
 800475e:	005b      	lsls	r3, r3, #1
                 ADC_SCANDIR(hadc->Init.ScanConvMode)                             |
 8004760:	4313      	orrs	r3, r2
    tmpCFGR1 |= (ADC_CFGR1_AUTOWAIT((uint32_t)hadc->Init.LowPowerAutoWait)        |
 8004762:	68ba      	ldr	r2, [r7, #8]
 8004764:	4313      	orrs	r3, r2
 8004766:	60bb      	str	r3, [r7, #8]
    
    /* Enable discontinuous mode only if continuous mode is disabled */
    if (hadc->Init.DiscontinuousConvMode == ENABLE)
 8004768:	687b      	ldr	r3, [r7, #4]
 800476a:	7edb      	ldrb	r3, [r3, #27]
 800476c:	2b01      	cmp	r3, #1
 800476e:	d115      	bne.n	800479c <HAL_ADC_Init+0x16c>
    {
      if (hadc->Init.ContinuousConvMode == DISABLE)
 8004770:	687b      	ldr	r3, [r7, #4]
 8004772:	7e9b      	ldrb	r3, [r3, #26]
 8004774:	2b00      	cmp	r3, #0
 8004776:	d105      	bne.n	8004784 <HAL_ADC_Init+0x154>
      {
        /* Enable the selected ADC group regular discontinuous mode */
        tmpCFGR1 |= ADC_CFGR1_DISCEN;
 8004778:	68bb      	ldr	r3, [r7, #8]
 800477a:	2280      	movs	r2, #128	; 0x80
 800477c:	0252      	lsls	r2, r2, #9
 800477e:	4313      	orrs	r3, r2
 8004780:	60bb      	str	r3, [r7, #8]
 8004782:	e00b      	b.n	800479c <HAL_ADC_Init+0x16c>
        /* ADC regular group discontinuous was intended to be enabled,        */
        /* but ADC regular group modes continuous and sequencer discontinuous */
        /* cannot be enabled simultaneously.                                  */
        
        /* Update ADC state machine to error */
        SET_BIT(hadc->State, HAL_ADC_STATE_ERROR_CONFIG);
 8004784:	687b      	ldr	r3, [r7, #4]
 8004786:	6b9b      	ldr	r3, [r3, #56]	; 0x38
 8004788:	2220      	movs	r2, #32
 800478a:	431a      	orrs	r2, r3
 800478c:	687b      	ldr	r3, [r7, #4]
 800478e:	639a      	str	r2, [r3, #56]	; 0x38
        
        /* Set ADC error code to ADC IP internal error */
        SET_BIT(hadc->ErrorCode, HAL_ADC_ERROR_INTERNAL);
 8004790:	687b      	ldr	r3, [r7, #4]
 8004792:	6bdb      	ldr	r3, [r3, #60]	; 0x3c
 8004794:	2201      	movs	r2, #1
 8004796:	431a      	orrs	r2, r3
 8004798:	687b      	ldr	r3, [r7, #4]
 800479a:	63da      	str	r2, [r3, #60]	; 0x3c
    /* Enable external trigger if trigger selection is different of software  */
    /* start.                                                                 */
    /* Note: This configuration keeps the hardware feature of parameter       */
    /*       ExternalTrigConvEdge "trigger edge none" equivalent to           */
    /*       software start.                                                  */
    if (hadc->Init.ExternalTrigConv != ADC_SOFTWARE_START)
 800479c:	687b      	ldr	r3, [r7, #4]
 800479e:	69da      	ldr	r2, [r3, #28]
 80047a0:	23c2      	movs	r3, #194	; 0xc2
 80047a2:	33ff      	adds	r3, #255	; 0xff
 80047a4:	429a      	cmp	r2, r3
 80047a6:	d007      	beq.n	80047b8 <HAL_ADC_Init+0x188>
    {
      tmpCFGR1 |= ( hadc->Init.ExternalTrigConv    |
 80047a8:	687b      	ldr	r3, [r7, #4]
 80047aa:	69da      	ldr	r2, [r3, #28]
                    hadc->Init.ExternalTrigConvEdge );
 80047ac:	687b      	ldr	r3, [r7, #4]
 80047ae:	6a1b      	ldr	r3, [r3, #32]
      tmpCFGR1 |= ( hadc->Init.ExternalTrigConv    |
 80047b0:	4313      	orrs	r3, r2
 80047b2:	68ba      	ldr	r2, [r7, #8]
 80047b4:	4313      	orrs	r3, r2
 80047b6:	60bb      	str	r3, [r7, #8]
    }
    
    /* Update ADC configuration register with previous settings */
    hadc->Instance->CFGR1 |= tmpCFGR1;
 80047b8:	687b      	ldr	r3, [r7, #4]
 80047ba:	681b      	ldr	r3, [r3, #0]
 80047bc:	68d9      	ldr	r1, [r3, #12]
 80047be:	687b      	ldr	r3, [r7, #4]
 80047c0:	681b      	ldr	r3, [r3, #0]
 80047c2:	68ba      	ldr	r2, [r7, #8]
 80047c4:	430a      	orrs	r2, r1
 80047c6:	60da      	str	r2, [r3, #12]
    /* Management of parameters "SamplingTimeCommon" and "SamplingTime"       */
    /* (obsolete): sampling time set in this function if parameter            */
    /*  "SamplingTimeCommon" has been set to a valid sampling time.           */
    /* Otherwise, sampling time is set into ADC channel initialization        */
    /* structure with parameter "SamplingTime" (obsolete).                    */
    if (IS_ADC_SAMPLE_TIME(hadc->Init.SamplingTimeCommon))
 80047c8:	687b      	ldr	r3, [r7, #4]
 80047ca:	6ada      	ldr	r2, [r3, #44]	; 0x2c
 80047cc:	2380      	movs	r3, #128	; 0x80
 80047ce:	055b      	lsls	r3, r3, #21
 80047d0:	429a      	cmp	r2, r3
 80047d2:	d01b      	beq.n	800480c <HAL_ADC_Init+0x1dc>
 80047d4:	687b      	ldr	r3, [r7, #4]
 80047d6:	6adb      	ldr	r3, [r3, #44]	; 0x2c
 80047d8:	2b01      	cmp	r3, #1
 80047da:	d017      	beq.n	800480c <HAL_ADC_Init+0x1dc>
 80047dc:	687b      	ldr	r3, [r7, #4]
 80047de:	6adb      	ldr	r3, [r3, #44]	; 0x2c
 80047e0:	2b02      	cmp	r3, #2
 80047e2:	d013      	beq.n	800480c <HAL_ADC_Init+0x1dc>
 80047e4:	687b      	ldr	r3, [r7, #4]
 80047e6:	6adb      	ldr	r3, [r3, #44]	; 0x2c
 80047e8:	2b03      	cmp	r3, #3
 80047ea:	d00f      	beq.n	800480c <HAL_ADC_Init+0x1dc>
 80047ec:	687b      	ldr	r3, [r7, #4]
 80047ee:	6adb      	ldr	r3, [r3, #44]	; 0x2c
 80047f0:	2b04      	cmp	r3, #4
 80047f2:	d00b      	beq.n	800480c <HAL_ADC_Init+0x1dc>
 80047f4:	687b      	ldr	r3, [r7, #4]
 80047f6:	6adb      	ldr	r3, [r3, #44]	; 0x2c
 80047f8:	2b05      	cmp	r3, #5
 80047fa:	d007      	beq.n	800480c <HAL_ADC_Init+0x1dc>
 80047fc:	687b      	ldr	r3, [r7, #4]
 80047fe:	6adb      	ldr	r3, [r3, #44]	; 0x2c
 8004800:	2b06      	cmp	r3, #6
 8004802:	d003      	beq.n	800480c <HAL_ADC_Init+0x1dc>
 8004804:	687b      	ldr	r3, [r7, #4]
 8004806:	6adb      	ldr	r3, [r3, #44]	; 0x2c
 8004808:	2b07      	cmp	r3, #7
 800480a:	d112      	bne.n	8004832 <HAL_ADC_Init+0x202>
    {
      /* Channel sampling time configuration */
      /* Clear the old sample time */
      hadc->Instance->SMPR &= ~(ADC_SMPR_SMP);
 800480c:	687b      	ldr	r3, [r7, #4]
 800480e:	681b      	ldr	r3, [r3, #0]
 8004810:	695a      	ldr	r2, [r3, #20]
 8004812:	687b      	ldr	r3, [r7, #4]
 8004814:	681b      	ldr	r3, [r3, #0]
 8004816:	2107      	movs	r1, #7
 8004818:	438a      	bics	r2, r1
 800481a:	615a      	str	r2, [r3, #20]
      
      /* Set the new sample time */
      hadc->Instance->SMPR |= ADC_SMPR_SET(hadc->Init.SamplingTimeCommon);
 800481c:	687b      	ldr	r3, [r7, #4]
 800481e:	681b      	ldr	r3, [r3, #0]
 8004820:	6959      	ldr	r1, [r3, #20]
 8004822:	687b      	ldr	r3, [r7, #4]
 8004824:	6adb      	ldr	r3, [r3, #44]	; 0x2c
 8004826:	2207      	movs	r2, #7
 8004828:	401a      	ands	r2, r3
 800482a:	687b      	ldr	r3, [r7, #4]
 800482c:	681b      	ldr	r3, [r3, #0]
 800482e:	430a      	orrs	r2, r1
 8004830:	615a      	str	r2, [r3, #20]
    /* Check back that ADC registers have effectively been configured to      */
    /* ensure of no potential problem of ADC core IP clocking.                */
    /* Check through register CFGR1 (excluding analog watchdog configuration: */
    /* set into separate dedicated function, and bits of ADC resolution set   */
    /* out of temporary variable 'tmpCFGR1').                                 */
    if ((hadc->Instance->CFGR1 & ~(ADC_CFGR1_AWDCH | ADC_CFGR1_AWDEN | ADC_CFGR1_AWDSGL | ADC_CFGR1_RES))
 8004832:	687b      	ldr	r3, [r7, #4]
 8004834:	681b      	ldr	r3, [r3, #0]
 8004836:	68db      	ldr	r3, [r3, #12]
 8004838:	4a1c      	ldr	r2, [pc, #112]	; (80048ac <HAL_ADC_Init+0x27c>)
 800483a:	4013      	ands	r3, r2
 800483c:	68ba      	ldr	r2, [r7, #8]
 800483e:	429a      	cmp	r2, r3
 8004840:	d10b      	bne.n	800485a <HAL_ADC_Init+0x22a>
         == tmpCFGR1)
    {
      /* Set ADC error code to none */
      ADC_CLEAR_ERRORCODE(hadc);
 8004842:	687b      	ldr	r3, [r7, #4]
 8004844:	2200      	movs	r2, #0
 8004846:	63da      	str	r2, [r3, #60]	; 0x3c
      
      /* Set the ADC state */
      ADC_STATE_CLR_SET(hadc->State,
 8004848:	687b      	ldr	r3, [r7, #4]
 800484a:	6b9b      	ldr	r3, [r3, #56]	; 0x38
 800484c:	2203      	movs	r2, #3
 800484e:	4393      	bics	r3, r2
 8004850:	2201      	movs	r2, #1
 8004852:	431a      	orrs	r2, r3
 8004854:	687b      	ldr	r3, [r7, #4]
 8004856:	639a      	str	r2, [r3, #56]	; 0x38
    if ((hadc->Instance->CFGR1 & ~(ADC_CFGR1_AWDCH | ADC_CFGR1_AWDEN | ADC_CFGR1_AWDSGL | ADC_CFGR1_RES))
 8004858:	e01c      	b.n	8004894 <HAL_ADC_Init+0x264>
                        HAL_ADC_STATE_READY);
    }
    else
    {
      /* Update ADC state machine to error */
      ADC_STATE_CLR_SET(hadc->State,
 800485a:	687b      	ldr	r3, [r7, #4]
 800485c:	6b9b      	ldr	r3, [r3, #56]	; 0x38
 800485e:	2212      	movs	r2, #18
 8004860:	4393      	bics	r3, r2
 8004862:	2210      	movs	r2, #16
 8004864:	431a      	orrs	r2, r3
 8004866:	687b      	ldr	r3, [r7, #4]
 8004868:	639a      	str	r2, [r3, #56]	; 0x38
                        HAL_ADC_STATE_BUSY_INTERNAL,
                        HAL_ADC_STATE_ERROR_INTERNAL);
      
      /* Set ADC error code to ADC IP internal error */
      SET_BIT(hadc->ErrorCode, HAL_ADC_ERROR_INTERNAL);
 800486a:	687b      	ldr	r3, [r7, #4]
 800486c:	6bdb      	ldr	r3, [r3, #60]	; 0x3c
 800486e:	2201      	movs	r2, #1
 8004870:	431a      	orrs	r2, r3
 8004872:	687b      	ldr	r3, [r7, #4]
 8004874:	63da      	str	r2, [r3, #60]	; 0x3c
      
      tmp_hal_status = HAL_ERROR;
 8004876:	230f      	movs	r3, #15
 8004878:	18fb      	adds	r3, r7, r3
 800487a:	2201      	movs	r2, #1
 800487c:	701a      	strb	r2, [r3, #0]
    if ((hadc->Instance->CFGR1 & ~(ADC_CFGR1_AWDCH | ADC_CFGR1_AWDEN | ADC_CFGR1_AWDSGL | ADC_CFGR1_RES))
 800487e:	e009      	b.n	8004894 <HAL_ADC_Init+0x264>
  
  }
  else
  {
    /* Update ADC state machine to error */
    SET_BIT(hadc->State, HAL_ADC_STATE_ERROR_INTERNAL);
 8004880:	687b      	ldr	r3, [r7, #4]
 8004882:	6b9b      	ldr	r3, [r3, #56]	; 0x38
 8004884:	2210      	movs	r2, #16
 8004886:	431a      	orrs	r2, r3
 8004888:	687b      	ldr	r3, [r7, #4]
 800488a:	639a      	str	r2, [r3, #56]	; 0x38
        
    tmp_hal_status = HAL_ERROR;
 800488c:	230f      	movs	r3, #15
 800488e:	18fb      	adds	r3, r7, r3
 8004890:	2201      	movs	r2, #1
 8004892:	701a      	strb	r2, [r3, #0]
  }
  
  /* Return function status */
  return tmp_hal_status;
 8004894:	230f      	movs	r3, #15
 8004896:	18fb      	adds	r3, r7, r3
 8004898:	781b      	ldrb	r3, [r3, #0]
}
 800489a:	0018      	movs	r0, r3
 800489c:	46bd      	mov	sp, r7
 800489e:	b004      	add	sp, #16
 80048a0:	bd80      	pop	{r7, pc}
 80048a2:	46c0      	nop			; (mov r8, r8)
 80048a4:	fffffefd 	.word	0xfffffefd
 80048a8:	fffe0219 	.word	0xfffe0219
 80048ac:	833fffe7 	.word	0x833fffe7

080048b0 <HAL_ADC_IRQHandler>:
  * @brief  Handles ADC interrupt request.  
  * @param  hadc ADC handle
  * @retval None
  */
void HAL_ADC_IRQHandler(ADC_HandleTypeDef* hadc)
{
 80048b0:	b580      	push	{r7, lr}
 80048b2:	b082      	sub	sp, #8
 80048b4:	af00      	add	r7, sp, #0
 80048b6:	6078      	str	r0, [r7, #4]
  assert_param(IS_ADC_ALL_INSTANCE(hadc->Instance));
  assert_param(IS_FUNCTIONAL_STATE(hadc->Init.ContinuousConvMode));
  assert_param(IS_ADC_EOC_SELECTION(hadc->Init.EOCSelection));
  
  /* ========== Check End of Conversion flag for regular group ========== */
  if( (__HAL_ADC_GET_FLAG(hadc, ADC_FLAG_EOC) && __HAL_ADC_GET_IT_SOURCE(hadc, ADC_IT_EOC)) || 
 80048b8:	687b      	ldr	r3, [r7, #4]
 80048ba:	681b      	ldr	r3, [r3, #0]
 80048bc:	681b      	ldr	r3, [r3, #0]
 80048be:	2204      	movs	r2, #4
 80048c0:	4013      	ands	r3, r2
 80048c2:	2b04      	cmp	r3, #4
 80048c4:	d106      	bne.n	80048d4 <HAL_ADC_IRQHandler+0x24>
 80048c6:	687b      	ldr	r3, [r7, #4]
 80048c8:	681b      	ldr	r3, [r3, #0]
 80048ca:	685b      	ldr	r3, [r3, #4]
 80048cc:	2204      	movs	r2, #4
 80048ce:	4013      	ands	r3, r2
 80048d0:	2b04      	cmp	r3, #4
 80048d2:	d00d      	beq.n	80048f0 <HAL_ADC_IRQHandler+0x40>
      (__HAL_ADC_GET_FLAG(hadc, ADC_FLAG_EOS) && __HAL_ADC_GET_IT_SOURCE(hadc, ADC_IT_EOS))   )
 80048d4:	687b      	ldr	r3, [r7, #4]
 80048d6:	681b      	ldr	r3, [r3, #0]
 80048d8:	681b      	ldr	r3, [r3, #0]
 80048da:	2208      	movs	r2, #8
 80048dc:	4013      	ands	r3, r2
  if( (__HAL_ADC_GET_FLAG(hadc, ADC_FLAG_EOC) && __HAL_ADC_GET_IT_SOURCE(hadc, ADC_IT_EOC)) || 
 80048de:	2b08      	cmp	r3, #8
 80048e0:	d14f      	bne.n	8004982 <HAL_ADC_IRQHandler+0xd2>
      (__HAL_ADC_GET_FLAG(hadc, ADC_FLAG_EOS) && __HAL_ADC_GET_IT_SOURCE(hadc, ADC_IT_EOS))   )
 80048e2:	687b      	ldr	r3, [r7, #4]
 80048e4:	681b      	ldr	r3, [r3, #0]
 80048e6:	685b      	ldr	r3, [r3, #4]
 80048e8:	2208      	movs	r2, #8
 80048ea:	4013      	ands	r3, r2
 80048ec:	2b08      	cmp	r3, #8
 80048ee:	d148      	bne.n	8004982 <HAL_ADC_IRQHandler+0xd2>
  {
    /* Update state machine on conversion status if not in error state */
    if (HAL_IS_BIT_CLR(hadc->State, HAL_ADC_STATE_ERROR_INTERNAL))
 80048f0:	687b      	ldr	r3, [r7, #4]
 80048f2:	6b9b      	ldr	r3, [r3, #56]	; 0x38
 80048f4:	2210      	movs	r2, #16
 80048f6:	4013      	ands	r3, r2
 80048f8:	d106      	bne.n	8004908 <HAL_ADC_IRQHandler+0x58>
    {
      /* Set ADC state */
      SET_BIT(hadc->State, HAL_ADC_STATE_REG_EOC); 
 80048fa:	687b      	ldr	r3, [r7, #4]
 80048fc:	6b9b      	ldr	r3, [r3, #56]	; 0x38
 80048fe:	2280      	movs	r2, #128	; 0x80
 8004900:	0092      	lsls	r2, r2, #2
 8004902:	431a      	orrs	r2, r3
 8004904:	687b      	ldr	r3, [r7, #4]
 8004906:	639a      	str	r2, [r3, #56]	; 0x38
    }
    
    /* Determine whether any further conversion upcoming on group regular     */
    /* by external trigger, continuous mode or scan sequence on going.        */
    if(ADC_IS_SOFTWARE_START_REGULAR(hadc)        && 
 8004908:	687b      	ldr	r3, [r7, #4]
 800490a:	681b      	ldr	r3, [r3, #0]
 800490c:	68da      	ldr	r2, [r3, #12]
 800490e:	23c0      	movs	r3, #192	; 0xc0
 8004910:	011b      	lsls	r3, r3, #4
 8004912:	4013      	ands	r3, r2
 8004914:	d12d      	bne.n	8004972 <HAL_ADC_IRQHandler+0xc2>
       (hadc->Init.ContinuousConvMode == DISABLE)   )
 8004916:	687b      	ldr	r3, [r7, #4]
 8004918:	7e9b      	ldrb	r3, [r3, #26]
    if(ADC_IS_SOFTWARE_START_REGULAR(hadc)        && 
 800491a:	2b00      	cmp	r3, #0
 800491c:	d129      	bne.n	8004972 <HAL_ADC_IRQHandler+0xc2>
    {
      /* If End of Sequence is reached, disable interrupts */
      if( __HAL_ADC_GET_FLAG(hadc, ADC_FLAG_EOS) )
 800491e:	687b      	ldr	r3, [r7, #4]
 8004920:	681b      	ldr	r3, [r3, #0]
 8004922:	681b      	ldr	r3, [r3, #0]
 8004924:	2208      	movs	r2, #8
 8004926:	4013      	ands	r3, r2
 8004928:	2b08      	cmp	r3, #8
 800492a:	d122      	bne.n	8004972 <HAL_ADC_IRQHandler+0xc2>
      {
        /* Allowed to modify bits ADC_IT_EOC/ADC_IT_EOS only if bit           */
        /* ADSTART==0 (no conversion on going)                                */
        if (ADC_IS_CONVERSION_ONGOING_REGULAR(hadc) == RESET)
 800492c:	687b      	ldr	r3, [r7, #4]
 800492e:	681b      	ldr	r3, [r3, #0]
 8004930:	689b      	ldr	r3, [r3, #8]
 8004932:	2204      	movs	r2, #4
 8004934:	4013      	ands	r3, r2
 8004936:	d110      	bne.n	800495a <HAL_ADC_IRQHandler+0xaa>
        {
          /* Disable ADC end of single conversion interrupt on group regular */
          /* Note: Overrun interrupt was enabled with EOC interrupt in        */
          /* HAL_Start_IT(), but is not disabled here because can be used     */
          /* by overrun IRQ process below.                                    */
          __HAL_ADC_DISABLE_IT(hadc, ADC_IT_EOC | ADC_IT_EOS);
 8004938:	687b      	ldr	r3, [r7, #4]
 800493a:	681b      	ldr	r3, [r3, #0]
 800493c:	685a      	ldr	r2, [r3, #4]
 800493e:	687b      	ldr	r3, [r7, #4]
 8004940:	681b      	ldr	r3, [r3, #0]
 8004942:	210c      	movs	r1, #12
 8004944:	438a      	bics	r2, r1
 8004946:	605a      	str	r2, [r3, #4]
          
          /* Set ADC state */
          ADC_STATE_CLR_SET(hadc->State,
 8004948:	687b      	ldr	r3, [r7, #4]
 800494a:	6b9b      	ldr	r3, [r3, #56]	; 0x38
 800494c:	4a33      	ldr	r2, [pc, #204]	; (8004a1c <HAL_ADC_IRQHandler+0x16c>)
 800494e:	4013      	ands	r3, r2
 8004950:	2201      	movs	r2, #1
 8004952:	431a      	orrs	r2, r3
 8004954:	687b      	ldr	r3, [r7, #4]
 8004956:	639a      	str	r2, [r3, #56]	; 0x38
 8004958:	e00b      	b.n	8004972 <HAL_ADC_IRQHandler+0xc2>
                            HAL_ADC_STATE_READY);
        }
        else
        {
          /* Change ADC state to error state */
          SET_BIT(hadc->State, HAL_ADC_STATE_ERROR_CONFIG);
 800495a:	687b      	ldr	r3, [r7, #4]
 800495c:	6b9b      	ldr	r3, [r3, #56]	; 0x38
 800495e:	2220      	movs	r2, #32
 8004960:	431a      	orrs	r2, r3
 8004962:	687b      	ldr	r3, [r7, #4]
 8004964:	639a      	str	r2, [r3, #56]	; 0x38
          
          /* Set ADC error code to ADC IP internal error */
          SET_BIT(hadc->ErrorCode, HAL_ADC_ERROR_INTERNAL);
 8004966:	687b      	ldr	r3, [r7, #4]
 8004968:	6bdb      	ldr	r3, [r3, #60]	; 0x3c
 800496a:	2201      	movs	r2, #1
 800496c:	431a      	orrs	r2, r3
 800496e:	687b      	ldr	r3, [r7, #4]
 8004970:	63da      	str	r2, [r3, #60]	; 0x3c
    /*       from EOC or EOS, possibility to use:                             */
    /*        " if( __HAL_ADC_GET_FLAG(&hadc, ADC_FLAG_EOS)) "                */
#if (USE_HAL_ADC_REGISTER_CALLBACKS == 1)
      hadc->ConvCpltCallback(hadc);
#else
    HAL_ADC_ConvCpltCallback(hadc);
 8004972:	687b      	ldr	r3, [r7, #4]
 8004974:	0018      	movs	r0, r3
 8004976:	f000 f853 	bl	8004a20 <HAL_ADC_ConvCpltCallback>
    /* Clear regular group conversion flag */
    /* Note: in case of overrun set to ADC_OVR_DATA_PRESERVED, end of         */
    /*       conversion flags clear induces the release of the preserved data.*/
    /*       Therefore, if the preserved data value is needed, it must be     */
    /*       read preliminarily into HAL_ADC_ConvCpltCallback().              */
    __HAL_ADC_CLEAR_FLAG(hadc, (ADC_FLAG_EOC | ADC_FLAG_EOS) );
 800497a:	687b      	ldr	r3, [r7, #4]
 800497c:	681b      	ldr	r3, [r3, #0]
 800497e:	220c      	movs	r2, #12
 8004980:	601a      	str	r2, [r3, #0]
  }
   
  /* ========== Check Analog watchdog flags ========== */
  if(__HAL_ADC_GET_FLAG(hadc, ADC_FLAG_AWD) && __HAL_ADC_GET_IT_SOURCE(hadc, ADC_IT_AWD))
 8004982:	687b      	ldr	r3, [r7, #4]
 8004984:	681b      	ldr	r3, [r3, #0]
 8004986:	681b      	ldr	r3, [r3, #0]
 8004988:	2280      	movs	r2, #128	; 0x80
 800498a:	4013      	ands	r3, r2
 800498c:	2b80      	cmp	r3, #128	; 0x80
 800498e:	d115      	bne.n	80049bc <HAL_ADC_IRQHandler+0x10c>
 8004990:	687b      	ldr	r3, [r7, #4]
 8004992:	681b      	ldr	r3, [r3, #0]
 8004994:	685b      	ldr	r3, [r3, #4]
 8004996:	2280      	movs	r2, #128	; 0x80
 8004998:	4013      	ands	r3, r2
 800499a:	2b80      	cmp	r3, #128	; 0x80
 800499c:	d10e      	bne.n	80049bc <HAL_ADC_IRQHandler+0x10c>
  {
      /* Set ADC state */
      SET_BIT(hadc->State, HAL_ADC_STATE_AWD1);
 800499e:	687b      	ldr	r3, [r7, #4]
 80049a0:	6b9b      	ldr	r3, [r3, #56]	; 0x38
 80049a2:	2280      	movs	r2, #128	; 0x80
 80049a4:	0252      	lsls	r2, r2, #9
 80049a6:	431a      	orrs	r2, r3
 80049a8:	687b      	ldr	r3, [r7, #4]
 80049aa:	639a      	str	r2, [r3, #56]	; 0x38

#if (USE_HAL_ADC_REGISTER_CALLBACKS == 1)
      hadc->LevelOutOfWindowCallback(hadc);
#else
    HAL_ADC_LevelOutOfWindowCallback(hadc);
 80049ac:	687b      	ldr	r3, [r7, #4]
 80049ae:	0018      	movs	r0, r3
 80049b0:	f000 f83e 	bl	8004a30 <HAL_ADC_LevelOutOfWindowCallback>
#endif /* USE_HAL_ADC_REGISTER_CALLBACKS */
    
    /* Clear ADC Analog watchdog flag */
    __HAL_ADC_CLEAR_FLAG(hadc, ADC_FLAG_AWD);
 80049b4:	687b      	ldr	r3, [r7, #4]
 80049b6:	681b      	ldr	r3, [r3, #0]
 80049b8:	2280      	movs	r2, #128	; 0x80
 80049ba:	601a      	str	r2, [r3, #0]
   
  }
  
  
  /* ========== Check Overrun flag ========== */
  if(__HAL_ADC_GET_FLAG(hadc, ADC_FLAG_OVR) && __HAL_ADC_GET_IT_SOURCE(hadc, ADC_IT_OVR))
 80049bc:	687b      	ldr	r3, [r7, #4]
 80049be:	681b      	ldr	r3, [r3, #0]
 80049c0:	681b      	ldr	r3, [r3, #0]
 80049c2:	2210      	movs	r2, #16
 80049c4:	4013      	ands	r3, r2
 80049c6:	2b10      	cmp	r3, #16
 80049c8:	d123      	bne.n	8004a12 <HAL_ADC_IRQHandler+0x162>
 80049ca:	687b      	ldr	r3, [r7, #4]
 80049cc:	681b      	ldr	r3, [r3, #0]
 80049ce:	685b      	ldr	r3, [r3, #4]
 80049d0:	2210      	movs	r2, #16
 80049d2:	4013      	ands	r3, r2
 80049d4:	2b10      	cmp	r3, #16
 80049d6:	d11c      	bne.n	8004a12 <HAL_ADC_IRQHandler+0x162>
    /* overrun event is not considered as an error.                           */
    /* (cf ref manual "Managing conversions without using the DMA and without */
    /* overrun ")                                                             */
    /* Exception for usage with DMA overrun event always considered as an     */
    /* error.                                                                 */
    if ((hadc->Init.Overrun == ADC_OVR_DATA_PRESERVED)            ||
 80049d8:	687b      	ldr	r3, [r7, #4]
 80049da:	6a9b      	ldr	r3, [r3, #40]	; 0x28
 80049dc:	2b01      	cmp	r3, #1
 80049de:	d006      	beq.n	80049ee <HAL_ADC_IRQHandler+0x13e>
        HAL_IS_BIT_SET(hadc->Instance->CFGR1, ADC_CFGR1_DMAEN)  )
 80049e0:	687b      	ldr	r3, [r7, #4]
 80049e2:	681b      	ldr	r3, [r3, #0]
 80049e4:	68db      	ldr	r3, [r3, #12]
 80049e6:	2201      	movs	r2, #1
 80049e8:	4013      	ands	r3, r2
    if ((hadc->Init.Overrun == ADC_OVR_DATA_PRESERVED)            ||
 80049ea:	2b01      	cmp	r3, #1
 80049ec:	d10d      	bne.n	8004a0a <HAL_ADC_IRQHandler+0x15a>
    {
      /* Set ADC error code to overrun */
      SET_BIT(hadc->ErrorCode, HAL_ADC_ERROR_OVR);
 80049ee:	687b      	ldr	r3, [r7, #4]
 80049f0:	6bdb      	ldr	r3, [r3, #60]	; 0x3c
 80049f2:	2202      	movs	r2, #2
 80049f4:	431a      	orrs	r2, r3
 80049f6:	687b      	ldr	r3, [r7, #4]
 80049f8:	63da      	str	r2, [r3, #60]	; 0x3c
      
      /* Clear ADC overrun flag */
      __HAL_ADC_CLEAR_FLAG(hadc, ADC_FLAG_OVR);
 80049fa:	687b      	ldr	r3, [r7, #4]
 80049fc:	681b      	ldr	r3, [r3, #0]
 80049fe:	2210      	movs	r2, #16
 8004a00:	601a      	str	r2, [r3, #0]
      
#if (USE_HAL_ADC_REGISTER_CALLBACKS == 1)
      hadc->ErrorCallback(hadc);
#else
      HAL_ADC_ErrorCallback(hadc);
 8004a02:	687b      	ldr	r3, [r7, #4]
 8004a04:	0018      	movs	r0, r3
 8004a06:	f000 f81b 	bl	8004a40 <HAL_ADC_ErrorCallback>
#endif /* USE_HAL_ADC_REGISTER_CALLBACKS */
    }
    
    /* Clear the Overrun flag */
    __HAL_ADC_CLEAR_FLAG(hadc, ADC_FLAG_OVR);
 8004a0a:	687b      	ldr	r3, [r7, #4]
 8004a0c:	681b      	ldr	r3, [r3, #0]
 8004a0e:	2210      	movs	r2, #16
 8004a10:	601a      	str	r2, [r3, #0]
  }

}
 8004a12:	46c0      	nop			; (mov r8, r8)
 8004a14:	46bd      	mov	sp, r7
 8004a16:	b002      	add	sp, #8
 8004a18:	bd80      	pop	{r7, pc}
 8004a1a:	46c0      	nop			; (mov r8, r8)
 8004a1c:	fffffefe 	.word	0xfffffefe

08004a20 <HAL_ADC_ConvCpltCallback>:
  * @brief  Conversion complete callback in non blocking mode 
  * @param  hadc ADC handle
  * @retval None
  */
__weak void HAL_ADC_ConvCpltCallback(ADC_HandleTypeDef* hadc)
{
 8004a20:	b580      	push	{r7, lr}
 8004a22:	b082      	sub	sp, #8
 8004a24:	af00      	add	r7, sp, #0
 8004a26:	6078      	str	r0, [r7, #4]
  UNUSED(hadc);

  /* NOTE : This function should not be modified. When the callback is needed,
            function HAL_ADC_ConvCpltCallback must be implemented in the user file.
   */
}
 8004a28:	46c0      	nop			; (mov r8, r8)
 8004a2a:	46bd      	mov	sp, r7
 8004a2c:	b002      	add	sp, #8
 8004a2e:	bd80      	pop	{r7, pc}

08004a30 <HAL_ADC_LevelOutOfWindowCallback>:
  * @brief  Analog watchdog callback in non blocking mode. 
  * @param  hadc ADC handle
  * @retval None
  */
__weak void HAL_ADC_LevelOutOfWindowCallback(ADC_HandleTypeDef* hadc)
{
 8004a30:	b580      	push	{r7, lr}
 8004a32:	b082      	sub	sp, #8
 8004a34:	af00      	add	r7, sp, #0
 8004a36:	6078      	str	r0, [r7, #4]
  UNUSED(hadc);

  /* NOTE : This function should not be modified. When the callback is needed,
            function HAL_ADC_LevelOoutOfWindowCallback must be implemented in the user file.
  */
}
 8004a38:	46c0      	nop			; (mov r8, r8)
 8004a3a:	46bd      	mov	sp, r7
 8004a3c:	b002      	add	sp, #8
 8004a3e:	bd80      	pop	{r7, pc}

08004a40 <HAL_ADC_ErrorCallback>:
  *        (ADC conversion with interruption or transfer by DMA)
  * @param  hadc ADC handle
  * @retval None
  */
__weak void HAL_ADC_ErrorCallback(ADC_HandleTypeDef *hadc)
{
 8004a40:	b580      	push	{r7, lr}
 8004a42:	b082      	sub	sp, #8
 8004a44:	af00      	add	r7, sp, #0
 8004a46:	6078      	str	r0, [r7, #4]
  UNUSED(hadc);

  /* NOTE : This function should not be modified. When the callback is needed,
            function HAL_ADC_ErrorCallback must be implemented in the user file.
  */
}
 8004a48:	46c0      	nop			; (mov r8, r8)
 8004a4a:	46bd      	mov	sp, r7
 8004a4c:	b002      	add	sp, #8
 8004a4e:	bd80      	pop	{r7, pc}

08004a50 <HAL_ADC_ConfigChannel>:
  * @param  hadc ADC handle
  * @param  sConfig Structure of ADC channel for regular group.
  * @retval HAL status
  */
HAL_StatusTypeDef HAL_ADC_ConfigChannel(ADC_HandleTypeDef* hadc, ADC_ChannelConfTypeDef* sConfig)
{
 8004a50:	b580      	push	{r7, lr}
 8004a52:	b084      	sub	sp, #16
 8004a54:	af00      	add	r7, sp, #0
 8004a56:	6078      	str	r0, [r7, #4]
 8004a58:	6039      	str	r1, [r7, #0]
  HAL_StatusTypeDef tmp_hal_status = HAL_OK;
 8004a5a:	230f      	movs	r3, #15
 8004a5c:	18fb      	adds	r3, r7, r3
 8004a5e:	2200      	movs	r2, #0
 8004a60:	701a      	strb	r2, [r3, #0]
  __IO uint32_t wait_loop_index = 0U;
 8004a62:	2300      	movs	r3, #0
 8004a64:	60bb      	str	r3, [r7, #8]
  /* Check the parameters */
  assert_param(IS_ADC_ALL_INSTANCE(hadc->Instance));
  assert_param(IS_ADC_CHANNEL(sConfig->Channel));
  assert_param(IS_ADC_RANK(sConfig->Rank));
  
  if (! IS_ADC_SAMPLE_TIME(hadc->Init.SamplingTimeCommon))
 8004a66:	687b      	ldr	r3, [r7, #4]
 8004a68:	6ada      	ldr	r2, [r3, #44]	; 0x2c
 8004a6a:	2380      	movs	r3, #128	; 0x80
 8004a6c:	055b      	lsls	r3, r3, #21
 8004a6e:	429a      	cmp	r2, r3
 8004a70:	d011      	beq.n	8004a96 <HAL_ADC_ConfigChannel+0x46>
 8004a72:	687b      	ldr	r3, [r7, #4]
 8004a74:	6adb      	ldr	r3, [r3, #44]	; 0x2c
 8004a76:	2b01      	cmp	r3, #1
 8004a78:	d00d      	beq.n	8004a96 <HAL_ADC_ConfigChannel+0x46>
 8004a7a:	687b      	ldr	r3, [r7, #4]
 8004a7c:	6adb      	ldr	r3, [r3, #44]	; 0x2c
 8004a7e:	2b02      	cmp	r3, #2
 8004a80:	d009      	beq.n	8004a96 <HAL_ADC_ConfigChannel+0x46>
 8004a82:	687b      	ldr	r3, [r7, #4]
 8004a84:	6adb      	ldr	r3, [r3, #44]	; 0x2c
 8004a86:	2b03      	cmp	r3, #3
 8004a88:	d005      	beq.n	8004a96 <HAL_ADC_ConfigChannel+0x46>
 8004a8a:	687b      	ldr	r3, [r7, #4]
 8004a8c:	6adb      	ldr	r3, [r3, #44]	; 0x2c
 8004a8e:	2b04      	cmp	r3, #4
 8004a90:	d001      	beq.n	8004a96 <HAL_ADC_ConfigChannel+0x46>
 8004a92:	687b      	ldr	r3, [r7, #4]
 8004a94:	6adb      	ldr	r3, [r3, #44]	; 0x2c
  {
    assert_param(IS_ADC_SAMPLE_TIME(sConfig->SamplingTime));
  }
  
  /* Process locked */
  __HAL_LOCK(hadc);
 8004a96:	687b      	ldr	r3, [r7, #4]
 8004a98:	2234      	movs	r2, #52	; 0x34
 8004a9a:	5c9b      	ldrb	r3, [r3, r2]
 8004a9c:	2b01      	cmp	r3, #1
 8004a9e:	d101      	bne.n	8004aa4 <HAL_ADC_ConfigChannel+0x54>
 8004aa0:	2302      	movs	r3, #2
 8004aa2:	e0bb      	b.n	8004c1c <HAL_ADC_ConfigChannel+0x1cc>
 8004aa4:	687b      	ldr	r3, [r7, #4]
 8004aa6:	2234      	movs	r2, #52	; 0x34
 8004aa8:	2101      	movs	r1, #1
 8004aaa:	5499      	strb	r1, [r3, r2]
  /* Parameters that can be updated when ADC is disabled or enabled without   */
  /* conversion on going on regular group:                                    */
  /*  - Channel number                                                        */
  /*  - Channel sampling time                                                 */
  /*  - Management of internal measurement channels: VrefInt/TempSensor/Vbat  */
  if (ADC_IS_CONVERSION_ONGOING_REGULAR(hadc) == RESET)
 8004aac:	687b      	ldr	r3, [r7, #4]
 8004aae:	681b      	ldr	r3, [r3, #0]
 8004ab0:	689b      	ldr	r3, [r3, #8]
 8004ab2:	2204      	movs	r2, #4
 8004ab4:	4013      	ands	r3, r2
 8004ab6:	d000      	beq.n	8004aba <HAL_ADC_ConfigChannel+0x6a>
 8004ab8:	e09f      	b.n	8004bfa <HAL_ADC_ConfigChannel+0x1aa>
  {
    /* Configure channel: depending on rank setting, add it or remove it from */
    /* ADC conversion sequencer.                                              */
    if (sConfig->Rank != ADC_RANK_NONE)
 8004aba:	683b      	ldr	r3, [r7, #0]
 8004abc:	685b      	ldr	r3, [r3, #4]
 8004abe:	4a59      	ldr	r2, [pc, #356]	; (8004c24 <HAL_ADC_ConfigChannel+0x1d4>)
 8004ac0:	4293      	cmp	r3, r2
 8004ac2:	d100      	bne.n	8004ac6 <HAL_ADC_ConfigChannel+0x76>
 8004ac4:	e077      	b.n	8004bb6 <HAL_ADC_ConfigChannel+0x166>
    {
      /* Regular sequence configuration */
      /* Set the channel selection register from the selected channel */
      hadc->Instance->CHSELR |= ADC_CHSELR_CHANNEL(sConfig->Channel);
 8004ac6:	687b      	ldr	r3, [r7, #4]
 8004ac8:	681b      	ldr	r3, [r3, #0]
 8004aca:	6a99      	ldr	r1, [r3, #40]	; 0x28
 8004acc:	683b      	ldr	r3, [r7, #0]
 8004ace:	681b      	ldr	r3, [r3, #0]
 8004ad0:	2201      	movs	r2, #1
 8004ad2:	409a      	lsls	r2, r3
 8004ad4:	687b      	ldr	r3, [r7, #4]
 8004ad6:	681b      	ldr	r3, [r3, #0]
 8004ad8:	430a      	orrs	r2, r1
 8004ada:	629a      	str	r2, [r3, #40]	; 0x28
      /* Channel sampling time configuration */
      /* Management of parameters "SamplingTimeCommon" and "SamplingTime"     */
      /* (obsolete): sampling time set in this function with                  */
      /* parameter "SamplingTime" (obsolete) only if not already set into     */
      /* ADC initialization structure with parameter "SamplingTimeCommon".    */
      if (! IS_ADC_SAMPLE_TIME(hadc->Init.SamplingTimeCommon))
 8004adc:	687b      	ldr	r3, [r7, #4]
 8004ade:	6ada      	ldr	r2, [r3, #44]	; 0x2c
 8004ae0:	2380      	movs	r3, #128	; 0x80
 8004ae2:	055b      	lsls	r3, r3, #21
 8004ae4:	429a      	cmp	r2, r3
 8004ae6:	d037      	beq.n	8004b58 <HAL_ADC_ConfigChannel+0x108>
 8004ae8:	687b      	ldr	r3, [r7, #4]
 8004aea:	6adb      	ldr	r3, [r3, #44]	; 0x2c
 8004aec:	2b01      	cmp	r3, #1
 8004aee:	d033      	beq.n	8004b58 <HAL_ADC_ConfigChannel+0x108>
 8004af0:	687b      	ldr	r3, [r7, #4]
 8004af2:	6adb      	ldr	r3, [r3, #44]	; 0x2c
 8004af4:	2b02      	cmp	r3, #2
 8004af6:	d02f      	beq.n	8004b58 <HAL_ADC_ConfigChannel+0x108>
 8004af8:	687b      	ldr	r3, [r7, #4]
 8004afa:	6adb      	ldr	r3, [r3, #44]	; 0x2c
 8004afc:	2b03      	cmp	r3, #3
 8004afe:	d02b      	beq.n	8004b58 <HAL_ADC_ConfigChannel+0x108>
 8004b00:	687b      	ldr	r3, [r7, #4]
 8004b02:	6adb      	ldr	r3, [r3, #44]	; 0x2c
 8004b04:	2b04      	cmp	r3, #4
 8004b06:	d027      	beq.n	8004b58 <HAL_ADC_ConfigChannel+0x108>
 8004b08:	687b      	ldr	r3, [r7, #4]
 8004b0a:	6adb      	ldr	r3, [r3, #44]	; 0x2c
 8004b0c:	2b05      	cmp	r3, #5
 8004b0e:	d023      	beq.n	8004b58 <HAL_ADC_ConfigChannel+0x108>
 8004b10:	687b      	ldr	r3, [r7, #4]
 8004b12:	6adb      	ldr	r3, [r3, #44]	; 0x2c
 8004b14:	2b06      	cmp	r3, #6
 8004b16:	d01f      	beq.n	8004b58 <HAL_ADC_ConfigChannel+0x108>
 8004b18:	687b      	ldr	r3, [r7, #4]
 8004b1a:	6adb      	ldr	r3, [r3, #44]	; 0x2c
 8004b1c:	2b07      	cmp	r3, #7
 8004b1e:	d01b      	beq.n	8004b58 <HAL_ADC_ConfigChannel+0x108>
      {
        /* Modify sampling time if needed (not needed in case of reoccurrence */
        /* for several channels programmed consecutively into the sequencer)  */
        if (sConfig->SamplingTime != ADC_GET_SAMPLINGTIME(hadc))
 8004b20:	683b      	ldr	r3, [r7, #0]
 8004b22:	689a      	ldr	r2, [r3, #8]
 8004b24:	687b      	ldr	r3, [r7, #4]
 8004b26:	681b      	ldr	r3, [r3, #0]
 8004b28:	695b      	ldr	r3, [r3, #20]
 8004b2a:	2107      	movs	r1, #7
 8004b2c:	400b      	ands	r3, r1
 8004b2e:	429a      	cmp	r2, r3
 8004b30:	d012      	beq.n	8004b58 <HAL_ADC_ConfigChannel+0x108>
        {
          /* Channel sampling time configuration */
          /* Clear the old sample time */
          hadc->Instance->SMPR &= ~(ADC_SMPR_SMP);
 8004b32:	687b      	ldr	r3, [r7, #4]
 8004b34:	681b      	ldr	r3, [r3, #0]
 8004b36:	695a      	ldr	r2, [r3, #20]
 8004b38:	687b      	ldr	r3, [r7, #4]
 8004b3a:	681b      	ldr	r3, [r3, #0]
 8004b3c:	2107      	movs	r1, #7
 8004b3e:	438a      	bics	r2, r1
 8004b40:	615a      	str	r2, [r3, #20]
          
          /* Set the new sample time */
          hadc->Instance->SMPR |= ADC_SMPR_SET(sConfig->SamplingTime);
 8004b42:	687b      	ldr	r3, [r7, #4]
 8004b44:	681b      	ldr	r3, [r3, #0]
 8004b46:	6959      	ldr	r1, [r3, #20]
 8004b48:	683b      	ldr	r3, [r7, #0]
 8004b4a:	689b      	ldr	r3, [r3, #8]
 8004b4c:	2207      	movs	r2, #7
 8004b4e:	401a      	ands	r2, r3
 8004b50:	687b      	ldr	r3, [r7, #4]
 8004b52:	681b      	ldr	r3, [r3, #0]
 8004b54:	430a      	orrs	r2, r1
 8004b56:	615a      	str	r2, [r3, #20]
      /* internal measurement paths enable: If internal channel selected,     */
      /* enable dedicated internal buffers and path.                          */
      /* Note: these internal measurement paths can be disabled using         */
      /*       HAL_ADC_DeInit() or removing the channel from sequencer with   */
      /*       channel configuration parameter "Rank".                        */
      if(ADC_IS_CHANNEL_INTERNAL(sConfig->Channel))
 8004b58:	683b      	ldr	r3, [r7, #0]
 8004b5a:	681b      	ldr	r3, [r3, #0]
 8004b5c:	2b10      	cmp	r3, #16
 8004b5e:	d003      	beq.n	8004b68 <HAL_ADC_ConfigChannel+0x118>
 8004b60:	683b      	ldr	r3, [r7, #0]
 8004b62:	681b      	ldr	r3, [r3, #0]
 8004b64:	2b11      	cmp	r3, #17
 8004b66:	d152      	bne.n	8004c0e <HAL_ADC_ConfigChannel+0x1be>
      {
        /* If Channel_16 is selected, enable Temp. sensor measurement path. */
        /* If Channel_17 is selected, enable VREFINT measurement path. */
        /* If Channel_18 is selected, enable VBAT measurement path. */
        ADC->CCR |= ADC_CHANNEL_INTERNAL_PATH(sConfig->Channel);
 8004b68:	4b2f      	ldr	r3, [pc, #188]	; (8004c28 <HAL_ADC_ConfigChannel+0x1d8>)
 8004b6a:	6819      	ldr	r1, [r3, #0]
 8004b6c:	683b      	ldr	r3, [r7, #0]
 8004b6e:	681b      	ldr	r3, [r3, #0]
 8004b70:	2b10      	cmp	r3, #16
 8004b72:	d102      	bne.n	8004b7a <HAL_ADC_ConfigChannel+0x12a>
 8004b74:	2380      	movs	r3, #128	; 0x80
 8004b76:	041b      	lsls	r3, r3, #16
 8004b78:	e001      	b.n	8004b7e <HAL_ADC_ConfigChannel+0x12e>
 8004b7a:	2380      	movs	r3, #128	; 0x80
 8004b7c:	03db      	lsls	r3, r3, #15
 8004b7e:	4a2a      	ldr	r2, [pc, #168]	; (8004c28 <HAL_ADC_ConfigChannel+0x1d8>)
 8004b80:	430b      	orrs	r3, r1
 8004b82:	6013      	str	r3, [r2, #0]
        
        /* If Temp. sensor is selected, wait for stabilization delay */
        if (sConfig->Channel == ADC_CHANNEL_TEMPSENSOR)
 8004b84:	683b      	ldr	r3, [r7, #0]
 8004b86:	681b      	ldr	r3, [r3, #0]
 8004b88:	2b10      	cmp	r3, #16
 8004b8a:	d140      	bne.n	8004c0e <HAL_ADC_ConfigChannel+0x1be>
        {
          /* Delay for temperature sensor stabilization time */
          /* Compute number of CPU cycles to wait for */
          wait_loop_index = (ADC_TEMPSENSOR_DELAY_US * (SystemCoreClock / 1000000U));
 8004b8c:	4b27      	ldr	r3, [pc, #156]	; (8004c2c <HAL_ADC_ConfigChannel+0x1dc>)
 8004b8e:	681b      	ldr	r3, [r3, #0]
 8004b90:	4927      	ldr	r1, [pc, #156]	; (8004c30 <HAL_ADC_ConfigChannel+0x1e0>)
 8004b92:	0018      	movs	r0, r3
 8004b94:	f7fb fab8 	bl	8000108 <__udivsi3>
 8004b98:	0003      	movs	r3, r0
 8004b9a:	001a      	movs	r2, r3
 8004b9c:	0013      	movs	r3, r2
 8004b9e:	009b      	lsls	r3, r3, #2
 8004ba0:	189b      	adds	r3, r3, r2
 8004ba2:	005b      	lsls	r3, r3, #1
 8004ba4:	60bb      	str	r3, [r7, #8]
          while(wait_loop_index != 0U)
 8004ba6:	e002      	b.n	8004bae <HAL_ADC_ConfigChannel+0x15e>
          {
            wait_loop_index--;
 8004ba8:	68bb      	ldr	r3, [r7, #8]
 8004baa:	3b01      	subs	r3, #1
 8004bac:	60bb      	str	r3, [r7, #8]
          while(wait_loop_index != 0U)
 8004bae:	68bb      	ldr	r3, [r7, #8]
 8004bb0:	2b00      	cmp	r3, #0
 8004bb2:	d1f9      	bne.n	8004ba8 <HAL_ADC_ConfigChannel+0x158>
 8004bb4:	e02b      	b.n	8004c0e <HAL_ADC_ConfigChannel+0x1be>
    }
    else
    {
      /* Regular sequence configuration */
      /* Reset the channel selection register from the selected channel */
      hadc->Instance->CHSELR &= ~ADC_CHSELR_CHANNEL(sConfig->Channel);
 8004bb6:	687b      	ldr	r3, [r7, #4]
 8004bb8:	681b      	ldr	r3, [r3, #0]
 8004bba:	6a9a      	ldr	r2, [r3, #40]	; 0x28
 8004bbc:	683b      	ldr	r3, [r7, #0]
 8004bbe:	681b      	ldr	r3, [r3, #0]
 8004bc0:	2101      	movs	r1, #1
 8004bc2:	4099      	lsls	r1, r3
 8004bc4:	000b      	movs	r3, r1
 8004bc6:	43d9      	mvns	r1, r3
 8004bc8:	687b      	ldr	r3, [r7, #4]
 8004bca:	681b      	ldr	r3, [r3, #0]
 8004bcc:	400a      	ands	r2, r1
 8004bce:	629a      	str	r2, [r3, #40]	; 0x28
      
      /* Management of internal measurement channels: VrefInt/TempSensor/Vbat */
      /* internal measurement paths disable: If internal channel selected,    */
      /* disable dedicated internal buffers and path.                         */
      if(ADC_IS_CHANNEL_INTERNAL(sConfig->Channel))
 8004bd0:	683b      	ldr	r3, [r7, #0]
 8004bd2:	681b      	ldr	r3, [r3, #0]
 8004bd4:	2b10      	cmp	r3, #16
 8004bd6:	d003      	beq.n	8004be0 <HAL_ADC_ConfigChannel+0x190>
 8004bd8:	683b      	ldr	r3, [r7, #0]
 8004bda:	681b      	ldr	r3, [r3, #0]
 8004bdc:	2b11      	cmp	r3, #17
 8004bde:	d116      	bne.n	8004c0e <HAL_ADC_ConfigChannel+0x1be>
      {
        /* If Channel_16 is selected, disable Temp. sensor measurement path. */
        /* If Channel_17 is selected, disable VREFINT measurement path. */
        /* If Channel_18 is selected, disable VBAT measurement path. */
        ADC->CCR &= ~ADC_CHANNEL_INTERNAL_PATH(sConfig->Channel);
 8004be0:	4b11      	ldr	r3, [pc, #68]	; (8004c28 <HAL_ADC_ConfigChannel+0x1d8>)
 8004be2:	6819      	ldr	r1, [r3, #0]
 8004be4:	683b      	ldr	r3, [r7, #0]
 8004be6:	681b      	ldr	r3, [r3, #0]
 8004be8:	2b10      	cmp	r3, #16
 8004bea:	d101      	bne.n	8004bf0 <HAL_ADC_ConfigChannel+0x1a0>
 8004bec:	4a11      	ldr	r2, [pc, #68]	; (8004c34 <HAL_ADC_ConfigChannel+0x1e4>)
 8004bee:	e000      	b.n	8004bf2 <HAL_ADC_ConfigChannel+0x1a2>
 8004bf0:	4a11      	ldr	r2, [pc, #68]	; (8004c38 <HAL_ADC_ConfigChannel+0x1e8>)
 8004bf2:	4b0d      	ldr	r3, [pc, #52]	; (8004c28 <HAL_ADC_ConfigChannel+0x1d8>)
 8004bf4:	400a      	ands	r2, r1
 8004bf6:	601a      	str	r2, [r3, #0]
 8004bf8:	e009      	b.n	8004c0e <HAL_ADC_ConfigChannel+0x1be>
  /* channel could be done on neither of the channel configuration structure  */
  /* parameters.                                                              */
  else
  {
    /* Update ADC state machine to error */
    SET_BIT(hadc->State, HAL_ADC_STATE_ERROR_CONFIG);
 8004bfa:	687b      	ldr	r3, [r7, #4]
 8004bfc:	6b9b      	ldr	r3, [r3, #56]	; 0x38
 8004bfe:	2220      	movs	r2, #32
 8004c00:	431a      	orrs	r2, r3
 8004c02:	687b      	ldr	r3, [r7, #4]
 8004c04:	639a      	str	r2, [r3, #56]	; 0x38
    
    tmp_hal_status = HAL_ERROR;
 8004c06:	230f      	movs	r3, #15
 8004c08:	18fb      	adds	r3, r7, r3
 8004c0a:	2201      	movs	r2, #1
 8004c0c:	701a      	strb	r2, [r3, #0]
  }
  
  /* Process unlocked */
  __HAL_UNLOCK(hadc);
 8004c0e:	687b      	ldr	r3, [r7, #4]
 8004c10:	2234      	movs	r2, #52	; 0x34
 8004c12:	2100      	movs	r1, #0
 8004c14:	5499      	strb	r1, [r3, r2]
  
  /* Return function status */
  return tmp_hal_status;
 8004c16:	230f      	movs	r3, #15
 8004c18:	18fb      	adds	r3, r7, r3
 8004c1a:	781b      	ldrb	r3, [r3, #0]
}
 8004c1c:	0018      	movs	r0, r3
 8004c1e:	46bd      	mov	sp, r7
 8004c20:	b004      	add	sp, #16
 8004c22:	bd80      	pop	{r7, pc}
 8004c24:	00001001 	.word	0x00001001
 8004c28:	40012708 	.word	0x40012708
 8004c2c:	20000014 	.word	0x20000014
 8004c30:	000f4240 	.word	0x000f4240
 8004c34:	ff7fffff 	.word	0xff7fffff
 8004c38:	ffbfffff 	.word	0xffbfffff

08004c3c <__NVIC_EnableIRQ>:
  \details Enables a device specific interrupt in the NVIC interrupt controller.
  \param [in]      IRQn  Device specific interrupt number.
  \note    IRQn must not be negative.
 */
__STATIC_INLINE void __NVIC_EnableIRQ(IRQn_Type IRQn)
{
 8004c3c:	b580      	push	{r7, lr}
 8004c3e:	b082      	sub	sp, #8
 8004c40:	af00      	add	r7, sp, #0
 8004c42:	0002      	movs	r2, r0
 8004c44:	1dfb      	adds	r3, r7, #7
 8004c46:	701a      	strb	r2, [r3, #0]
  if ((int32_t)(IRQn) >= 0)
 8004c48:	1dfb      	adds	r3, r7, #7
 8004c4a:	781b      	ldrb	r3, [r3, #0]
 8004c4c:	2b7f      	cmp	r3, #127	; 0x7f
 8004c4e:	d809      	bhi.n	8004c64 <__NVIC_EnableIRQ+0x28>
  {
    NVIC->ISER[0U] = (uint32_t)(1UL << (((uint32_t)IRQn) & 0x1FUL));
 8004c50:	1dfb      	adds	r3, r7, #7
 8004c52:	781b      	ldrb	r3, [r3, #0]
 8004c54:	001a      	movs	r2, r3
 8004c56:	231f      	movs	r3, #31
 8004c58:	401a      	ands	r2, r3
 8004c5a:	4b04      	ldr	r3, [pc, #16]	; (8004c6c <__NVIC_EnableIRQ+0x30>)
 8004c5c:	2101      	movs	r1, #1
 8004c5e:	4091      	lsls	r1, r2
 8004c60:	000a      	movs	r2, r1
 8004c62:	601a      	str	r2, [r3, #0]
  }
}
 8004c64:	46c0      	nop			; (mov r8, r8)
 8004c66:	46bd      	mov	sp, r7
 8004c68:	b002      	add	sp, #8
 8004c6a:	bd80      	pop	{r7, pc}
 8004c6c:	e000e100 	.word	0xe000e100

08004c70 <__NVIC_SetPriority>:
  \param [in]      IRQn  Interrupt number.
  \param [in]  priority  Priority to set.
  \note    The priority cannot be set for every processor exception.
 */
__STATIC_INLINE void __NVIC_SetPriority(IRQn_Type IRQn, uint32_t priority)
{
 8004c70:	b590      	push	{r4, r7, lr}
 8004c72:	b083      	sub	sp, #12
 8004c74:	af00      	add	r7, sp, #0
 8004c76:	0002      	movs	r2, r0
 8004c78:	6039      	str	r1, [r7, #0]
 8004c7a:	1dfb      	adds	r3, r7, #7
 8004c7c:	701a      	strb	r2, [r3, #0]
  if ((int32_t)(IRQn) >= 0)
 8004c7e:	1dfb      	adds	r3, r7, #7
 8004c80:	781b      	ldrb	r3, [r3, #0]
 8004c82:	2b7f      	cmp	r3, #127	; 0x7f
 8004c84:	d828      	bhi.n	8004cd8 <__NVIC_SetPriority+0x68>
  {
    NVIC->IP[_IP_IDX(IRQn)]  = ((uint32_t)(NVIC->IP[_IP_IDX(IRQn)]  & ~(0xFFUL << _BIT_SHIFT(IRQn))) |
 8004c86:	4a2f      	ldr	r2, [pc, #188]	; (8004d44 <__NVIC_SetPriority+0xd4>)
 8004c88:	1dfb      	adds	r3, r7, #7
 8004c8a:	781b      	ldrb	r3, [r3, #0]
 8004c8c:	b25b      	sxtb	r3, r3
 8004c8e:	089b      	lsrs	r3, r3, #2
 8004c90:	33c0      	adds	r3, #192	; 0xc0
 8004c92:	009b      	lsls	r3, r3, #2
 8004c94:	589b      	ldr	r3, [r3, r2]
 8004c96:	1dfa      	adds	r2, r7, #7
 8004c98:	7812      	ldrb	r2, [r2, #0]
 8004c9a:	0011      	movs	r1, r2
 8004c9c:	2203      	movs	r2, #3
 8004c9e:	400a      	ands	r2, r1
 8004ca0:	00d2      	lsls	r2, r2, #3
 8004ca2:	21ff      	movs	r1, #255	; 0xff
 8004ca4:	4091      	lsls	r1, r2
 8004ca6:	000a      	movs	r2, r1
 8004ca8:	43d2      	mvns	r2, r2
 8004caa:	401a      	ands	r2, r3
 8004cac:	0011      	movs	r1, r2
       (((priority << (8U - __NVIC_PRIO_BITS)) & (uint32_t)0xFFUL) << _BIT_SHIFT(IRQn)));
 8004cae:	683b      	ldr	r3, [r7, #0]
 8004cb0:	019b      	lsls	r3, r3, #6
 8004cb2:	22ff      	movs	r2, #255	; 0xff
 8004cb4:	401a      	ands	r2, r3
 8004cb6:	1dfb      	adds	r3, r7, #7
 8004cb8:	781b      	ldrb	r3, [r3, #0]
 8004cba:	0018      	movs	r0, r3
 8004cbc:	2303      	movs	r3, #3
 8004cbe:	4003      	ands	r3, r0
 8004cc0:	00db      	lsls	r3, r3, #3
 8004cc2:	409a      	lsls	r2, r3
    NVIC->IP[_IP_IDX(IRQn)]  = ((uint32_t)(NVIC->IP[_IP_IDX(IRQn)]  & ~(0xFFUL << _BIT_SHIFT(IRQn))) |
 8004cc4:	481f      	ldr	r0, [pc, #124]	; (8004d44 <__NVIC_SetPriority+0xd4>)
 8004cc6:	1dfb      	adds	r3, r7, #7
 8004cc8:	781b      	ldrb	r3, [r3, #0]
 8004cca:	b25b      	sxtb	r3, r3
 8004ccc:	089b      	lsrs	r3, r3, #2
 8004cce:	430a      	orrs	r2, r1
 8004cd0:	33c0      	adds	r3, #192	; 0xc0
 8004cd2:	009b      	lsls	r3, r3, #2
 8004cd4:	501a      	str	r2, [r3, r0]
  else
  {
    SCB->SHP[_SHP_IDX(IRQn)] = ((uint32_t)(SCB->SHP[_SHP_IDX(IRQn)] & ~(0xFFUL << _BIT_SHIFT(IRQn))) |
       (((priority << (8U - __NVIC_PRIO_BITS)) & (uint32_t)0xFFUL) << _BIT_SHIFT(IRQn)));
  }
}
 8004cd6:	e031      	b.n	8004d3c <__NVIC_SetPriority+0xcc>
    SCB->SHP[_SHP_IDX(IRQn)] = ((uint32_t)(SCB->SHP[_SHP_IDX(IRQn)] & ~(0xFFUL << _BIT_SHIFT(IRQn))) |
 8004cd8:	4a1b      	ldr	r2, [pc, #108]	; (8004d48 <__NVIC_SetPriority+0xd8>)
 8004cda:	1dfb      	adds	r3, r7, #7
 8004cdc:	781b      	ldrb	r3, [r3, #0]
 8004cde:	0019      	movs	r1, r3
 8004ce0:	230f      	movs	r3, #15
 8004ce2:	400b      	ands	r3, r1
 8004ce4:	3b08      	subs	r3, #8
 8004ce6:	089b      	lsrs	r3, r3, #2
 8004ce8:	3306      	adds	r3, #6
 8004cea:	009b      	lsls	r3, r3, #2
 8004cec:	18d3      	adds	r3, r2, r3
 8004cee:	3304      	adds	r3, #4
 8004cf0:	681b      	ldr	r3, [r3, #0]
 8004cf2:	1dfa      	adds	r2, r7, #7
 8004cf4:	7812      	ldrb	r2, [r2, #0]
 8004cf6:	0011      	movs	r1, r2
 8004cf8:	2203      	movs	r2, #3
 8004cfa:	400a      	ands	r2, r1
 8004cfc:	00d2      	lsls	r2, r2, #3
 8004cfe:	21ff      	movs	r1, #255	; 0xff
 8004d00:	4091      	lsls	r1, r2
 8004d02:	000a      	movs	r2, r1
 8004d04:	43d2      	mvns	r2, r2
 8004d06:	401a      	ands	r2, r3
 8004d08:	0011      	movs	r1, r2
       (((priority << (8U - __NVIC_PRIO_BITS)) & (uint32_t)0xFFUL) << _BIT_SHIFT(IRQn)));
 8004d0a:	683b      	ldr	r3, [r7, #0]
 8004d0c:	019b      	lsls	r3, r3, #6
 8004d0e:	22ff      	movs	r2, #255	; 0xff
 8004d10:	401a      	ands	r2, r3
 8004d12:	1dfb      	adds	r3, r7, #7
 8004d14:	781b      	ldrb	r3, [r3, #0]
 8004d16:	0018      	movs	r0, r3
 8004d18:	2303      	movs	r3, #3
 8004d1a:	4003      	ands	r3, r0
 8004d1c:	00db      	lsls	r3, r3, #3
 8004d1e:	409a      	lsls	r2, r3
    SCB->SHP[_SHP_IDX(IRQn)] = ((uint32_t)(SCB->SHP[_SHP_IDX(IRQn)] & ~(0xFFUL << _BIT_SHIFT(IRQn))) |
 8004d20:	4809      	ldr	r0, [pc, #36]	; (8004d48 <__NVIC_SetPriority+0xd8>)
 8004d22:	1dfb      	adds	r3, r7, #7
 8004d24:	781b      	ldrb	r3, [r3, #0]
 8004d26:	001c      	movs	r4, r3
 8004d28:	230f      	movs	r3, #15
 8004d2a:	4023      	ands	r3, r4
 8004d2c:	3b08      	subs	r3, #8
 8004d2e:	089b      	lsrs	r3, r3, #2
 8004d30:	430a      	orrs	r2, r1
 8004d32:	3306      	adds	r3, #6
 8004d34:	009b      	lsls	r3, r3, #2
 8004d36:	18c3      	adds	r3, r0, r3
 8004d38:	3304      	adds	r3, #4
 8004d3a:	601a      	str	r2, [r3, #0]
}
 8004d3c:	46c0      	nop			; (mov r8, r8)
 8004d3e:	46bd      	mov	sp, r7
 8004d40:	b003      	add	sp, #12
 8004d42:	bd90      	pop	{r4, r7, pc}
 8004d44:	e000e100 	.word	0xe000e100
 8004d48:	e000ed00 	.word	0xe000ed00

08004d4c <SysTick_Config>:
  \note    When the variable <b>__Vendor_SysTickConfig</b> is set to 1, then the
           function <b>SysTick_Config</b> is not included. In this case, the file <b><i>device</i>.h</b>
           must contain a vendor-specific implementation of this function.
 */
__STATIC_INLINE uint32_t SysTick_Config(uint32_t ticks)
{
 8004d4c:	b580      	push	{r7, lr}
 8004d4e:	b082      	sub	sp, #8
 8004d50:	af00      	add	r7, sp, #0
 8004d52:	6078      	str	r0, [r7, #4]
  if ((ticks - 1UL) > SysTick_LOAD_RELOAD_Msk)
 8004d54:	687b      	ldr	r3, [r7, #4]
 8004d56:	3b01      	subs	r3, #1
 8004d58:	4a0c      	ldr	r2, [pc, #48]	; (8004d8c <SysTick_Config+0x40>)
 8004d5a:	4293      	cmp	r3, r2
 8004d5c:	d901      	bls.n	8004d62 <SysTick_Config+0x16>
  {
    return (1UL);                                                   /* Reload value impossible */
 8004d5e:	2301      	movs	r3, #1
 8004d60:	e010      	b.n	8004d84 <SysTick_Config+0x38>
  }

  SysTick->LOAD  = (uint32_t)(ticks - 1UL);                         /* set reload register */
 8004d62:	4b0b      	ldr	r3, [pc, #44]	; (8004d90 <SysTick_Config+0x44>)
 8004d64:	687a      	ldr	r2, [r7, #4]
 8004d66:	3a01      	subs	r2, #1
 8004d68:	605a      	str	r2, [r3, #4]
  NVIC_SetPriority (SysTick_IRQn, (1UL << __NVIC_PRIO_BITS) - 1UL); /* set Priority for Systick Interrupt */
 8004d6a:	2301      	movs	r3, #1
 8004d6c:	425b      	negs	r3, r3
 8004d6e:	2103      	movs	r1, #3
 8004d70:	0018      	movs	r0, r3
 8004d72:	f7ff ff7d 	bl	8004c70 <__NVIC_SetPriority>
  SysTick->VAL   = 0UL;                                             /* Load the SysTick Counter Value */
 8004d76:	4b06      	ldr	r3, [pc, #24]	; (8004d90 <SysTick_Config+0x44>)
 8004d78:	2200      	movs	r2, #0
 8004d7a:	609a      	str	r2, [r3, #8]
  SysTick->CTRL  = SysTick_CTRL_CLKSOURCE_Msk |
 8004d7c:	4b04      	ldr	r3, [pc, #16]	; (8004d90 <SysTick_Config+0x44>)
 8004d7e:	2207      	movs	r2, #7
 8004d80:	601a      	str	r2, [r3, #0]
                   SysTick_CTRL_TICKINT_Msk   |
                   SysTick_CTRL_ENABLE_Msk;                         /* Enable SysTick IRQ and SysTick Timer */
  return (0UL);                                                     /* Function successful */
 8004d82:	2300      	movs	r3, #0
}
 8004d84:	0018      	movs	r0, r3
 8004d86:	46bd      	mov	sp, r7
 8004d88:	b002      	add	sp, #8
 8004d8a:	bd80      	pop	{r7, pc}
 8004d8c:	00ffffff 	.word	0x00ffffff
 8004d90:	e000e010 	.word	0xe000e010

08004d94 <HAL_NVIC_SetPriority>:
  *         with stm32f0xx devices, this parameter is a dummy value and it is ignored, because 
  *         no subpriority supported in Cortex M0 based products.   
  * @retval None
  */
void HAL_NVIC_SetPriority(IRQn_Type IRQn, uint32_t PreemptPriority, uint32_t SubPriority)
{ 
 8004d94:	b580      	push	{r7, lr}
 8004d96:	b084      	sub	sp, #16
 8004d98:	af00      	add	r7, sp, #0
 8004d9a:	60b9      	str	r1, [r7, #8]
 8004d9c:	607a      	str	r2, [r7, #4]
 8004d9e:	210f      	movs	r1, #15
 8004da0:	187b      	adds	r3, r7, r1
 8004da2:	1c02      	adds	r2, r0, #0
 8004da4:	701a      	strb	r2, [r3, #0]
  /* Check the parameters */
  assert_param(IS_NVIC_PREEMPTION_PRIORITY(PreemptPriority));
  NVIC_SetPriority(IRQn,PreemptPriority);
 8004da6:	68ba      	ldr	r2, [r7, #8]
 8004da8:	187b      	adds	r3, r7, r1
 8004daa:	781b      	ldrb	r3, [r3, #0]
 8004dac:	b25b      	sxtb	r3, r3
 8004dae:	0011      	movs	r1, r2
 8004db0:	0018      	movs	r0, r3
 8004db2:	f7ff ff5d 	bl	8004c70 <__NVIC_SetPriority>
}
 8004db6:	46c0      	nop			; (mov r8, r8)
 8004db8:	46bd      	mov	sp, r7
 8004dba:	b004      	add	sp, #16
 8004dbc:	bd80      	pop	{r7, pc}

08004dbe <HAL_NVIC_EnableIRQ>:
  *         This parameter can be an enumerator of IRQn_Type enumeration
  *         (For the complete STM32 Devices IRQ Channels list, please refer to the appropriate CMSIS device file (stm32f0xxxx.h))
  * @retval None
  */
void HAL_NVIC_EnableIRQ(IRQn_Type IRQn)
{
 8004dbe:	b580      	push	{r7, lr}
 8004dc0:	b082      	sub	sp, #8
 8004dc2:	af00      	add	r7, sp, #0
 8004dc4:	0002      	movs	r2, r0
 8004dc6:	1dfb      	adds	r3, r7, #7
 8004dc8:	701a      	strb	r2, [r3, #0]
  /* Check the parameters */
  assert_param(IS_NVIC_DEVICE_IRQ(IRQn));
  
  /* Enable interrupt */
  NVIC_EnableIRQ(IRQn);
 8004dca:	1dfb      	adds	r3, r7, #7
 8004dcc:	781b      	ldrb	r3, [r3, #0]
 8004dce:	b25b      	sxtb	r3, r3
 8004dd0:	0018      	movs	r0, r3
 8004dd2:	f7ff ff33 	bl	8004c3c <__NVIC_EnableIRQ>
}
 8004dd6:	46c0      	nop			; (mov r8, r8)
 8004dd8:	46bd      	mov	sp, r7
 8004dda:	b002      	add	sp, #8
 8004ddc:	bd80      	pop	{r7, pc}

08004dde <HAL_SYSTICK_Config>:
  * @param  TicksNumb Specifies the ticks Number of ticks between two interrupts.
  * @retval status:  - 0  Function succeeded.
  *                  - 1  Function failed.
  */
uint32_t HAL_SYSTICK_Config(uint32_t TicksNumb)
{
 8004dde:	b580      	push	{r7, lr}
 8004de0:	b082      	sub	sp, #8
 8004de2:	af00      	add	r7, sp, #0
 8004de4:	6078      	str	r0, [r7, #4]
   return SysTick_Config(TicksNumb);
 8004de6:	687b      	ldr	r3, [r7, #4]
 8004de8:	0018      	movs	r0, r3
 8004dea:	f7ff ffaf 	bl	8004d4c <SysTick_Config>
 8004dee:	0003      	movs	r3, r0
}
 8004df0:	0018      	movs	r0, r3
 8004df2:	46bd      	mov	sp, r7
 8004df4:	b002      	add	sp, #8
 8004df6:	bd80      	pop	{r7, pc}

08004df8 <HAL_DMA_Abort_IT>:
  * @param  hdma  pointer to a DMA_HandleTypeDef structure that contains
  *               the configuration information for the specified DMA Stream.
  * @retval HAL status
  */
HAL_StatusTypeDef HAL_DMA_Abort_IT(DMA_HandleTypeDef *hdma)
{  
 8004df8:	b580      	push	{r7, lr}
 8004dfa:	b084      	sub	sp, #16
 8004dfc:	af00      	add	r7, sp, #0
 8004dfe:	6078      	str	r0, [r7, #4]
  HAL_StatusTypeDef status = HAL_OK;
 8004e00:	230f      	movs	r3, #15
 8004e02:	18fb      	adds	r3, r7, r3
 8004e04:	2200      	movs	r2, #0
 8004e06:	701a      	strb	r2, [r3, #0]
  
  if(HAL_DMA_STATE_BUSY != hdma->State)
 8004e08:	687b      	ldr	r3, [r7, #4]
 8004e0a:	2221      	movs	r2, #33	; 0x21
 8004e0c:	5c9b      	ldrb	r3, [r3, r2]
 8004e0e:	b2db      	uxtb	r3, r3
 8004e10:	2b02      	cmp	r3, #2
 8004e12:	d007      	beq.n	8004e24 <HAL_DMA_Abort_IT+0x2c>
  {
    /* no transfer ongoing */
    hdma->ErrorCode = HAL_DMA_ERROR_NO_XFER;
 8004e14:	687b      	ldr	r3, [r7, #4]
 8004e16:	2204      	movs	r2, #4
 8004e18:	639a      	str	r2, [r3, #56]	; 0x38
        
    status = HAL_ERROR;
 8004e1a:	230f      	movs	r3, #15
 8004e1c:	18fb      	adds	r3, r7, r3
 8004e1e:	2201      	movs	r2, #1
 8004e20:	701a      	strb	r2, [r3, #0]
 8004e22:	e028      	b.n	8004e76 <HAL_DMA_Abort_IT+0x7e>
  }
  else
  { 
  
    /* Disable DMA IT */
    hdma->Instance->CCR &= ~(DMA_IT_TC | DMA_IT_HT | DMA_IT_TE);
 8004e24:	687b      	ldr	r3, [r7, #4]
 8004e26:	681b      	ldr	r3, [r3, #0]
 8004e28:	681a      	ldr	r2, [r3, #0]
 8004e2a:	687b      	ldr	r3, [r7, #4]
 8004e2c:	681b      	ldr	r3, [r3, #0]
 8004e2e:	210e      	movs	r1, #14
 8004e30:	438a      	bics	r2, r1
 8004e32:	601a      	str	r2, [r3, #0]
    
    /* Disable the channel */
    hdma->Instance->CCR &= ~DMA_CCR_EN;
 8004e34:	687b      	ldr	r3, [r7, #4]
 8004e36:	681b      	ldr	r3, [r3, #0]
 8004e38:	681a      	ldr	r2, [r3, #0]
 8004e3a:	687b      	ldr	r3, [r7, #4]
 8004e3c:	681b      	ldr	r3, [r3, #0]
 8004e3e:	2101      	movs	r1, #1
 8004e40:	438a      	bics	r2, r1
 8004e42:	601a      	str	r2, [r3, #0]
    
    /* Clear all flags */
    hdma->DmaBaseAddress->IFCR = DMA_FLAG_GL1 << hdma->ChannelIndex;
 8004e44:	687b      	ldr	r3, [r7, #4]
 8004e46:	6c1a      	ldr	r2, [r3, #64]	; 0x40
 8004e48:	687b      	ldr	r3, [r7, #4]
 8004e4a:	6bdb      	ldr	r3, [r3, #60]	; 0x3c
 8004e4c:	2101      	movs	r1, #1
 8004e4e:	4091      	lsls	r1, r2
 8004e50:	000a      	movs	r2, r1
 8004e52:	605a      	str	r2, [r3, #4]
    
    /* Change the DMA state */
    hdma->State = HAL_DMA_STATE_READY;
 8004e54:	687b      	ldr	r3, [r7, #4]
 8004e56:	2221      	movs	r2, #33	; 0x21
 8004e58:	2101      	movs	r1, #1
 8004e5a:	5499      	strb	r1, [r3, r2]
    
    /* Process Unlocked */
    __HAL_UNLOCK(hdma);
 8004e5c:	687b      	ldr	r3, [r7, #4]
 8004e5e:	2220      	movs	r2, #32
 8004e60:	2100      	movs	r1, #0
 8004e62:	5499      	strb	r1, [r3, r2]
    
    /* Call User Abort callback */ 
    if(hdma->XferAbortCallback != NULL)
 8004e64:	687b      	ldr	r3, [r7, #4]
 8004e66:	6b5b      	ldr	r3, [r3, #52]	; 0x34
 8004e68:	2b00      	cmp	r3, #0
 8004e6a:	d004      	beq.n	8004e76 <HAL_DMA_Abort_IT+0x7e>
    {
      hdma->XferAbortCallback(hdma);
 8004e6c:	687b      	ldr	r3, [r7, #4]
 8004e6e:	6b5b      	ldr	r3, [r3, #52]	; 0x34
 8004e70:	687a      	ldr	r2, [r7, #4]
 8004e72:	0010      	movs	r0, r2
 8004e74:	4798      	blx	r3
    } 
  }
  return status;
 8004e76:	230f      	movs	r3, #15
 8004e78:	18fb      	adds	r3, r7, r3
 8004e7a:	781b      	ldrb	r3, [r3, #0]
}
 8004e7c:	0018      	movs	r0, r3
 8004e7e:	46bd      	mov	sp, r7
 8004e80:	b004      	add	sp, #16
 8004e82:	bd80      	pop	{r7, pc}

08004e84 <HAL_GPIO_Init>:
  * @param  GPIO_Init pointer to a GPIO_InitTypeDef structure that contains
  *         the configuration information for the specified GPIO peripheral.
  * @retval None
  */
void HAL_GPIO_Init(GPIO_TypeDef  *GPIOx, GPIO_InitTypeDef *GPIO_Init)
{ 
 8004e84:	b580      	push	{r7, lr}
 8004e86:	b086      	sub	sp, #24
 8004e88:	af00      	add	r7, sp, #0
 8004e8a:	6078      	str	r0, [r7, #4]
 8004e8c:	6039      	str	r1, [r7, #0]
  uint32_t position = 0x00u;
 8004e8e:	2300      	movs	r3, #0
 8004e90:	617b      	str	r3, [r7, #20]
  assert_param(IS_GPIO_PIN(GPIO_Init->Pin));
  assert_param(IS_GPIO_MODE(GPIO_Init->Mode));
  assert_param(IS_GPIO_PULL(GPIO_Init->Pull));

  /* Configure the port pins */
  while (((GPIO_Init->Pin) >> position) != 0x00u)
 8004e92:	e14f      	b.n	8005134 <HAL_GPIO_Init+0x2b0>
  {
    /* Get current io position */
    iocurrent = (GPIO_Init->Pin) & (1uL << position);
 8004e94:	683b      	ldr	r3, [r7, #0]
 8004e96:	681b      	ldr	r3, [r3, #0]
 8004e98:	2101      	movs	r1, #1
 8004e9a:	697a      	ldr	r2, [r7, #20]
 8004e9c:	4091      	lsls	r1, r2
 8004e9e:	000a      	movs	r2, r1
 8004ea0:	4013      	ands	r3, r2
 8004ea2:	60fb      	str	r3, [r7, #12]

    if (iocurrent != 0x00u)
 8004ea4:	68fb      	ldr	r3, [r7, #12]
 8004ea6:	2b00      	cmp	r3, #0
 8004ea8:	d100      	bne.n	8004eac <HAL_GPIO_Init+0x28>
 8004eaa:	e140      	b.n	800512e <HAL_GPIO_Init+0x2aa>
    {
      /*--------------------- GPIO Mode Configuration ------------------------*/
      /* In case of Alternate function mode selection */
      if((GPIO_Init->Mode == GPIO_MODE_AF_PP) || (GPIO_Init->Mode == GPIO_MODE_AF_OD))
 8004eac:	683b      	ldr	r3, [r7, #0]
 8004eae:	685b      	ldr	r3, [r3, #4]
 8004eb0:	2b02      	cmp	r3, #2
 8004eb2:	d003      	beq.n	8004ebc <HAL_GPIO_Init+0x38>
 8004eb4:	683b      	ldr	r3, [r7, #0]
 8004eb6:	685b      	ldr	r3, [r3, #4]
 8004eb8:	2b12      	cmp	r3, #18
 8004eba:	d123      	bne.n	8004f04 <HAL_GPIO_Init+0x80>
        /* Check the Alternate function parameters */
        assert_param(IS_GPIO_AF_INSTANCE(GPIOx));
        assert_param(IS_GPIO_AF(GPIO_Init->Alternate));

        /* Configure Alternate function mapped with the current IO */
        temp = GPIOx->AFR[position >> 3u];
 8004ebc:	697b      	ldr	r3, [r7, #20]
 8004ebe:	08da      	lsrs	r2, r3, #3
 8004ec0:	687b      	ldr	r3, [r7, #4]
 8004ec2:	3208      	adds	r2, #8
 8004ec4:	0092      	lsls	r2, r2, #2
 8004ec6:	58d3      	ldr	r3, [r2, r3]
 8004ec8:	613b      	str	r3, [r7, #16]
        temp &= ~(0xFu << ((position & 0x07u) * 4u));
 8004eca:	697b      	ldr	r3, [r7, #20]
 8004ecc:	2207      	movs	r2, #7
 8004ece:	4013      	ands	r3, r2
 8004ed0:	009b      	lsls	r3, r3, #2
 8004ed2:	220f      	movs	r2, #15
 8004ed4:	409a      	lsls	r2, r3
 8004ed6:	0013      	movs	r3, r2
 8004ed8:	43da      	mvns	r2, r3
 8004eda:	693b      	ldr	r3, [r7, #16]
 8004edc:	4013      	ands	r3, r2
 8004ede:	613b      	str	r3, [r7, #16]
        temp |= ((GPIO_Init->Alternate) << ((position & 0x07u) * 4u));
 8004ee0:	683b      	ldr	r3, [r7, #0]
 8004ee2:	691a      	ldr	r2, [r3, #16]
 8004ee4:	697b      	ldr	r3, [r7, #20]
 8004ee6:	2107      	movs	r1, #7
 8004ee8:	400b      	ands	r3, r1
 8004eea:	009b      	lsls	r3, r3, #2
 8004eec:	409a      	lsls	r2, r3
 8004eee:	0013      	movs	r3, r2
 8004ef0:	693a      	ldr	r2, [r7, #16]
 8004ef2:	4313      	orrs	r3, r2
 8004ef4:	613b      	str	r3, [r7, #16]
        GPIOx->AFR[position >> 3u] = temp;
 8004ef6:	697b      	ldr	r3, [r7, #20]
 8004ef8:	08da      	lsrs	r2, r3, #3
 8004efa:	687b      	ldr	r3, [r7, #4]
 8004efc:	3208      	adds	r2, #8
 8004efe:	0092      	lsls	r2, r2, #2
 8004f00:	6939      	ldr	r1, [r7, #16]
 8004f02:	50d1      	str	r1, [r2, r3]
      }

      /* Configure IO Direction mode (Input, Output, Alternate or Analog) */
      temp = GPIOx->MODER;
 8004f04:	687b      	ldr	r3, [r7, #4]
 8004f06:	681b      	ldr	r3, [r3, #0]
 8004f08:	613b      	str	r3, [r7, #16]
      temp &= ~(GPIO_MODER_MODER0 << (position * 2u));
 8004f0a:	697b      	ldr	r3, [r7, #20]
 8004f0c:	005b      	lsls	r3, r3, #1
 8004f0e:	2203      	movs	r2, #3
 8004f10:	409a      	lsls	r2, r3
 8004f12:	0013      	movs	r3, r2
 8004f14:	43da      	mvns	r2, r3
 8004f16:	693b      	ldr	r3, [r7, #16]
 8004f18:	4013      	ands	r3, r2
 8004f1a:	613b      	str	r3, [r7, #16]
      temp |= ((GPIO_Init->Mode & GPIO_MODE) << (position * 2u));
 8004f1c:	683b      	ldr	r3, [r7, #0]
 8004f1e:	685b      	ldr	r3, [r3, #4]
 8004f20:	2203      	movs	r2, #3
 8004f22:	401a      	ands	r2, r3
 8004f24:	697b      	ldr	r3, [r7, #20]
 8004f26:	005b      	lsls	r3, r3, #1
 8004f28:	409a      	lsls	r2, r3
 8004f2a:	0013      	movs	r3, r2
 8004f2c:	693a      	ldr	r2, [r7, #16]
 8004f2e:	4313      	orrs	r3, r2
 8004f30:	613b      	str	r3, [r7, #16]
      GPIOx->MODER = temp;
 8004f32:	687b      	ldr	r3, [r7, #4]
 8004f34:	693a      	ldr	r2, [r7, #16]
 8004f36:	601a      	str	r2, [r3, #0]

      /* In case of Output or Alternate function mode selection */
      if((GPIO_Init->Mode == GPIO_MODE_OUTPUT_PP) || (GPIO_Init->Mode == GPIO_MODE_AF_PP) ||
 8004f38:	683b      	ldr	r3, [r7, #0]
 8004f3a:	685b      	ldr	r3, [r3, #4]
 8004f3c:	2b01      	cmp	r3, #1
 8004f3e:	d00b      	beq.n	8004f58 <HAL_GPIO_Init+0xd4>
 8004f40:	683b      	ldr	r3, [r7, #0]
 8004f42:	685b      	ldr	r3, [r3, #4]
 8004f44:	2b02      	cmp	r3, #2
 8004f46:	d007      	beq.n	8004f58 <HAL_GPIO_Init+0xd4>
         (GPIO_Init->Mode == GPIO_MODE_OUTPUT_OD) || (GPIO_Init->Mode == GPIO_MODE_AF_OD))
 8004f48:	683b      	ldr	r3, [r7, #0]
 8004f4a:	685b      	ldr	r3, [r3, #4]
      if((GPIO_Init->Mode == GPIO_MODE_OUTPUT_PP) || (GPIO_Init->Mode == GPIO_MODE_AF_PP) ||
 8004f4c:	2b11      	cmp	r3, #17
 8004f4e:	d003      	beq.n	8004f58 <HAL_GPIO_Init+0xd4>
         (GPIO_Init->Mode == GPIO_MODE_OUTPUT_OD) || (GPIO_Init->Mode == GPIO_MODE_AF_OD))
 8004f50:	683b      	ldr	r3, [r7, #0]
 8004f52:	685b      	ldr	r3, [r3, #4]
 8004f54:	2b12      	cmp	r3, #18
 8004f56:	d130      	bne.n	8004fba <HAL_GPIO_Init+0x136>
      {
        /* Check the Speed parameter */
        assert_param(IS_GPIO_SPEED(GPIO_Init->Speed));
        /* Configure the IO Speed */
        temp = GPIOx->OSPEEDR;
 8004f58:	687b      	ldr	r3, [r7, #4]
 8004f5a:	689b      	ldr	r3, [r3, #8]
 8004f5c:	613b      	str	r3, [r7, #16]
        temp &= ~(GPIO_OSPEEDER_OSPEEDR0 << (position * 2u));
 8004f5e:	697b      	ldr	r3, [r7, #20]
 8004f60:	005b      	lsls	r3, r3, #1
 8004f62:	2203      	movs	r2, #3
 8004f64:	409a      	lsls	r2, r3
 8004f66:	0013      	movs	r3, r2
 8004f68:	43da      	mvns	r2, r3
 8004f6a:	693b      	ldr	r3, [r7, #16]
 8004f6c:	4013      	ands	r3, r2
 8004f6e:	613b      	str	r3, [r7, #16]
        temp |= (GPIO_Init->Speed << (position * 2u));
 8004f70:	683b      	ldr	r3, [r7, #0]
 8004f72:	68da      	ldr	r2, [r3, #12]
 8004f74:	697b      	ldr	r3, [r7, #20]
 8004f76:	005b      	lsls	r3, r3, #1
 8004f78:	409a      	lsls	r2, r3
 8004f7a:	0013      	movs	r3, r2
 8004f7c:	693a      	ldr	r2, [r7, #16]
 8004f7e:	4313      	orrs	r3, r2
 8004f80:	613b      	str	r3, [r7, #16]
        GPIOx->OSPEEDR = temp;
 8004f82:	687b      	ldr	r3, [r7, #4]
 8004f84:	693a      	ldr	r2, [r7, #16]
 8004f86:	609a      	str	r2, [r3, #8]

        /* Configure the IO Output Type */
        temp = GPIOx->OTYPER;
 8004f88:	687b      	ldr	r3, [r7, #4]
 8004f8a:	685b      	ldr	r3, [r3, #4]
 8004f8c:	613b      	str	r3, [r7, #16]
        temp &= ~(GPIO_OTYPER_OT_0 << position) ;
 8004f8e:	2201      	movs	r2, #1
 8004f90:	697b      	ldr	r3, [r7, #20]
 8004f92:	409a      	lsls	r2, r3
 8004f94:	0013      	movs	r3, r2
 8004f96:	43da      	mvns	r2, r3
 8004f98:	693b      	ldr	r3, [r7, #16]
 8004f9a:	4013      	ands	r3, r2
 8004f9c:	613b      	str	r3, [r7, #16]
        temp |= (((GPIO_Init->Mode & GPIO_OUTPUT_TYPE) >> 4u) << position);
 8004f9e:	683b      	ldr	r3, [r7, #0]
 8004fa0:	685b      	ldr	r3, [r3, #4]
 8004fa2:	091b      	lsrs	r3, r3, #4
 8004fa4:	2201      	movs	r2, #1
 8004fa6:	401a      	ands	r2, r3
 8004fa8:	697b      	ldr	r3, [r7, #20]
 8004faa:	409a      	lsls	r2, r3
 8004fac:	0013      	movs	r3, r2
 8004fae:	693a      	ldr	r2, [r7, #16]
 8004fb0:	4313      	orrs	r3, r2
 8004fb2:	613b      	str	r3, [r7, #16]
        GPIOx->OTYPER = temp;
 8004fb4:	687b      	ldr	r3, [r7, #4]
 8004fb6:	693a      	ldr	r2, [r7, #16]
 8004fb8:	605a      	str	r2, [r3, #4]
      }

      /* Activate the Pull-up or Pull down resistor for the current IO */
      temp = GPIOx->PUPDR;
 8004fba:	687b      	ldr	r3, [r7, #4]
 8004fbc:	68db      	ldr	r3, [r3, #12]
 8004fbe:	613b      	str	r3, [r7, #16]
      temp &= ~(GPIO_PUPDR_PUPDR0 << (position * 2u));
 8004fc0:	697b      	ldr	r3, [r7, #20]
 8004fc2:	005b      	lsls	r3, r3, #1
 8004fc4:	2203      	movs	r2, #3
 8004fc6:	409a      	lsls	r2, r3
 8004fc8:	0013      	movs	r3, r2
 8004fca:	43da      	mvns	r2, r3
 8004fcc:	693b      	ldr	r3, [r7, #16]
 8004fce:	4013      	ands	r3, r2
 8004fd0:	613b      	str	r3, [r7, #16]
      temp |= ((GPIO_Init->Pull) << (position * 2u));
 8004fd2:	683b      	ldr	r3, [r7, #0]
 8004fd4:	689a      	ldr	r2, [r3, #8]
 8004fd6:	697b      	ldr	r3, [r7, #20]
 8004fd8:	005b      	lsls	r3, r3, #1
 8004fda:	409a      	lsls	r2, r3
 8004fdc:	0013      	movs	r3, r2
 8004fde:	693a      	ldr	r2, [r7, #16]
 8004fe0:	4313      	orrs	r3, r2
 8004fe2:	613b      	str	r3, [r7, #16]
      GPIOx->PUPDR = temp;
 8004fe4:	687b      	ldr	r3, [r7, #4]
 8004fe6:	693a      	ldr	r2, [r7, #16]
 8004fe8:	60da      	str	r2, [r3, #12]

      /*--------------------- EXTI Mode Configuration ------------------------*/
      /* Configure the External Interrupt or event for the current IO */
      if((GPIO_Init->Mode & EXTI_MODE) == EXTI_MODE)
 8004fea:	683b      	ldr	r3, [r7, #0]
 8004fec:	685a      	ldr	r2, [r3, #4]
 8004fee:	2380      	movs	r3, #128	; 0x80
 8004ff0:	055b      	lsls	r3, r3, #21
 8004ff2:	4013      	ands	r3, r2
 8004ff4:	d100      	bne.n	8004ff8 <HAL_GPIO_Init+0x174>
 8004ff6:	e09a      	b.n	800512e <HAL_GPIO_Init+0x2aa>
      {
        /* Enable SYSCFG Clock */
        __HAL_RCC_SYSCFG_CLK_ENABLE();
 8004ff8:	4b54      	ldr	r3, [pc, #336]	; (800514c <HAL_GPIO_Init+0x2c8>)
 8004ffa:	699a      	ldr	r2, [r3, #24]
 8004ffc:	4b53      	ldr	r3, [pc, #332]	; (800514c <HAL_GPIO_Init+0x2c8>)
 8004ffe:	2101      	movs	r1, #1
 8005000:	430a      	orrs	r2, r1
 8005002:	619a      	str	r2, [r3, #24]
 8005004:	4b51      	ldr	r3, [pc, #324]	; (800514c <HAL_GPIO_Init+0x2c8>)
 8005006:	699b      	ldr	r3, [r3, #24]
 8005008:	2201      	movs	r2, #1
 800500a:	4013      	ands	r3, r2
 800500c:	60bb      	str	r3, [r7, #8]
 800500e:	68bb      	ldr	r3, [r7, #8]

        temp = SYSCFG->EXTICR[position >> 2u];
 8005010:	4a4f      	ldr	r2, [pc, #316]	; (8005150 <HAL_GPIO_Init+0x2cc>)
 8005012:	697b      	ldr	r3, [r7, #20]
 8005014:	089b      	lsrs	r3, r3, #2
 8005016:	3302      	adds	r3, #2
 8005018:	009b      	lsls	r3, r3, #2
 800501a:	589b      	ldr	r3, [r3, r2]
 800501c:	613b      	str	r3, [r7, #16]
        temp &= ~(0x0FuL << (4u * (position & 0x03u)));
 800501e:	697b      	ldr	r3, [r7, #20]
 8005020:	2203      	movs	r2, #3
 8005022:	4013      	ands	r3, r2
 8005024:	009b      	lsls	r3, r3, #2
 8005026:	220f      	movs	r2, #15
 8005028:	409a      	lsls	r2, r3
 800502a:	0013      	movs	r3, r2
 800502c:	43da      	mvns	r2, r3
 800502e:	693b      	ldr	r3, [r7, #16]
 8005030:	4013      	ands	r3, r2
 8005032:	613b      	str	r3, [r7, #16]
        temp |= (GPIO_GET_INDEX(GPIOx) << (4u * (position & 0x03u)));
 8005034:	687a      	ldr	r2, [r7, #4]
 8005036:	2390      	movs	r3, #144	; 0x90
 8005038:	05db      	lsls	r3, r3, #23
 800503a:	429a      	cmp	r2, r3
 800503c:	d013      	beq.n	8005066 <HAL_GPIO_Init+0x1e2>
 800503e:	687b      	ldr	r3, [r7, #4]
 8005040:	4a44      	ldr	r2, [pc, #272]	; (8005154 <HAL_GPIO_Init+0x2d0>)
 8005042:	4293      	cmp	r3, r2
 8005044:	d00d      	beq.n	8005062 <HAL_GPIO_Init+0x1de>
 8005046:	687b      	ldr	r3, [r7, #4]
 8005048:	4a43      	ldr	r2, [pc, #268]	; (8005158 <HAL_GPIO_Init+0x2d4>)
 800504a:	4293      	cmp	r3, r2
 800504c:	d007      	beq.n	800505e <HAL_GPIO_Init+0x1da>
 800504e:	687b      	ldr	r3, [r7, #4]
 8005050:	4a42      	ldr	r2, [pc, #264]	; (800515c <HAL_GPIO_Init+0x2d8>)
 8005052:	4293      	cmp	r3, r2
 8005054:	d101      	bne.n	800505a <HAL_GPIO_Init+0x1d6>
 8005056:	2303      	movs	r3, #3
 8005058:	e006      	b.n	8005068 <HAL_GPIO_Init+0x1e4>
 800505a:	2305      	movs	r3, #5
 800505c:	e004      	b.n	8005068 <HAL_GPIO_Init+0x1e4>
 800505e:	2302      	movs	r3, #2
 8005060:	e002      	b.n	8005068 <HAL_GPIO_Init+0x1e4>
 8005062:	2301      	movs	r3, #1
 8005064:	e000      	b.n	8005068 <HAL_GPIO_Init+0x1e4>
 8005066:	2300      	movs	r3, #0
 8005068:	697a      	ldr	r2, [r7, #20]
 800506a:	2103      	movs	r1, #3
 800506c:	400a      	ands	r2, r1
 800506e:	0092      	lsls	r2, r2, #2
 8005070:	4093      	lsls	r3, r2
 8005072:	693a      	ldr	r2, [r7, #16]
 8005074:	4313      	orrs	r3, r2
 8005076:	613b      	str	r3, [r7, #16]
        SYSCFG->EXTICR[position >> 2u] = temp;
 8005078:	4935      	ldr	r1, [pc, #212]	; (8005150 <HAL_GPIO_Init+0x2cc>)
 800507a:	697b      	ldr	r3, [r7, #20]
 800507c:	089b      	lsrs	r3, r3, #2
 800507e:	3302      	adds	r3, #2
 8005080:	009b      	lsls	r3, r3, #2
 8005082:	693a      	ldr	r2, [r7, #16]
 8005084:	505a      	str	r2, [r3, r1]

        /* Clear EXTI line configuration */
        temp = EXTI->IMR;
 8005086:	4b36      	ldr	r3, [pc, #216]	; (8005160 <HAL_GPIO_Init+0x2dc>)
 8005088:	681b      	ldr	r3, [r3, #0]
 800508a:	613b      	str	r3, [r7, #16]
        temp &= ~(iocurrent);
 800508c:	68fb      	ldr	r3, [r7, #12]
 800508e:	43da      	mvns	r2, r3
 8005090:	693b      	ldr	r3, [r7, #16]
 8005092:	4013      	ands	r3, r2
 8005094:	613b      	str	r3, [r7, #16]
        if((GPIO_Init->Mode & GPIO_MODE_IT) == GPIO_MODE_IT)
 8005096:	683b      	ldr	r3, [r7, #0]
 8005098:	685a      	ldr	r2, [r3, #4]
 800509a:	2380      	movs	r3, #128	; 0x80
 800509c:	025b      	lsls	r3, r3, #9
 800509e:	4013      	ands	r3, r2
 80050a0:	d003      	beq.n	80050aa <HAL_GPIO_Init+0x226>
        {
          temp |= iocurrent;
 80050a2:	693a      	ldr	r2, [r7, #16]
 80050a4:	68fb      	ldr	r3, [r7, #12]
 80050a6:	4313      	orrs	r3, r2
 80050a8:	613b      	str	r3, [r7, #16]
        }
        EXTI->IMR = temp;
 80050aa:	4b2d      	ldr	r3, [pc, #180]	; (8005160 <HAL_GPIO_Init+0x2dc>)
 80050ac:	693a      	ldr	r2, [r7, #16]
 80050ae:	601a      	str	r2, [r3, #0]

        temp = EXTI->EMR;
 80050b0:	4b2b      	ldr	r3, [pc, #172]	; (8005160 <HAL_GPIO_Init+0x2dc>)
 80050b2:	685b      	ldr	r3, [r3, #4]
 80050b4:	613b      	str	r3, [r7, #16]
        temp &= ~(iocurrent);
 80050b6:	68fb      	ldr	r3, [r7, #12]
 80050b8:	43da      	mvns	r2, r3
 80050ba:	693b      	ldr	r3, [r7, #16]
 80050bc:	4013      	ands	r3, r2
 80050be:	613b      	str	r3, [r7, #16]
        if((GPIO_Init->Mode & GPIO_MODE_EVT) == GPIO_MODE_EVT)
 80050c0:	683b      	ldr	r3, [r7, #0]
 80050c2:	685a      	ldr	r2, [r3, #4]
 80050c4:	2380      	movs	r3, #128	; 0x80
 80050c6:	029b      	lsls	r3, r3, #10
 80050c8:	4013      	ands	r3, r2
 80050ca:	d003      	beq.n	80050d4 <HAL_GPIO_Init+0x250>
        {
          temp |= iocurrent;
 80050cc:	693a      	ldr	r2, [r7, #16]
 80050ce:	68fb      	ldr	r3, [r7, #12]
 80050d0:	4313      	orrs	r3, r2
 80050d2:	613b      	str	r3, [r7, #16]
        }
        EXTI->EMR = temp;
 80050d4:	4b22      	ldr	r3, [pc, #136]	; (8005160 <HAL_GPIO_Init+0x2dc>)
 80050d6:	693a      	ldr	r2, [r7, #16]
 80050d8:	605a      	str	r2, [r3, #4]

        /* Clear Rising Falling edge configuration */
        temp = EXTI->RTSR;
 80050da:	4b21      	ldr	r3, [pc, #132]	; (8005160 <HAL_GPIO_Init+0x2dc>)
 80050dc:	689b      	ldr	r3, [r3, #8]
 80050de:	613b      	str	r3, [r7, #16]
        temp &= ~(iocurrent);
 80050e0:	68fb      	ldr	r3, [r7, #12]
 80050e2:	43da      	mvns	r2, r3
 80050e4:	693b      	ldr	r3, [r7, #16]
 80050e6:	4013      	ands	r3, r2
 80050e8:	613b      	str	r3, [r7, #16]
        if((GPIO_Init->Mode & RISING_EDGE) == RISING_EDGE)
 80050ea:	683b      	ldr	r3, [r7, #0]
 80050ec:	685a      	ldr	r2, [r3, #4]
 80050ee:	2380      	movs	r3, #128	; 0x80
 80050f0:	035b      	lsls	r3, r3, #13
 80050f2:	4013      	ands	r3, r2
 80050f4:	d003      	beq.n	80050fe <HAL_GPIO_Init+0x27a>
        {
          temp |= iocurrent;
 80050f6:	693a      	ldr	r2, [r7, #16]
 80050f8:	68fb      	ldr	r3, [r7, #12]
 80050fa:	4313      	orrs	r3, r2
 80050fc:	613b      	str	r3, [r7, #16]
        }
        EXTI->RTSR = temp;
 80050fe:	4b18      	ldr	r3, [pc, #96]	; (8005160 <HAL_GPIO_Init+0x2dc>)
 8005100:	693a      	ldr	r2, [r7, #16]
 8005102:	609a      	str	r2, [r3, #8]

        temp = EXTI->FTSR;
 8005104:	4b16      	ldr	r3, [pc, #88]	; (8005160 <HAL_GPIO_Init+0x2dc>)
 8005106:	68db      	ldr	r3, [r3, #12]
 8005108:	613b      	str	r3, [r7, #16]
        temp &= ~(iocurrent);
 800510a:	68fb      	ldr	r3, [r7, #12]
 800510c:	43da      	mvns	r2, r3
 800510e:	693b      	ldr	r3, [r7, #16]
 8005110:	4013      	ands	r3, r2
 8005112:	613b      	str	r3, [r7, #16]
        if((GPIO_Init->Mode & FALLING_EDGE) == FALLING_EDGE)
 8005114:	683b      	ldr	r3, [r7, #0]
 8005116:	685a      	ldr	r2, [r3, #4]
 8005118:	2380      	movs	r3, #128	; 0x80
 800511a:	039b      	lsls	r3, r3, #14
 800511c:	4013      	ands	r3, r2
 800511e:	d003      	beq.n	8005128 <HAL_GPIO_Init+0x2a4>
        {
          temp |= iocurrent;
 8005120:	693a      	ldr	r2, [r7, #16]
 8005122:	68fb      	ldr	r3, [r7, #12]
 8005124:	4313      	orrs	r3, r2
 8005126:	613b      	str	r3, [r7, #16]
        }
        EXTI->FTSR = temp;
 8005128:	4b0d      	ldr	r3, [pc, #52]	; (8005160 <HAL_GPIO_Init+0x2dc>)
 800512a:	693a      	ldr	r2, [r7, #16]
 800512c:	60da      	str	r2, [r3, #12]
      }
    }

    position++;
 800512e:	697b      	ldr	r3, [r7, #20]
 8005130:	3301      	adds	r3, #1
 8005132:	617b      	str	r3, [r7, #20]
  while (((GPIO_Init->Pin) >> position) != 0x00u)
 8005134:	683b      	ldr	r3, [r7, #0]
 8005136:	681a      	ldr	r2, [r3, #0]
 8005138:	697b      	ldr	r3, [r7, #20]
 800513a:	40da      	lsrs	r2, r3
 800513c:	1e13      	subs	r3, r2, #0
 800513e:	d000      	beq.n	8005142 <HAL_GPIO_Init+0x2be>
 8005140:	e6a8      	b.n	8004e94 <HAL_GPIO_Init+0x10>
  } 
}
 8005142:	46c0      	nop			; (mov r8, r8)
 8005144:	46bd      	mov	sp, r7
 8005146:	b006      	add	sp, #24
 8005148:	bd80      	pop	{r7, pc}
 800514a:	46c0      	nop			; (mov r8, r8)
 800514c:	40021000 	.word	0x40021000
 8005150:	40010000 	.word	0x40010000
 8005154:	48000400 	.word	0x48000400
 8005158:	48000800 	.word	0x48000800
 800515c:	48000c00 	.word	0x48000c00
 8005160:	40010400 	.word	0x40010400

08005164 <HAL_GPIO_ReadPin>:
  * @param  GPIO_Pin specifies the port bit to read.
  *         This parameter can be GPIO_PIN_x where x can be (0..15).
  * @retval The input port pin value.
  */
GPIO_PinState HAL_GPIO_ReadPin(GPIO_TypeDef* GPIOx, uint16_t GPIO_Pin)
{
 8005164:	b580      	push	{r7, lr}
 8005166:	b084      	sub	sp, #16
 8005168:	af00      	add	r7, sp, #0
 800516a:	6078      	str	r0, [r7, #4]
 800516c:	000a      	movs	r2, r1
 800516e:	1cbb      	adds	r3, r7, #2
 8005170:	801a      	strh	r2, [r3, #0]
  GPIO_PinState bitstatus;

  /* Check the parameters */
  assert_param(IS_GPIO_PIN(GPIO_Pin));

  if ((GPIOx->IDR & GPIO_Pin) != (uint32_t)GPIO_PIN_RESET)
 8005172:	687b      	ldr	r3, [r7, #4]
 8005174:	691b      	ldr	r3, [r3, #16]
 8005176:	1cba      	adds	r2, r7, #2
 8005178:	8812      	ldrh	r2, [r2, #0]
 800517a:	4013      	ands	r3, r2
 800517c:	d004      	beq.n	8005188 <HAL_GPIO_ReadPin+0x24>
  {
    bitstatus = GPIO_PIN_SET;
 800517e:	230f      	movs	r3, #15
 8005180:	18fb      	adds	r3, r7, r3
 8005182:	2201      	movs	r2, #1
 8005184:	701a      	strb	r2, [r3, #0]
 8005186:	e003      	b.n	8005190 <HAL_GPIO_ReadPin+0x2c>
  }
  else
  {
    bitstatus = GPIO_PIN_RESET;
 8005188:	230f      	movs	r3, #15
 800518a:	18fb      	adds	r3, r7, r3
 800518c:	2200      	movs	r2, #0
 800518e:	701a      	strb	r2, [r3, #0]
  }
  return bitstatus;
 8005190:	230f      	movs	r3, #15
 8005192:	18fb      	adds	r3, r7, r3
 8005194:	781b      	ldrb	r3, [r3, #0]
  }
 8005196:	0018      	movs	r0, r3
 8005198:	46bd      	mov	sp, r7
 800519a:	b004      	add	sp, #16
 800519c:	bd80      	pop	{r7, pc}

0800519e <HAL_GPIO_WritePin>:
  *            @arg GPIO_PIN_RESET: to clear the port pin
  *            @arg GPIO_PIN_SET: to set the port pin
  * @retval None
  */
void HAL_GPIO_WritePin(GPIO_TypeDef* GPIOx, uint16_t GPIO_Pin, GPIO_PinState PinState)
{
 800519e:	b580      	push	{r7, lr}
 80051a0:	b082      	sub	sp, #8
 80051a2:	af00      	add	r7, sp, #0
 80051a4:	6078      	str	r0, [r7, #4]
 80051a6:	0008      	movs	r0, r1
 80051a8:	0011      	movs	r1, r2
 80051aa:	1cbb      	adds	r3, r7, #2
 80051ac:	1c02      	adds	r2, r0, #0
 80051ae:	801a      	strh	r2, [r3, #0]
 80051b0:	1c7b      	adds	r3, r7, #1
 80051b2:	1c0a      	adds	r2, r1, #0
 80051b4:	701a      	strb	r2, [r3, #0]
  /* Check the parameters */
  assert_param(IS_GPIO_PIN(GPIO_Pin));
  assert_param(IS_GPIO_PIN_ACTION(PinState));

  if (PinState != GPIO_PIN_RESET)
 80051b6:	1c7b      	adds	r3, r7, #1
 80051b8:	781b      	ldrb	r3, [r3, #0]
 80051ba:	2b00      	cmp	r3, #0
 80051bc:	d004      	beq.n	80051c8 <HAL_GPIO_WritePin+0x2a>
  {
    GPIOx->BSRR = (uint32_t)GPIO_Pin;
 80051be:	1cbb      	adds	r3, r7, #2
 80051c0:	881a      	ldrh	r2, [r3, #0]
 80051c2:	687b      	ldr	r3, [r7, #4]
 80051c4:	619a      	str	r2, [r3, #24]
  }
  else
  {
    GPIOx->BRR = (uint32_t)GPIO_Pin;
  }
}
 80051c6:	e003      	b.n	80051d0 <HAL_GPIO_WritePin+0x32>
    GPIOx->BRR = (uint32_t)GPIO_Pin;
 80051c8:	1cbb      	adds	r3, r7, #2
 80051ca:	881a      	ldrh	r2, [r3, #0]
 80051cc:	687b      	ldr	r3, [r7, #4]
 80051ce:	629a      	str	r2, [r3, #40]	; 0x28
}
 80051d0:	46c0      	nop			; (mov r8, r8)
 80051d2:	46bd      	mov	sp, r7
 80051d4:	b002      	add	sp, #8
 80051d6:	bd80      	pop	{r7, pc}

080051d8 <HAL_I2C_Init>:
  * @param  hi2c Pointer to a I2C_HandleTypeDef structure that contains
  *                the configuration information for the specified I2C.
  * @retval HAL status
  */
HAL_StatusTypeDef HAL_I2C_Init(I2C_HandleTypeDef *hi2c)
{
 80051d8:	b580      	push	{r7, lr}
 80051da:	b082      	sub	sp, #8
 80051dc:	af00      	add	r7, sp, #0
 80051de:	6078      	str	r0, [r7, #4]
  /* Check the I2C handle allocation */
  if (hi2c == NULL)
 80051e0:	687b      	ldr	r3, [r7, #4]
 80051e2:	2b00      	cmp	r3, #0
 80051e4:	d101      	bne.n	80051ea <HAL_I2C_Init+0x12>
  {
    return HAL_ERROR;
 80051e6:	2301      	movs	r3, #1
 80051e8:	e082      	b.n	80052f0 <HAL_I2C_Init+0x118>
  assert_param(IS_I2C_OWN_ADDRESS2(hi2c->Init.OwnAddress2));
  assert_param(IS_I2C_OWN_ADDRESS2_MASK(hi2c->Init.OwnAddress2Masks));
  assert_param(IS_I2C_GENERAL_CALL(hi2c->Init.GeneralCallMode));
  assert_param(IS_I2C_NO_STRETCH(hi2c->Init.NoStretchMode));

  if (hi2c->State == HAL_I2C_STATE_RESET)
 80051ea:	687b      	ldr	r3, [r7, #4]
 80051ec:	2241      	movs	r2, #65	; 0x41
 80051ee:	5c9b      	ldrb	r3, [r3, r2]
 80051f0:	b2db      	uxtb	r3, r3
 80051f2:	2b00      	cmp	r3, #0
 80051f4:	d107      	bne.n	8005206 <HAL_I2C_Init+0x2e>
  {
    /* Allocate lock resource and initialize it */
    hi2c->Lock = HAL_UNLOCKED;
 80051f6:	687b      	ldr	r3, [r7, #4]
 80051f8:	2240      	movs	r2, #64	; 0x40
 80051fa:	2100      	movs	r1, #0
 80051fc:	5499      	strb	r1, [r3, r2]

    /* Init the low level hardware : GPIO, CLOCK, CORTEX...etc */
    hi2c->MspInitCallback(hi2c);
#else
    /* Init the low level hardware : GPIO, CLOCK, CORTEX...etc */
    HAL_I2C_MspInit(hi2c);
 80051fe:	687b      	ldr	r3, [r7, #4]
 8005200:	0018      	movs	r0, r3
 8005202:	f7fb fb7f 	bl	8000904 <HAL_I2C_MspInit>
#endif /* USE_HAL_I2C_REGISTER_CALLBACKS */
  }

  hi2c->State = HAL_I2C_STATE_BUSY;
 8005206:	687b      	ldr	r3, [r7, #4]
 8005208:	2241      	movs	r2, #65	; 0x41
 800520a:	2124      	movs	r1, #36	; 0x24
 800520c:	5499      	strb	r1, [r3, r2]

  /* Disable the selected I2C peripheral */
  __HAL_I2C_DISABLE(hi2c);
 800520e:	687b      	ldr	r3, [r7, #4]
 8005210:	681b      	ldr	r3, [r3, #0]
 8005212:	681a      	ldr	r2, [r3, #0]
 8005214:	687b      	ldr	r3, [r7, #4]
 8005216:	681b      	ldr	r3, [r3, #0]
 8005218:	2101      	movs	r1, #1
 800521a:	438a      	bics	r2, r1
 800521c:	601a      	str	r2, [r3, #0]

  /*---------------------------- I2Cx TIMINGR Configuration ------------------*/
  /* Configure I2Cx: Frequency range */
  hi2c->Instance->TIMINGR = hi2c->Init.Timing & TIMING_CLEAR_MASK;
 800521e:	687b      	ldr	r3, [r7, #4]
 8005220:	685a      	ldr	r2, [r3, #4]
 8005222:	687b      	ldr	r3, [r7, #4]
 8005224:	681b      	ldr	r3, [r3, #0]
 8005226:	4934      	ldr	r1, [pc, #208]	; (80052f8 <HAL_I2C_Init+0x120>)
 8005228:	400a      	ands	r2, r1
 800522a:	611a      	str	r2, [r3, #16]

  /*---------------------------- I2Cx OAR1 Configuration ---------------------*/
  /* Disable Own Address1 before set the Own Address1 configuration */
  hi2c->Instance->OAR1 &= ~I2C_OAR1_OA1EN;
 800522c:	687b      	ldr	r3, [r7, #4]
 800522e:	681b      	ldr	r3, [r3, #0]
 8005230:	689a      	ldr	r2, [r3, #8]
 8005232:	687b      	ldr	r3, [r7, #4]
 8005234:	681b      	ldr	r3, [r3, #0]
 8005236:	4931      	ldr	r1, [pc, #196]	; (80052fc <HAL_I2C_Init+0x124>)
 8005238:	400a      	ands	r2, r1
 800523a:	609a      	str	r2, [r3, #8]

  /* Configure I2Cx: Own Address1 and ack own address1 mode */
  if (hi2c->Init.AddressingMode == I2C_ADDRESSINGMODE_7BIT)
 800523c:	687b      	ldr	r3, [r7, #4]
 800523e:	68db      	ldr	r3, [r3, #12]
 8005240:	2b01      	cmp	r3, #1
 8005242:	d108      	bne.n	8005256 <HAL_I2C_Init+0x7e>
  {
    hi2c->Instance->OAR1 = (I2C_OAR1_OA1EN | hi2c->Init.OwnAddress1);
 8005244:	687b      	ldr	r3, [r7, #4]
 8005246:	689a      	ldr	r2, [r3, #8]
 8005248:	687b      	ldr	r3, [r7, #4]
 800524a:	681b      	ldr	r3, [r3, #0]
 800524c:	2180      	movs	r1, #128	; 0x80
 800524e:	0209      	lsls	r1, r1, #8
 8005250:	430a      	orrs	r2, r1
 8005252:	609a      	str	r2, [r3, #8]
 8005254:	e007      	b.n	8005266 <HAL_I2C_Init+0x8e>
  }
  else /* I2C_ADDRESSINGMODE_10BIT */
  {
    hi2c->Instance->OAR1 = (I2C_OAR1_OA1EN | I2C_OAR1_OA1MODE | hi2c->Init.OwnAddress1);
 8005256:	687b      	ldr	r3, [r7, #4]
 8005258:	689a      	ldr	r2, [r3, #8]
 800525a:	687b      	ldr	r3, [r7, #4]
 800525c:	681b      	ldr	r3, [r3, #0]
 800525e:	2184      	movs	r1, #132	; 0x84
 8005260:	0209      	lsls	r1, r1, #8
 8005262:	430a      	orrs	r2, r1
 8005264:	609a      	str	r2, [r3, #8]
  }

  /*---------------------------- I2Cx CR2 Configuration ----------------------*/
  /* Configure I2Cx: Addressing Master mode */
  if (hi2c->Init.AddressingMode == I2C_ADDRESSINGMODE_10BIT)
 8005266:	687b      	ldr	r3, [r7, #4]
 8005268:	68db      	ldr	r3, [r3, #12]
 800526a:	2b02      	cmp	r3, #2
 800526c:	d104      	bne.n	8005278 <HAL_I2C_Init+0xa0>
  {
    hi2c->Instance->CR2 = (I2C_CR2_ADD10);
 800526e:	687b      	ldr	r3, [r7, #4]
 8005270:	681b      	ldr	r3, [r3, #0]
 8005272:	2280      	movs	r2, #128	; 0x80
 8005274:	0112      	lsls	r2, r2, #4
 8005276:	605a      	str	r2, [r3, #4]
  }
  /* Enable the AUTOEND by default, and enable NACK (should be disable only during Slave process */
  hi2c->Instance->CR2 |= (I2C_CR2_AUTOEND | I2C_CR2_NACK);
 8005278:	687b      	ldr	r3, [r7, #4]
 800527a:	681b      	ldr	r3, [r3, #0]
 800527c:	685a      	ldr	r2, [r3, #4]
 800527e:	687b      	ldr	r3, [r7, #4]
 8005280:	681b      	ldr	r3, [r3, #0]
 8005282:	491f      	ldr	r1, [pc, #124]	; (8005300 <HAL_I2C_Init+0x128>)
 8005284:	430a      	orrs	r2, r1
 8005286:	605a      	str	r2, [r3, #4]

  /*---------------------------- I2Cx OAR2 Configuration ---------------------*/
  /* Disable Own Address2 before set the Own Address2 configuration */
  hi2c->Instance->OAR2 &= ~I2C_DUALADDRESS_ENABLE;
 8005288:	687b      	ldr	r3, [r7, #4]
 800528a:	681b      	ldr	r3, [r3, #0]
 800528c:	68da      	ldr	r2, [r3, #12]
 800528e:	687b      	ldr	r3, [r7, #4]
 8005290:	681b      	ldr	r3, [r3, #0]
 8005292:	491a      	ldr	r1, [pc, #104]	; (80052fc <HAL_I2C_Init+0x124>)
 8005294:	400a      	ands	r2, r1
 8005296:	60da      	str	r2, [r3, #12]

  /* Configure I2Cx: Dual mode and Own Address2 */
  hi2c->Instance->OAR2 = (hi2c->Init.DualAddressMode | hi2c->Init.OwnAddress2 | (hi2c->Init.OwnAddress2Masks << 8));
 8005298:	687b      	ldr	r3, [r7, #4]
 800529a:	691a      	ldr	r2, [r3, #16]
 800529c:	687b      	ldr	r3, [r7, #4]
 800529e:	695b      	ldr	r3, [r3, #20]
 80052a0:	431a      	orrs	r2, r3
 80052a2:	0011      	movs	r1, r2
 80052a4:	687b      	ldr	r3, [r7, #4]
 80052a6:	699b      	ldr	r3, [r3, #24]
 80052a8:	021a      	lsls	r2, r3, #8
 80052aa:	687b      	ldr	r3, [r7, #4]
 80052ac:	681b      	ldr	r3, [r3, #0]
 80052ae:	430a      	orrs	r2, r1
 80052b0:	60da      	str	r2, [r3, #12]

  /*---------------------------- I2Cx CR1 Configuration ----------------------*/
  /* Configure I2Cx: Generalcall and NoStretch mode */
  hi2c->Instance->CR1 = (hi2c->Init.GeneralCallMode | hi2c->Init.NoStretchMode);
 80052b2:	687b      	ldr	r3, [r7, #4]
 80052b4:	69d9      	ldr	r1, [r3, #28]
 80052b6:	687b      	ldr	r3, [r7, #4]
 80052b8:	6a1a      	ldr	r2, [r3, #32]
 80052ba:	687b      	ldr	r3, [r7, #4]
 80052bc:	681b      	ldr	r3, [r3, #0]
 80052be:	430a      	orrs	r2, r1
 80052c0:	601a      	str	r2, [r3, #0]

  /* Enable the selected I2C peripheral */
  __HAL_I2C_ENABLE(hi2c);
 80052c2:	687b      	ldr	r3, [r7, #4]
 80052c4:	681b      	ldr	r3, [r3, #0]
 80052c6:	681a      	ldr	r2, [r3, #0]
 80052c8:	687b      	ldr	r3, [r7, #4]
 80052ca:	681b      	ldr	r3, [r3, #0]
 80052cc:	2101      	movs	r1, #1
 80052ce:	430a      	orrs	r2, r1
 80052d0:	601a      	str	r2, [r3, #0]

  hi2c->ErrorCode = HAL_I2C_ERROR_NONE;
 80052d2:	687b      	ldr	r3, [r7, #4]
 80052d4:	2200      	movs	r2, #0
 80052d6:	645a      	str	r2, [r3, #68]	; 0x44
  hi2c->State = HAL_I2C_STATE_READY;
 80052d8:	687b      	ldr	r3, [r7, #4]
 80052da:	2241      	movs	r2, #65	; 0x41
 80052dc:	2120      	movs	r1, #32
 80052de:	5499      	strb	r1, [r3, r2]
  hi2c->PreviousState = I2C_STATE_NONE;
 80052e0:	687b      	ldr	r3, [r7, #4]
 80052e2:	2200      	movs	r2, #0
 80052e4:	631a      	str	r2, [r3, #48]	; 0x30
  hi2c->Mode = HAL_I2C_MODE_NONE;
 80052e6:	687b      	ldr	r3, [r7, #4]
 80052e8:	2242      	movs	r2, #66	; 0x42
 80052ea:	2100      	movs	r1, #0
 80052ec:	5499      	strb	r1, [r3, r2]

  return HAL_OK;
 80052ee:	2300      	movs	r3, #0
}
 80052f0:	0018      	movs	r0, r3
 80052f2:	46bd      	mov	sp, r7
 80052f4:	b002      	add	sp, #8
 80052f6:	bd80      	pop	{r7, pc}
 80052f8:	f0ffffff 	.word	0xf0ffffff
 80052fc:	ffff7fff 	.word	0xffff7fff
 8005300:	02008000 	.word	0x02008000

08005304 <HAL_I2C_EV_IRQHandler>:
  * @param  hi2c Pointer to a I2C_HandleTypeDef structure that contains
  *                the configuration information for the specified I2C.
  * @retval None
  */
void HAL_I2C_EV_IRQHandler(I2C_HandleTypeDef *hi2c)
{
 8005304:	b580      	push	{r7, lr}
 8005306:	b084      	sub	sp, #16
 8005308:	af00      	add	r7, sp, #0
 800530a:	6078      	str	r0, [r7, #4]
  /* Get current IT Flags and IT sources value */
  uint32_t itflags   = READ_REG(hi2c->Instance->ISR);
 800530c:	687b      	ldr	r3, [r7, #4]
 800530e:	681b      	ldr	r3, [r3, #0]
 8005310:	699b      	ldr	r3, [r3, #24]
 8005312:	60fb      	str	r3, [r7, #12]
  uint32_t itsources = READ_REG(hi2c->Instance->CR1);
 8005314:	687b      	ldr	r3, [r7, #4]
 8005316:	681b      	ldr	r3, [r3, #0]
 8005318:	681b      	ldr	r3, [r3, #0]
 800531a:	60bb      	str	r3, [r7, #8]

  /* I2C events treatment -------------------------------------*/
  if (hi2c->XferISR != NULL)
 800531c:	687b      	ldr	r3, [r7, #4]
 800531e:	6b5b      	ldr	r3, [r3, #52]	; 0x34
 8005320:	2b00      	cmp	r3, #0
 8005322:	d005      	beq.n	8005330 <HAL_I2C_EV_IRQHandler+0x2c>
  {
    hi2c->XferISR(hi2c, itflags, itsources);
 8005324:	687b      	ldr	r3, [r7, #4]
 8005326:	6b5b      	ldr	r3, [r3, #52]	; 0x34
 8005328:	68ba      	ldr	r2, [r7, #8]
 800532a:	68f9      	ldr	r1, [r7, #12]
 800532c:	6878      	ldr	r0, [r7, #4]
 800532e:	4798      	blx	r3
  }
}
 8005330:	46c0      	nop			; (mov r8, r8)
 8005332:	46bd      	mov	sp, r7
 8005334:	b004      	add	sp, #16
 8005336:	bd80      	pop	{r7, pc}

08005338 <HAL_I2C_ER_IRQHandler>:
  * @param  hi2c Pointer to a I2C_HandleTypeDef structure that contains
  *                the configuration information for the specified I2C.
  * @retval None
  */
void HAL_I2C_ER_IRQHandler(I2C_HandleTypeDef *hi2c)
{
 8005338:	b580      	push	{r7, lr}
 800533a:	b086      	sub	sp, #24
 800533c:	af00      	add	r7, sp, #0
 800533e:	6078      	str	r0, [r7, #4]
  uint32_t itflags   = READ_REG(hi2c->Instance->ISR);
 8005340:	687b      	ldr	r3, [r7, #4]
 8005342:	681b      	ldr	r3, [r3, #0]
 8005344:	699b      	ldr	r3, [r3, #24]
 8005346:	617b      	str	r3, [r7, #20]
  uint32_t itsources = READ_REG(hi2c->Instance->CR1);
 8005348:	687b      	ldr	r3, [r7, #4]
 800534a:	681b      	ldr	r3, [r3, #0]
 800534c:	681b      	ldr	r3, [r3, #0]
 800534e:	613b      	str	r3, [r7, #16]
  uint32_t tmperror;

  /* I2C Bus error interrupt occurred ------------------------------------*/
  if ((I2C_CHECK_FLAG(itflags, I2C_FLAG_BERR) != RESET) && (I2C_CHECK_IT_SOURCE(itsources, I2C_IT_ERRI) != RESET))
 8005350:	697b      	ldr	r3, [r7, #20]
 8005352:	0a1b      	lsrs	r3, r3, #8
 8005354:	001a      	movs	r2, r3
 8005356:	2301      	movs	r3, #1
 8005358:	4013      	ands	r3, r2
 800535a:	d010      	beq.n	800537e <HAL_I2C_ER_IRQHandler+0x46>
 800535c:	693b      	ldr	r3, [r7, #16]
 800535e:	09db      	lsrs	r3, r3, #7
 8005360:	001a      	movs	r2, r3
 8005362:	2301      	movs	r3, #1
 8005364:	4013      	ands	r3, r2
 8005366:	d00a      	beq.n	800537e <HAL_I2C_ER_IRQHandler+0x46>
  {
    hi2c->ErrorCode |= HAL_I2C_ERROR_BERR;
 8005368:	687b      	ldr	r3, [r7, #4]
 800536a:	6c5b      	ldr	r3, [r3, #68]	; 0x44
 800536c:	2201      	movs	r2, #1
 800536e:	431a      	orrs	r2, r3
 8005370:	687b      	ldr	r3, [r7, #4]
 8005372:	645a      	str	r2, [r3, #68]	; 0x44

    /* Clear BERR flag */
    __HAL_I2C_CLEAR_FLAG(hi2c, I2C_FLAG_BERR);
 8005374:	687b      	ldr	r3, [r7, #4]
 8005376:	681b      	ldr	r3, [r3, #0]
 8005378:	2280      	movs	r2, #128	; 0x80
 800537a:	0052      	lsls	r2, r2, #1
 800537c:	61da      	str	r2, [r3, #28]
  }

  /* I2C Over-Run/Under-Run interrupt occurred ----------------------------------------*/
  if ((I2C_CHECK_FLAG(itflags, I2C_FLAG_OVR) != RESET) && (I2C_CHECK_IT_SOURCE(itsources, I2C_IT_ERRI) != RESET))
 800537e:	697b      	ldr	r3, [r7, #20]
 8005380:	0a9b      	lsrs	r3, r3, #10
 8005382:	001a      	movs	r2, r3
 8005384:	2301      	movs	r3, #1
 8005386:	4013      	ands	r3, r2
 8005388:	d010      	beq.n	80053ac <HAL_I2C_ER_IRQHandler+0x74>
 800538a:	693b      	ldr	r3, [r7, #16]
 800538c:	09db      	lsrs	r3, r3, #7
 800538e:	001a      	movs	r2, r3
 8005390:	2301      	movs	r3, #1
 8005392:	4013      	ands	r3, r2
 8005394:	d00a      	beq.n	80053ac <HAL_I2C_ER_IRQHandler+0x74>
  {
    hi2c->ErrorCode |= HAL_I2C_ERROR_OVR;
 8005396:	687b      	ldr	r3, [r7, #4]
 8005398:	6c5b      	ldr	r3, [r3, #68]	; 0x44
 800539a:	2208      	movs	r2, #8
 800539c:	431a      	orrs	r2, r3
 800539e:	687b      	ldr	r3, [r7, #4]
 80053a0:	645a      	str	r2, [r3, #68]	; 0x44

    /* Clear OVR flag */
    __HAL_I2C_CLEAR_FLAG(hi2c, I2C_FLAG_OVR);
 80053a2:	687b      	ldr	r3, [r7, #4]
 80053a4:	681b      	ldr	r3, [r3, #0]
 80053a6:	2280      	movs	r2, #128	; 0x80
 80053a8:	00d2      	lsls	r2, r2, #3
 80053aa:	61da      	str	r2, [r3, #28]
  }

  /* I2C Arbitration Loss error interrupt occurred -------------------------------------*/
  if ((I2C_CHECK_FLAG(itflags, I2C_FLAG_ARLO) != RESET) && (I2C_CHECK_IT_SOURCE(itsources, I2C_IT_ERRI) != RESET))
 80053ac:	697b      	ldr	r3, [r7, #20]
 80053ae:	0a5b      	lsrs	r3, r3, #9
 80053b0:	001a      	movs	r2, r3
 80053b2:	2301      	movs	r3, #1
 80053b4:	4013      	ands	r3, r2
 80053b6:	d010      	beq.n	80053da <HAL_I2C_ER_IRQHandler+0xa2>
 80053b8:	693b      	ldr	r3, [r7, #16]
 80053ba:	09db      	lsrs	r3, r3, #7
 80053bc:	001a      	movs	r2, r3
 80053be:	2301      	movs	r3, #1
 80053c0:	4013      	ands	r3, r2
 80053c2:	d00a      	beq.n	80053da <HAL_I2C_ER_IRQHandler+0xa2>
  {
    hi2c->ErrorCode |= HAL_I2C_ERROR_ARLO;
 80053c4:	687b      	ldr	r3, [r7, #4]
 80053c6:	6c5b      	ldr	r3, [r3, #68]	; 0x44
 80053c8:	2202      	movs	r2, #2
 80053ca:	431a      	orrs	r2, r3
 80053cc:	687b      	ldr	r3, [r7, #4]
 80053ce:	645a      	str	r2, [r3, #68]	; 0x44

    /* Clear ARLO flag */
    __HAL_I2C_CLEAR_FLAG(hi2c, I2C_FLAG_ARLO);
 80053d0:	687b      	ldr	r3, [r7, #4]
 80053d2:	681b      	ldr	r3, [r3, #0]
 80053d4:	2280      	movs	r2, #128	; 0x80
 80053d6:	0092      	lsls	r2, r2, #2
 80053d8:	61da      	str	r2, [r3, #28]
  }

  /* Store current volatile hi2c->ErrorCode, misra rule */
  tmperror = hi2c->ErrorCode;
 80053da:	687b      	ldr	r3, [r7, #4]
 80053dc:	6c5b      	ldr	r3, [r3, #68]	; 0x44
 80053de:	60fb      	str	r3, [r7, #12]

  /* Call the Error Callback in case of Error detected */
  if ((tmperror & (HAL_I2C_ERROR_BERR | HAL_I2C_ERROR_OVR | HAL_I2C_ERROR_ARLO)) !=  HAL_I2C_ERROR_NONE)
 80053e0:	68fb      	ldr	r3, [r7, #12]
 80053e2:	220b      	movs	r2, #11
 80053e4:	4013      	ands	r3, r2
 80053e6:	d005      	beq.n	80053f4 <HAL_I2C_ER_IRQHandler+0xbc>
  {
    I2C_ITError(hi2c, tmperror);
 80053e8:	68fa      	ldr	r2, [r7, #12]
 80053ea:	687b      	ldr	r3, [r7, #4]
 80053ec:	0011      	movs	r1, r2
 80053ee:	0018      	movs	r0, r3
 80053f0:	f000 fb6c 	bl	8005acc <I2C_ITError>
  }
}
 80053f4:	46c0      	nop			; (mov r8, r8)
 80053f6:	46bd      	mov	sp, r7
 80053f8:	b006      	add	sp, #24
 80053fa:	bd80      	pop	{r7, pc}

080053fc <HAL_I2C_SlaveTxCpltCallback>:
  * @param  hi2c Pointer to a I2C_HandleTypeDef structure that contains
  *                the configuration information for the specified I2C.
  * @retval None
  */
__weak void HAL_I2C_SlaveTxCpltCallback(I2C_HandleTypeDef *hi2c)
{
 80053fc:	b580      	push	{r7, lr}
 80053fe:	b082      	sub	sp, #8
 8005400:	af00      	add	r7, sp, #0
 8005402:	6078      	str	r0, [r7, #4]
  UNUSED(hi2c);

  /* NOTE : This function should not be modified, when the callback is needed,
            the HAL_I2C_SlaveTxCpltCallback could be implemented in the user file
   */
}
 8005404:	46c0      	nop			; (mov r8, r8)
 8005406:	46bd      	mov	sp, r7
 8005408:	b002      	add	sp, #8
 800540a:	bd80      	pop	{r7, pc}

0800540c <HAL_I2C_SlaveRxCpltCallback>:
  * @param  hi2c Pointer to a I2C_HandleTypeDef structure that contains
  *                the configuration information for the specified I2C.
  * @retval None
  */
__weak void HAL_I2C_SlaveRxCpltCallback(I2C_HandleTypeDef *hi2c)
{
 800540c:	b580      	push	{r7, lr}
 800540e:	b082      	sub	sp, #8
 8005410:	af00      	add	r7, sp, #0
 8005412:	6078      	str	r0, [r7, #4]
  UNUSED(hi2c);

  /* NOTE : This function should not be modified, when the callback is needed,
            the HAL_I2C_SlaveRxCpltCallback could be implemented in the user file
   */
}
 8005414:	46c0      	nop			; (mov r8, r8)
 8005416:	46bd      	mov	sp, r7
 8005418:	b002      	add	sp, #8
 800541a:	bd80      	pop	{r7, pc}

0800541c <HAL_I2C_AddrCallback>:
  * @param  TransferDirection Master request Transfer Direction (Write/Read), value of @ref I2C_XFERDIRECTION
  * @param  AddrMatchCode Address Match Code
  * @retval None
  */
__weak void HAL_I2C_AddrCallback(I2C_HandleTypeDef *hi2c, uint8_t TransferDirection, uint16_t AddrMatchCode)
{
 800541c:	b580      	push	{r7, lr}
 800541e:	b082      	sub	sp, #8
 8005420:	af00      	add	r7, sp, #0
 8005422:	6078      	str	r0, [r7, #4]
 8005424:	0008      	movs	r0, r1
 8005426:	0011      	movs	r1, r2
 8005428:	1cfb      	adds	r3, r7, #3
 800542a:	1c02      	adds	r2, r0, #0
 800542c:	701a      	strb	r2, [r3, #0]
 800542e:	003b      	movs	r3, r7
 8005430:	1c0a      	adds	r2, r1, #0
 8005432:	801a      	strh	r2, [r3, #0]
  UNUSED(AddrMatchCode);

  /* NOTE : This function should not be modified, when the callback is needed,
            the HAL_I2C_AddrCallback() could be implemented in the user file
   */
}
 8005434:	46c0      	nop			; (mov r8, r8)
 8005436:	46bd      	mov	sp, r7
 8005438:	b002      	add	sp, #8
 800543a:	bd80      	pop	{r7, pc}

0800543c <HAL_I2C_ListenCpltCallback>:
  * @param  hi2c Pointer to a I2C_HandleTypeDef structure that contains
  *                the configuration information for the specified I2C.
  * @retval None
  */
__weak void HAL_I2C_ListenCpltCallback(I2C_HandleTypeDef *hi2c)
{
 800543c:	b580      	push	{r7, lr}
 800543e:	b082      	sub	sp, #8
 8005440:	af00      	add	r7, sp, #0
 8005442:	6078      	str	r0, [r7, #4]
  UNUSED(hi2c);

  /* NOTE : This function should not be modified, when the callback is needed,
            the HAL_I2C_ListenCpltCallback() could be implemented in the user file
   */
}
 8005444:	46c0      	nop			; (mov r8, r8)
 8005446:	46bd      	mov	sp, r7
 8005448:	b002      	add	sp, #8
 800544a:	bd80      	pop	{r7, pc}

0800544c <HAL_I2C_ErrorCallback>:
  * @param  hi2c Pointer to a I2C_HandleTypeDef structure that contains
  *                the configuration information for the specified I2C.
  * @retval None
  */
__weak void HAL_I2C_ErrorCallback(I2C_HandleTypeDef *hi2c)
{
 800544c:	b580      	push	{r7, lr}
 800544e:	b082      	sub	sp, #8
 8005450:	af00      	add	r7, sp, #0
 8005452:	6078      	str	r0, [r7, #4]
  UNUSED(hi2c);

  /* NOTE : This function should not be modified, when the callback is needed,
            the HAL_I2C_ErrorCallback could be implemented in the user file
   */
}
 8005454:	46c0      	nop			; (mov r8, r8)
 8005456:	46bd      	mov	sp, r7
 8005458:	b002      	add	sp, #8
 800545a:	bd80      	pop	{r7, pc}

0800545c <HAL_I2C_AbortCpltCallback>:
  * @param  hi2c Pointer to a I2C_HandleTypeDef structure that contains
  *                the configuration information for the specified I2C.
  * @retval None
  */
__weak void HAL_I2C_AbortCpltCallback(I2C_HandleTypeDef *hi2c)
{
 800545c:	b580      	push	{r7, lr}
 800545e:	b082      	sub	sp, #8
 8005460:	af00      	add	r7, sp, #0
 8005462:	6078      	str	r0, [r7, #4]
  UNUSED(hi2c);

  /* NOTE : This function should not be modified, when the callback is needed,
            the HAL_I2C_AbortCpltCallback could be implemented in the user file
   */
}
 8005464:	46c0      	nop			; (mov r8, r8)
 8005466:	46bd      	mov	sp, r7
 8005468:	b002      	add	sp, #8
 800546a:	bd80      	pop	{r7, pc}

0800546c <I2C_Slave_ISR_IT>:
  * @param  ITFlags Interrupt flags to handle.
  * @param  ITSources Interrupt sources enabled.
  * @retval HAL status
  */
static HAL_StatusTypeDef I2C_Slave_ISR_IT(struct __I2C_HandleTypeDef *hi2c, uint32_t ITFlags, uint32_t ITSources)
{
 800546c:	b580      	push	{r7, lr}
 800546e:	b086      	sub	sp, #24
 8005470:	af00      	add	r7, sp, #0
 8005472:	60f8      	str	r0, [r7, #12]
 8005474:	60b9      	str	r1, [r7, #8]
 8005476:	607a      	str	r2, [r7, #4]
  uint32_t tmpoptions = hi2c->XferOptions;
 8005478:	68fb      	ldr	r3, [r7, #12]
 800547a:	6adb      	ldr	r3, [r3, #44]	; 0x2c
 800547c:	617b      	str	r3, [r7, #20]
  uint32_t tmpITFlags = ITFlags;
 800547e:	68bb      	ldr	r3, [r7, #8]
 8005480:	613b      	str	r3, [r7, #16]

  /* Process locked */
  __HAL_LOCK(hi2c);
 8005482:	68fb      	ldr	r3, [r7, #12]
 8005484:	2240      	movs	r2, #64	; 0x40
 8005486:	5c9b      	ldrb	r3, [r3, r2]
 8005488:	2b01      	cmp	r3, #1
 800548a:	d101      	bne.n	8005490 <I2C_Slave_ISR_IT+0x24>
 800548c:	2302      	movs	r3, #2
 800548e:	e0fa      	b.n	8005686 <I2C_Slave_ISR_IT+0x21a>
 8005490:	68fb      	ldr	r3, [r7, #12]
 8005492:	2240      	movs	r2, #64	; 0x40
 8005494:	2101      	movs	r1, #1
 8005496:	5499      	strb	r1, [r3, r2]

  /* Check if STOPF is set */
  if ((I2C_CHECK_FLAG(tmpITFlags, I2C_FLAG_STOPF) != RESET) && (I2C_CHECK_IT_SOURCE(ITSources, I2C_IT_STOPI) != RESET))
 8005498:	693b      	ldr	r3, [r7, #16]
 800549a:	095b      	lsrs	r3, r3, #5
 800549c:	001a      	movs	r2, r3
 800549e:	2301      	movs	r3, #1
 80054a0:	4013      	ands	r3, r2
 80054a2:	d00b      	beq.n	80054bc <I2C_Slave_ISR_IT+0x50>
 80054a4:	687b      	ldr	r3, [r7, #4]
 80054a6:	095b      	lsrs	r3, r3, #5
 80054a8:	001a      	movs	r2, r3
 80054aa:	2301      	movs	r3, #1
 80054ac:	4013      	ands	r3, r2
 80054ae:	d005      	beq.n	80054bc <I2C_Slave_ISR_IT+0x50>
  {
    /* Call I2C Slave complete process */
    I2C_ITSlaveCplt(hi2c, tmpITFlags);
 80054b0:	693a      	ldr	r2, [r7, #16]
 80054b2:	68fb      	ldr	r3, [r7, #12]
 80054b4:	0011      	movs	r1, r2
 80054b6:	0018      	movs	r0, r3
 80054b8:	f000 f9d2 	bl	8005860 <I2C_ITSlaveCplt>
  }

  if ((I2C_CHECK_FLAG(tmpITFlags, I2C_FLAG_AF) != RESET) && (I2C_CHECK_IT_SOURCE(ITSources, I2C_IT_NACKI) != RESET))
 80054bc:	693b      	ldr	r3, [r7, #16]
 80054be:	091b      	lsrs	r3, r3, #4
 80054c0:	001a      	movs	r2, r3
 80054c2:	2301      	movs	r3, #1
 80054c4:	4013      	ands	r3, r2
 80054c6:	d054      	beq.n	8005572 <I2C_Slave_ISR_IT+0x106>
 80054c8:	687b      	ldr	r3, [r7, #4]
 80054ca:	091b      	lsrs	r3, r3, #4
 80054cc:	001a      	movs	r2, r3
 80054ce:	2301      	movs	r3, #1
 80054d0:	4013      	ands	r3, r2
 80054d2:	d04e      	beq.n	8005572 <I2C_Slave_ISR_IT+0x106>
  {
    /* Check that I2C transfer finished */
    /* if yes, normal use case, a NACK is sent by the MASTER when Transfer is finished */
    /* Mean XferCount == 0*/
    /* So clear Flag NACKF only */
    if (hi2c->XferCount == 0U)
 80054d4:	68fb      	ldr	r3, [r7, #12]
 80054d6:	8d5b      	ldrh	r3, [r3, #42]	; 0x2a
 80054d8:	b29b      	uxth	r3, r3
 80054da:	2b00      	cmp	r3, #0
 80054dc:	d12d      	bne.n	800553a <I2C_Slave_ISR_IT+0xce>
    {
      if ((hi2c->State == HAL_I2C_STATE_LISTEN) && (tmpoptions == I2C_FIRST_AND_LAST_FRAME)) /* Same action must be done for (tmpoptions == I2C_LAST_FRAME) which removed for Warning[Pa134]: left and right operands are identical */
 80054de:	68fb      	ldr	r3, [r7, #12]
 80054e0:	2241      	movs	r2, #65	; 0x41
 80054e2:	5c9b      	ldrb	r3, [r3, r2]
 80054e4:	b2db      	uxtb	r3, r3
 80054e6:	2b28      	cmp	r3, #40	; 0x28
 80054e8:	d10b      	bne.n	8005502 <I2C_Slave_ISR_IT+0x96>
 80054ea:	697a      	ldr	r2, [r7, #20]
 80054ec:	2380      	movs	r3, #128	; 0x80
 80054ee:	049b      	lsls	r3, r3, #18
 80054f0:	429a      	cmp	r2, r3
 80054f2:	d106      	bne.n	8005502 <I2C_Slave_ISR_IT+0x96>
      {
        /* Call I2C Listen complete process */
        I2C_ITListenCplt(hi2c, tmpITFlags);
 80054f4:	693a      	ldr	r2, [r7, #16]
 80054f6:	68fb      	ldr	r3, [r7, #12]
 80054f8:	0011      	movs	r1, r2
 80054fa:	0018      	movs	r0, r3
 80054fc:	f000 fa90 	bl	8005a20 <I2C_ITListenCplt>
 8005500:	e036      	b.n	8005570 <I2C_Slave_ISR_IT+0x104>
      }
      else if ((hi2c->State == HAL_I2C_STATE_BUSY_TX_LISTEN) && (tmpoptions != I2C_NO_OPTION_FRAME))
 8005502:	68fb      	ldr	r3, [r7, #12]
 8005504:	2241      	movs	r2, #65	; 0x41
 8005506:	5c9b      	ldrb	r3, [r3, r2]
 8005508:	b2db      	uxtb	r3, r3
 800550a:	2b29      	cmp	r3, #41	; 0x29
 800550c:	d110      	bne.n	8005530 <I2C_Slave_ISR_IT+0xc4>
 800550e:	697b      	ldr	r3, [r7, #20]
 8005510:	4a5f      	ldr	r2, [pc, #380]	; (8005690 <I2C_Slave_ISR_IT+0x224>)
 8005512:	4293      	cmp	r3, r2
 8005514:	d00c      	beq.n	8005530 <I2C_Slave_ISR_IT+0xc4>
      {
        /* Clear NACK Flag */
        __HAL_I2C_CLEAR_FLAG(hi2c, I2C_FLAG_AF);
 8005516:	68fb      	ldr	r3, [r7, #12]
 8005518:	681b      	ldr	r3, [r3, #0]
 800551a:	2210      	movs	r2, #16
 800551c:	61da      	str	r2, [r3, #28]

        /* Flush TX register */
        I2C_Flush_TXDR(hi2c);
 800551e:	68fb      	ldr	r3, [r7, #12]
 8005520:	0018      	movs	r0, r3
 8005522:	f000 fba5 	bl	8005c70 <I2C_Flush_TXDR>

        /* Last Byte is Transmitted */
        /* Call I2C Slave Sequential complete process */
        I2C_ITSlaveSeqCplt(hi2c);
 8005526:	68fb      	ldr	r3, [r7, #12]
 8005528:	0018      	movs	r0, r3
 800552a:	f000 f958 	bl	80057de <I2C_ITSlaveSeqCplt>
 800552e:	e01f      	b.n	8005570 <I2C_Slave_ISR_IT+0x104>
      }
      else
      {
        /* Clear NACK Flag */
        __HAL_I2C_CLEAR_FLAG(hi2c, I2C_FLAG_AF);
 8005530:	68fb      	ldr	r3, [r7, #12]
 8005532:	681b      	ldr	r3, [r3, #0]
 8005534:	2210      	movs	r2, #16
 8005536:	61da      	str	r2, [r3, #28]
    if (hi2c->XferCount == 0U)
 8005538:	e09d      	b.n	8005676 <I2C_Slave_ISR_IT+0x20a>
    }
    else
    {
      /* if no, error use case, a Non-Acknowledge of last Data is generated by the MASTER*/
      /* Clear NACK Flag */
      __HAL_I2C_CLEAR_FLAG(hi2c, I2C_FLAG_AF);
 800553a:	68fb      	ldr	r3, [r7, #12]
 800553c:	681b      	ldr	r3, [r3, #0]
 800553e:	2210      	movs	r2, #16
 8005540:	61da      	str	r2, [r3, #28]

      /* Set ErrorCode corresponding to a Non-Acknowledge */
      hi2c->ErrorCode |= HAL_I2C_ERROR_AF;
 8005542:	68fb      	ldr	r3, [r7, #12]
 8005544:	6c5b      	ldr	r3, [r3, #68]	; 0x44
 8005546:	2204      	movs	r2, #4
 8005548:	431a      	orrs	r2, r3
 800554a:	68fb      	ldr	r3, [r7, #12]
 800554c:	645a      	str	r2, [r3, #68]	; 0x44

      if ((tmpoptions == I2C_FIRST_FRAME) || (tmpoptions == I2C_NEXT_FRAME))
 800554e:	697b      	ldr	r3, [r7, #20]
 8005550:	2b00      	cmp	r3, #0
 8005552:	d005      	beq.n	8005560 <I2C_Slave_ISR_IT+0xf4>
 8005554:	697a      	ldr	r2, [r7, #20]
 8005556:	2380      	movs	r3, #128	; 0x80
 8005558:	045b      	lsls	r3, r3, #17
 800555a:	429a      	cmp	r2, r3
 800555c:	d000      	beq.n	8005560 <I2C_Slave_ISR_IT+0xf4>
 800555e:	e08a      	b.n	8005676 <I2C_Slave_ISR_IT+0x20a>
      {
        /* Call the corresponding callback to inform upper layer of End of Transfer */
        I2C_ITError(hi2c, hi2c->ErrorCode);
 8005560:	68fb      	ldr	r3, [r7, #12]
 8005562:	6c5a      	ldr	r2, [r3, #68]	; 0x44
 8005564:	68fb      	ldr	r3, [r7, #12]
 8005566:	0011      	movs	r1, r2
 8005568:	0018      	movs	r0, r3
 800556a:	f000 faaf 	bl	8005acc <I2C_ITError>
    if (hi2c->XferCount == 0U)
 800556e:	e082      	b.n	8005676 <I2C_Slave_ISR_IT+0x20a>
 8005570:	e081      	b.n	8005676 <I2C_Slave_ISR_IT+0x20a>
      }
    }
  }
  else if ((I2C_CHECK_FLAG(tmpITFlags, I2C_FLAG_RXNE) != RESET) && (I2C_CHECK_IT_SOURCE(ITSources, I2C_IT_RXI) != RESET))
 8005572:	693b      	ldr	r3, [r7, #16]
 8005574:	089b      	lsrs	r3, r3, #2
 8005576:	001a      	movs	r2, r3
 8005578:	2301      	movs	r3, #1
 800557a:	4013      	ands	r3, r2
 800557c:	d031      	beq.n	80055e2 <I2C_Slave_ISR_IT+0x176>
 800557e:	687b      	ldr	r3, [r7, #4]
 8005580:	089b      	lsrs	r3, r3, #2
 8005582:	001a      	movs	r2, r3
 8005584:	2301      	movs	r3, #1
 8005586:	4013      	ands	r3, r2
 8005588:	d02b      	beq.n	80055e2 <I2C_Slave_ISR_IT+0x176>
  {
    if (hi2c->XferCount > 0U)
 800558a:	68fb      	ldr	r3, [r7, #12]
 800558c:	8d5b      	ldrh	r3, [r3, #42]	; 0x2a
 800558e:	b29b      	uxth	r3, r3
 8005590:	2b00      	cmp	r3, #0
 8005592:	d018      	beq.n	80055c6 <I2C_Slave_ISR_IT+0x15a>
    {
      /* Read data from RXDR */
      *hi2c->pBuffPtr = (uint8_t)hi2c->Instance->RXDR;
 8005594:	68fb      	ldr	r3, [r7, #12]
 8005596:	681b      	ldr	r3, [r3, #0]
 8005598:	6a5a      	ldr	r2, [r3, #36]	; 0x24
 800559a:	68fb      	ldr	r3, [r7, #12]
 800559c:	6a5b      	ldr	r3, [r3, #36]	; 0x24
 800559e:	b2d2      	uxtb	r2, r2
 80055a0:	701a      	strb	r2, [r3, #0]

      /* Increment Buffer pointer */
      hi2c->pBuffPtr++;
 80055a2:	68fb      	ldr	r3, [r7, #12]
 80055a4:	6a5b      	ldr	r3, [r3, #36]	; 0x24
 80055a6:	1c5a      	adds	r2, r3, #1
 80055a8:	68fb      	ldr	r3, [r7, #12]
 80055aa:	625a      	str	r2, [r3, #36]	; 0x24

      hi2c->XferSize--;
 80055ac:	68fb      	ldr	r3, [r7, #12]
 80055ae:	8d1b      	ldrh	r3, [r3, #40]	; 0x28
 80055b0:	3b01      	subs	r3, #1
 80055b2:	b29a      	uxth	r2, r3
 80055b4:	68fb      	ldr	r3, [r7, #12]
 80055b6:	851a      	strh	r2, [r3, #40]	; 0x28
      hi2c->XferCount--;
 80055b8:	68fb      	ldr	r3, [r7, #12]
 80055ba:	8d5b      	ldrh	r3, [r3, #42]	; 0x2a
 80055bc:	b29b      	uxth	r3, r3
 80055be:	3b01      	subs	r3, #1
 80055c0:	b29a      	uxth	r2, r3
 80055c2:	68fb      	ldr	r3, [r7, #12]
 80055c4:	855a      	strh	r2, [r3, #42]	; 0x2a
    }

    if ((hi2c->XferCount == 0U) && \
 80055c6:	68fb      	ldr	r3, [r7, #12]
 80055c8:	8d5b      	ldrh	r3, [r3, #42]	; 0x2a
 80055ca:	b29b      	uxth	r3, r3
 80055cc:	2b00      	cmp	r3, #0
 80055ce:	d154      	bne.n	800567a <I2C_Slave_ISR_IT+0x20e>
 80055d0:	697b      	ldr	r3, [r7, #20]
 80055d2:	4a2f      	ldr	r2, [pc, #188]	; (8005690 <I2C_Slave_ISR_IT+0x224>)
 80055d4:	4293      	cmp	r3, r2
 80055d6:	d050      	beq.n	800567a <I2C_Slave_ISR_IT+0x20e>
        (tmpoptions != I2C_NO_OPTION_FRAME))
    {
      /* Call I2C Slave Sequential complete process */
      I2C_ITSlaveSeqCplt(hi2c);
 80055d8:	68fb      	ldr	r3, [r7, #12]
 80055da:	0018      	movs	r0, r3
 80055dc:	f000 f8ff 	bl	80057de <I2C_ITSlaveSeqCplt>
    if ((hi2c->XferCount == 0U) && \
 80055e0:	e04b      	b.n	800567a <I2C_Slave_ISR_IT+0x20e>
    }
  }
  else if ((I2C_CHECK_FLAG(tmpITFlags, I2C_FLAG_ADDR) != RESET) && (I2C_CHECK_IT_SOURCE(ITSources, I2C_IT_ADDRI) != RESET))
 80055e2:	693b      	ldr	r3, [r7, #16]
 80055e4:	08db      	lsrs	r3, r3, #3
 80055e6:	001a      	movs	r2, r3
 80055e8:	2301      	movs	r3, #1
 80055ea:	4013      	ands	r3, r2
 80055ec:	d00c      	beq.n	8005608 <I2C_Slave_ISR_IT+0x19c>
 80055ee:	687b      	ldr	r3, [r7, #4]
 80055f0:	08db      	lsrs	r3, r3, #3
 80055f2:	001a      	movs	r2, r3
 80055f4:	2301      	movs	r3, #1
 80055f6:	4013      	ands	r3, r2
 80055f8:	d006      	beq.n	8005608 <I2C_Slave_ISR_IT+0x19c>
  {
    I2C_ITAddrCplt(hi2c, tmpITFlags);
 80055fa:	693a      	ldr	r2, [r7, #16]
 80055fc:	68fb      	ldr	r3, [r7, #12]
 80055fe:	0011      	movs	r1, r2
 8005600:	0018      	movs	r0, r3
 8005602:	f000 f847 	bl	8005694 <I2C_ITAddrCplt>
 8005606:	e039      	b.n	800567c <I2C_Slave_ISR_IT+0x210>
  }
  else if ((I2C_CHECK_FLAG(tmpITFlags, I2C_FLAG_TXIS) != RESET) && (I2C_CHECK_IT_SOURCE(ITSources, I2C_IT_TXI) != RESET))
 8005608:	693b      	ldr	r3, [r7, #16]
 800560a:	085b      	lsrs	r3, r3, #1
 800560c:	001a      	movs	r2, r3
 800560e:	2301      	movs	r3, #1
 8005610:	4013      	ands	r3, r2
 8005612:	d033      	beq.n	800567c <I2C_Slave_ISR_IT+0x210>
 8005614:	687b      	ldr	r3, [r7, #4]
 8005616:	085b      	lsrs	r3, r3, #1
 8005618:	001a      	movs	r2, r3
 800561a:	2301      	movs	r3, #1
 800561c:	4013      	ands	r3, r2
 800561e:	d02d      	beq.n	800567c <I2C_Slave_ISR_IT+0x210>
  {
    /* Write data to TXDR only if XferCount not reach "0" */
    /* A TXIS flag can be set, during STOP treatment      */
    /* Check if all Datas have already been sent */
    /* If it is the case, this last write in TXDR is not sent, correspond to a dummy TXIS event */
    if (hi2c->XferCount > 0U)
 8005620:	68fb      	ldr	r3, [r7, #12]
 8005622:	8d5b      	ldrh	r3, [r3, #42]	; 0x2a
 8005624:	b29b      	uxth	r3, r3
 8005626:	2b00      	cmp	r3, #0
 8005628:	d018      	beq.n	800565c <I2C_Slave_ISR_IT+0x1f0>
    {
      /* Write data to TXDR */
      hi2c->Instance->TXDR = *hi2c->pBuffPtr;
 800562a:	68fb      	ldr	r3, [r7, #12]
 800562c:	6a5b      	ldr	r3, [r3, #36]	; 0x24
 800562e:	781a      	ldrb	r2, [r3, #0]
 8005630:	68fb      	ldr	r3, [r7, #12]
 8005632:	681b      	ldr	r3, [r3, #0]
 8005634:	629a      	str	r2, [r3, #40]	; 0x28

      /* Increment Buffer pointer */
      hi2c->pBuffPtr++;
 8005636:	68fb      	ldr	r3, [r7, #12]
 8005638:	6a5b      	ldr	r3, [r3, #36]	; 0x24
 800563a:	1c5a      	adds	r2, r3, #1
 800563c:	68fb      	ldr	r3, [r7, #12]
 800563e:	625a      	str	r2, [r3, #36]	; 0x24

      hi2c->XferCount--;
 8005640:	68fb      	ldr	r3, [r7, #12]
 8005642:	8d5b      	ldrh	r3, [r3, #42]	; 0x2a
 8005644:	b29b      	uxth	r3, r3
 8005646:	3b01      	subs	r3, #1
 8005648:	b29a      	uxth	r2, r3
 800564a:	68fb      	ldr	r3, [r7, #12]
 800564c:	855a      	strh	r2, [r3, #42]	; 0x2a
      hi2c->XferSize--;
 800564e:	68fb      	ldr	r3, [r7, #12]
 8005650:	8d1b      	ldrh	r3, [r3, #40]	; 0x28
 8005652:	3b01      	subs	r3, #1
 8005654:	b29a      	uxth	r2, r3
 8005656:	68fb      	ldr	r3, [r7, #12]
 8005658:	851a      	strh	r2, [r3, #40]	; 0x28
 800565a:	e00f      	b.n	800567c <I2C_Slave_ISR_IT+0x210>
    }
    else
    {
      if ((tmpoptions == I2C_NEXT_FRAME) || (tmpoptions == I2C_FIRST_FRAME))
 800565c:	697a      	ldr	r2, [r7, #20]
 800565e:	2380      	movs	r3, #128	; 0x80
 8005660:	045b      	lsls	r3, r3, #17
 8005662:	429a      	cmp	r2, r3
 8005664:	d002      	beq.n	800566c <I2C_Slave_ISR_IT+0x200>
 8005666:	697b      	ldr	r3, [r7, #20]
 8005668:	2b00      	cmp	r3, #0
 800566a:	d107      	bne.n	800567c <I2C_Slave_ISR_IT+0x210>
      {
        /* Last Byte is Transmitted */
        /* Call I2C Slave Sequential complete process */
        I2C_ITSlaveSeqCplt(hi2c);
 800566c:	68fb      	ldr	r3, [r7, #12]
 800566e:	0018      	movs	r0, r3
 8005670:	f000 f8b5 	bl	80057de <I2C_ITSlaveSeqCplt>
 8005674:	e002      	b.n	800567c <I2C_Slave_ISR_IT+0x210>
    if (hi2c->XferCount == 0U)
 8005676:	46c0      	nop			; (mov r8, r8)
 8005678:	e000      	b.n	800567c <I2C_Slave_ISR_IT+0x210>
    if ((hi2c->XferCount == 0U) && \
 800567a:	46c0      	nop			; (mov r8, r8)
  {
    /* Nothing to do */
  }

  /* Process Unlocked */
  __HAL_UNLOCK(hi2c);
 800567c:	68fb      	ldr	r3, [r7, #12]
 800567e:	2240      	movs	r2, #64	; 0x40
 8005680:	2100      	movs	r1, #0
 8005682:	5499      	strb	r1, [r3, r2]

  return HAL_OK;
 8005684:	2300      	movs	r3, #0
}
 8005686:	0018      	movs	r0, r3
 8005688:	46bd      	mov	sp, r7
 800568a:	b006      	add	sp, #24
 800568c:	bd80      	pop	{r7, pc}
 800568e:	46c0      	nop			; (mov r8, r8)
 8005690:	ffff0000 	.word	0xffff0000

08005694 <I2C_ITAddrCplt>:
  * @param  hi2c I2C handle.
  * @param  ITFlags Interrupt flags to handle.
  * @retval None
  */
static void I2C_ITAddrCplt(I2C_HandleTypeDef *hi2c, uint32_t ITFlags)
{
 8005694:	b590      	push	{r4, r7, lr}
 8005696:	b085      	sub	sp, #20
 8005698:	af00      	add	r7, sp, #0
 800569a:	6078      	str	r0, [r7, #4]
 800569c:	6039      	str	r1, [r7, #0]

  /* Prevent unused argument(s) compilation warning */
  UNUSED(ITFlags);

  /* In case of Listen state, need to inform upper layer of address match code event */
  if (((uint32_t)hi2c->State & (uint32_t)HAL_I2C_STATE_LISTEN) == (uint32_t)HAL_I2C_STATE_LISTEN)
 800569e:	687b      	ldr	r3, [r7, #4]
 80056a0:	2241      	movs	r2, #65	; 0x41
 80056a2:	5c9b      	ldrb	r3, [r3, r2]
 80056a4:	b2db      	uxtb	r3, r3
 80056a6:	001a      	movs	r2, r3
 80056a8:	2328      	movs	r3, #40	; 0x28
 80056aa:	4013      	ands	r3, r2
 80056ac:	2b28      	cmp	r3, #40	; 0x28
 80056ae:	d000      	beq.n	80056b2 <I2C_ITAddrCplt+0x1e>
 80056b0:	e089      	b.n	80057c6 <I2C_ITAddrCplt+0x132>
  {
    transferdirection = I2C_GET_DIR(hi2c);
 80056b2:	687b      	ldr	r3, [r7, #4]
 80056b4:	681b      	ldr	r3, [r3, #0]
 80056b6:	699b      	ldr	r3, [r3, #24]
 80056b8:	0c1b      	lsrs	r3, r3, #16
 80056ba:	b2da      	uxtb	r2, r3
 80056bc:	230f      	movs	r3, #15
 80056be:	18fb      	adds	r3, r7, r3
 80056c0:	2101      	movs	r1, #1
 80056c2:	400a      	ands	r2, r1
 80056c4:	701a      	strb	r2, [r3, #0]
    slaveaddrcode     = I2C_GET_ADDR_MATCH(hi2c);
 80056c6:	687b      	ldr	r3, [r7, #4]
 80056c8:	681b      	ldr	r3, [r3, #0]
 80056ca:	699b      	ldr	r3, [r3, #24]
 80056cc:	0c1b      	lsrs	r3, r3, #16
 80056ce:	b29a      	uxth	r2, r3
 80056d0:	230c      	movs	r3, #12
 80056d2:	18fb      	adds	r3, r7, r3
 80056d4:	21fe      	movs	r1, #254	; 0xfe
 80056d6:	400a      	ands	r2, r1
 80056d8:	801a      	strh	r2, [r3, #0]
    ownadd1code       = I2C_GET_OWN_ADDRESS1(hi2c);
 80056da:	687b      	ldr	r3, [r7, #4]
 80056dc:	681b      	ldr	r3, [r3, #0]
 80056de:	689b      	ldr	r3, [r3, #8]
 80056e0:	b29a      	uxth	r2, r3
 80056e2:	230a      	movs	r3, #10
 80056e4:	18fb      	adds	r3, r7, r3
 80056e6:	0592      	lsls	r2, r2, #22
 80056e8:	0d92      	lsrs	r2, r2, #22
 80056ea:	801a      	strh	r2, [r3, #0]
    ownadd2code       = I2C_GET_OWN_ADDRESS2(hi2c);
 80056ec:	687b      	ldr	r3, [r7, #4]
 80056ee:	681b      	ldr	r3, [r3, #0]
 80056f0:	68db      	ldr	r3, [r3, #12]
 80056f2:	b29a      	uxth	r2, r3
 80056f4:	2308      	movs	r3, #8
 80056f6:	18fb      	adds	r3, r7, r3
 80056f8:	21fe      	movs	r1, #254	; 0xfe
 80056fa:	400a      	ands	r2, r1
 80056fc:	801a      	strh	r2, [r3, #0]

    /* If 10bits addressing mode is selected */
    if (hi2c->Init.AddressingMode == I2C_ADDRESSINGMODE_10BIT)
 80056fe:	687b      	ldr	r3, [r7, #4]
 8005700:	68db      	ldr	r3, [r3, #12]
 8005702:	2b02      	cmp	r3, #2
 8005704:	d14b      	bne.n	800579e <I2C_ITAddrCplt+0x10a>
    {
      if ((slaveaddrcode & SlaveAddr_MSK) == ((ownadd1code >> SlaveAddr_SHIFT) & SlaveAddr_MSK))
 8005706:	230a      	movs	r3, #10
 8005708:	18fb      	adds	r3, r7, r3
 800570a:	881b      	ldrh	r3, [r3, #0]
 800570c:	09db      	lsrs	r3, r3, #7
 800570e:	b29a      	uxth	r2, r3
 8005710:	230c      	movs	r3, #12
 8005712:	18fb      	adds	r3, r7, r3
 8005714:	881b      	ldrh	r3, [r3, #0]
 8005716:	4053      	eors	r3, r2
 8005718:	b29b      	uxth	r3, r3
 800571a:	001a      	movs	r2, r3
 800571c:	2306      	movs	r3, #6
 800571e:	4013      	ands	r3, r2
 8005720:	d124      	bne.n	800576c <I2C_ITAddrCplt+0xd8>
      {
        slaveaddrcode = ownadd1code;
 8005722:	230c      	movs	r3, #12
 8005724:	18fb      	adds	r3, r7, r3
 8005726:	220a      	movs	r2, #10
 8005728:	18ba      	adds	r2, r7, r2
 800572a:	8812      	ldrh	r2, [r2, #0]
 800572c:	801a      	strh	r2, [r3, #0]
        hi2c->AddrEventCount++;
 800572e:	687b      	ldr	r3, [r7, #4]
 8005730:	6c9b      	ldr	r3, [r3, #72]	; 0x48
 8005732:	1c5a      	adds	r2, r3, #1
 8005734:	687b      	ldr	r3, [r7, #4]
 8005736:	649a      	str	r2, [r3, #72]	; 0x48
        if (hi2c->AddrEventCount == 2U)
 8005738:	687b      	ldr	r3, [r7, #4]
 800573a:	6c9b      	ldr	r3, [r3, #72]	; 0x48
 800573c:	2b02      	cmp	r3, #2
 800573e:	d14a      	bne.n	80057d6 <I2C_ITAddrCplt+0x142>
        {
          /* Reset Address Event counter */
          hi2c->AddrEventCount = 0U;
 8005740:	687b      	ldr	r3, [r7, #4]
 8005742:	2200      	movs	r2, #0
 8005744:	649a      	str	r2, [r3, #72]	; 0x48

          /* Clear ADDR flag */
          __HAL_I2C_CLEAR_FLAG(hi2c, I2C_FLAG_ADDR);
 8005746:	687b      	ldr	r3, [r7, #4]
 8005748:	681b      	ldr	r3, [r3, #0]
 800574a:	2208      	movs	r2, #8
 800574c:	61da      	str	r2, [r3, #28]

          /* Process Unlocked */
          __HAL_UNLOCK(hi2c);
 800574e:	687b      	ldr	r3, [r7, #4]
 8005750:	2240      	movs	r2, #64	; 0x40
 8005752:	2100      	movs	r1, #0
 8005754:	5499      	strb	r1, [r3, r2]

          /* Call Slave Addr callback */
#if (USE_HAL_I2C_REGISTER_CALLBACKS == 1)
          hi2c->AddrCallback(hi2c, transferdirection, slaveaddrcode);
#else
          HAL_I2C_AddrCallback(hi2c, transferdirection, slaveaddrcode);
 8005756:	230c      	movs	r3, #12
 8005758:	18fb      	adds	r3, r7, r3
 800575a:	881a      	ldrh	r2, [r3, #0]
 800575c:	230f      	movs	r3, #15
 800575e:	18fb      	adds	r3, r7, r3
 8005760:	7819      	ldrb	r1, [r3, #0]
 8005762:	687b      	ldr	r3, [r7, #4]
 8005764:	0018      	movs	r0, r3
 8005766:	f7ff fe59 	bl	800541c <HAL_I2C_AddrCallback>
    __HAL_I2C_CLEAR_FLAG(hi2c, I2C_FLAG_ADDR);

    /* Process Unlocked */
    __HAL_UNLOCK(hi2c);
  }
}
 800576a:	e034      	b.n	80057d6 <I2C_ITAddrCplt+0x142>
        slaveaddrcode = ownadd2code;
 800576c:	240c      	movs	r4, #12
 800576e:	193b      	adds	r3, r7, r4
 8005770:	2208      	movs	r2, #8
 8005772:	18ba      	adds	r2, r7, r2
 8005774:	8812      	ldrh	r2, [r2, #0]
 8005776:	801a      	strh	r2, [r3, #0]
        I2C_Disable_IRQ(hi2c, I2C_XFER_LISTEN_IT);
 8005778:	687b      	ldr	r3, [r7, #4]
 800577a:	2104      	movs	r1, #4
 800577c:	0018      	movs	r0, r3
 800577e:	f000 fabf 	bl	8005d00 <I2C_Disable_IRQ>
        __HAL_UNLOCK(hi2c);
 8005782:	687b      	ldr	r3, [r7, #4]
 8005784:	2240      	movs	r2, #64	; 0x40
 8005786:	2100      	movs	r1, #0
 8005788:	5499      	strb	r1, [r3, r2]
        HAL_I2C_AddrCallback(hi2c, transferdirection, slaveaddrcode);
 800578a:	193b      	adds	r3, r7, r4
 800578c:	881a      	ldrh	r2, [r3, #0]
 800578e:	230f      	movs	r3, #15
 8005790:	18fb      	adds	r3, r7, r3
 8005792:	7819      	ldrb	r1, [r3, #0]
 8005794:	687b      	ldr	r3, [r7, #4]
 8005796:	0018      	movs	r0, r3
 8005798:	f7ff fe40 	bl	800541c <HAL_I2C_AddrCallback>
}
 800579c:	e01b      	b.n	80057d6 <I2C_ITAddrCplt+0x142>
      I2C_Disable_IRQ(hi2c, I2C_XFER_LISTEN_IT);
 800579e:	687b      	ldr	r3, [r7, #4]
 80057a0:	2104      	movs	r1, #4
 80057a2:	0018      	movs	r0, r3
 80057a4:	f000 faac 	bl	8005d00 <I2C_Disable_IRQ>
      __HAL_UNLOCK(hi2c);
 80057a8:	687b      	ldr	r3, [r7, #4]
 80057aa:	2240      	movs	r2, #64	; 0x40
 80057ac:	2100      	movs	r1, #0
 80057ae:	5499      	strb	r1, [r3, r2]
      HAL_I2C_AddrCallback(hi2c, transferdirection, slaveaddrcode);
 80057b0:	230c      	movs	r3, #12
 80057b2:	18fb      	adds	r3, r7, r3
 80057b4:	881a      	ldrh	r2, [r3, #0]
 80057b6:	230f      	movs	r3, #15
 80057b8:	18fb      	adds	r3, r7, r3
 80057ba:	7819      	ldrb	r1, [r3, #0]
 80057bc:	687b      	ldr	r3, [r7, #4]
 80057be:	0018      	movs	r0, r3
 80057c0:	f7ff fe2c 	bl	800541c <HAL_I2C_AddrCallback>
}
 80057c4:	e007      	b.n	80057d6 <I2C_ITAddrCplt+0x142>
    __HAL_I2C_CLEAR_FLAG(hi2c, I2C_FLAG_ADDR);
 80057c6:	687b      	ldr	r3, [r7, #4]
 80057c8:	681b      	ldr	r3, [r3, #0]
 80057ca:	2208      	movs	r2, #8
 80057cc:	61da      	str	r2, [r3, #28]
    __HAL_UNLOCK(hi2c);
 80057ce:	687b      	ldr	r3, [r7, #4]
 80057d0:	2240      	movs	r2, #64	; 0x40
 80057d2:	2100      	movs	r1, #0
 80057d4:	5499      	strb	r1, [r3, r2]
}
 80057d6:	46c0      	nop			; (mov r8, r8)
 80057d8:	46bd      	mov	sp, r7
 80057da:	b005      	add	sp, #20
 80057dc:	bd90      	pop	{r4, r7, pc}

080057de <I2C_ITSlaveSeqCplt>:
  * @brief  I2C Slave sequential complete process.
  * @param  hi2c I2C handle.
  * @retval None
  */
static void I2C_ITSlaveSeqCplt(I2C_HandleTypeDef *hi2c)
{
 80057de:	b580      	push	{r7, lr}
 80057e0:	b082      	sub	sp, #8
 80057e2:	af00      	add	r7, sp, #0
 80057e4:	6078      	str	r0, [r7, #4]
  /* Reset I2C handle mode */
  hi2c->Mode = HAL_I2C_MODE_NONE;
 80057e6:	687b      	ldr	r3, [r7, #4]
 80057e8:	2242      	movs	r2, #66	; 0x42
 80057ea:	2100      	movs	r1, #0
 80057ec:	5499      	strb	r1, [r3, r2]

  if (hi2c->State == HAL_I2C_STATE_BUSY_TX_LISTEN)
 80057ee:	687b      	ldr	r3, [r7, #4]
 80057f0:	2241      	movs	r2, #65	; 0x41
 80057f2:	5c9b      	ldrb	r3, [r3, r2]
 80057f4:	b2db      	uxtb	r3, r3
 80057f6:	2b29      	cmp	r3, #41	; 0x29
 80057f8:	d114      	bne.n	8005824 <I2C_ITSlaveSeqCplt+0x46>
  {
    /* Remove HAL_I2C_STATE_SLAVE_BUSY_TX, keep only HAL_I2C_STATE_LISTEN */
    hi2c->State         = HAL_I2C_STATE_LISTEN;
 80057fa:	687b      	ldr	r3, [r7, #4]
 80057fc:	2241      	movs	r2, #65	; 0x41
 80057fe:	2128      	movs	r1, #40	; 0x28
 8005800:	5499      	strb	r1, [r3, r2]
    hi2c->PreviousState = I2C_STATE_SLAVE_BUSY_TX;
 8005802:	687b      	ldr	r3, [r7, #4]
 8005804:	2221      	movs	r2, #33	; 0x21
 8005806:	631a      	str	r2, [r3, #48]	; 0x30

    /* Disable Interrupts */
    I2C_Disable_IRQ(hi2c, I2C_XFER_TX_IT);
 8005808:	687b      	ldr	r3, [r7, #4]
 800580a:	2101      	movs	r1, #1
 800580c:	0018      	movs	r0, r3
 800580e:	f000 fa77 	bl	8005d00 <I2C_Disable_IRQ>

    /* Process Unlocked */
    __HAL_UNLOCK(hi2c);
 8005812:	687b      	ldr	r3, [r7, #4]
 8005814:	2240      	movs	r2, #64	; 0x40
 8005816:	2100      	movs	r1, #0
 8005818:	5499      	strb	r1, [r3, r2]

    /* Call the corresponding callback to inform upper layer of End of Transfer */
#if (USE_HAL_I2C_REGISTER_CALLBACKS == 1)
    hi2c->SlaveTxCpltCallback(hi2c);
#else
    HAL_I2C_SlaveTxCpltCallback(hi2c);
 800581a:	687b      	ldr	r3, [r7, #4]
 800581c:	0018      	movs	r0, r3
 800581e:	f7ff fded 	bl	80053fc <HAL_I2C_SlaveTxCpltCallback>
  }
  else
  {
    /* Nothing to do */
  }
}
 8005822:	e019      	b.n	8005858 <I2C_ITSlaveSeqCplt+0x7a>
  else if (hi2c->State == HAL_I2C_STATE_BUSY_RX_LISTEN)
 8005824:	687b      	ldr	r3, [r7, #4]
 8005826:	2241      	movs	r2, #65	; 0x41
 8005828:	5c9b      	ldrb	r3, [r3, r2]
 800582a:	b2db      	uxtb	r3, r3
 800582c:	2b2a      	cmp	r3, #42	; 0x2a
 800582e:	d113      	bne.n	8005858 <I2C_ITSlaveSeqCplt+0x7a>
    hi2c->State         = HAL_I2C_STATE_LISTEN;
 8005830:	687b      	ldr	r3, [r7, #4]
 8005832:	2241      	movs	r2, #65	; 0x41
 8005834:	2128      	movs	r1, #40	; 0x28
 8005836:	5499      	strb	r1, [r3, r2]
    hi2c->PreviousState = I2C_STATE_SLAVE_BUSY_RX;
 8005838:	687b      	ldr	r3, [r7, #4]
 800583a:	2222      	movs	r2, #34	; 0x22
 800583c:	631a      	str	r2, [r3, #48]	; 0x30
    I2C_Disable_IRQ(hi2c, I2C_XFER_RX_IT);
 800583e:	687b      	ldr	r3, [r7, #4]
 8005840:	2102      	movs	r1, #2
 8005842:	0018      	movs	r0, r3
 8005844:	f000 fa5c 	bl	8005d00 <I2C_Disable_IRQ>
    __HAL_UNLOCK(hi2c);
 8005848:	687b      	ldr	r3, [r7, #4]
 800584a:	2240      	movs	r2, #64	; 0x40
 800584c:	2100      	movs	r1, #0
 800584e:	5499      	strb	r1, [r3, r2]
    HAL_I2C_SlaveRxCpltCallback(hi2c);
 8005850:	687b      	ldr	r3, [r7, #4]
 8005852:	0018      	movs	r0, r3
 8005854:	f7ff fdda 	bl	800540c <HAL_I2C_SlaveRxCpltCallback>
}
 8005858:	46c0      	nop			; (mov r8, r8)
 800585a:	46bd      	mov	sp, r7
 800585c:	b002      	add	sp, #8
 800585e:	bd80      	pop	{r7, pc}

08005860 <I2C_ITSlaveCplt>:
  * @param  hi2c I2C handle.
  * @param  ITFlags Interrupt flags to handle.
  * @retval None
  */
static void I2C_ITSlaveCplt(I2C_HandleTypeDef *hi2c, uint32_t ITFlags)
{
 8005860:	b580      	push	{r7, lr}
 8005862:	b084      	sub	sp, #16
 8005864:	af00      	add	r7, sp, #0
 8005866:	6078      	str	r0, [r7, #4]
 8005868:	6039      	str	r1, [r7, #0]
  uint32_t tmpcr1value = READ_REG(hi2c->Instance->CR1);
 800586a:	687b      	ldr	r3, [r7, #4]
 800586c:	681b      	ldr	r3, [r3, #0]
 800586e:	681b      	ldr	r3, [r3, #0]
 8005870:	60bb      	str	r3, [r7, #8]
  uint32_t tmpITFlags = ITFlags;
 8005872:	683b      	ldr	r3, [r7, #0]
 8005874:	60fb      	str	r3, [r7, #12]

  /* Clear STOP Flag */
  __HAL_I2C_CLEAR_FLAG(hi2c, I2C_FLAG_STOPF);
 8005876:	687b      	ldr	r3, [r7, #4]
 8005878:	681b      	ldr	r3, [r3, #0]
 800587a:	2220      	movs	r2, #32
 800587c:	61da      	str	r2, [r3, #28]

  /* Disable all interrupts */
  I2C_Disable_IRQ(hi2c, I2C_XFER_LISTEN_IT | I2C_XFER_TX_IT | I2C_XFER_RX_IT);
 800587e:	687b      	ldr	r3, [r7, #4]
 8005880:	2107      	movs	r1, #7
 8005882:	0018      	movs	r0, r3
 8005884:	f000 fa3c 	bl	8005d00 <I2C_Disable_IRQ>

  /* Disable Address Acknowledge */
  hi2c->Instance->CR2 |= I2C_CR2_NACK;
 8005888:	687b      	ldr	r3, [r7, #4]
 800588a:	681b      	ldr	r3, [r3, #0]
 800588c:	685a      	ldr	r2, [r3, #4]
 800588e:	687b      	ldr	r3, [r7, #4]
 8005890:	681b      	ldr	r3, [r3, #0]
 8005892:	2180      	movs	r1, #128	; 0x80
 8005894:	0209      	lsls	r1, r1, #8
 8005896:	430a      	orrs	r2, r1
 8005898:	605a      	str	r2, [r3, #4]

  /* Clear Configuration Register 2 */
  I2C_RESET_CR2(hi2c);
 800589a:	687b      	ldr	r3, [r7, #4]
 800589c:	681b      	ldr	r3, [r3, #0]
 800589e:	685a      	ldr	r2, [r3, #4]
 80058a0:	687b      	ldr	r3, [r7, #4]
 80058a2:	681b      	ldr	r3, [r3, #0]
 80058a4:	495c      	ldr	r1, [pc, #368]	; (8005a18 <I2C_ITSlaveCplt+0x1b8>)
 80058a6:	400a      	ands	r2, r1
 80058a8:	605a      	str	r2, [r3, #4]

  /* Flush TX register */
  I2C_Flush_TXDR(hi2c);
 80058aa:	687b      	ldr	r3, [r7, #4]
 80058ac:	0018      	movs	r0, r3
 80058ae:	f000 f9df 	bl	8005c70 <I2C_Flush_TXDR>

  /* If a DMA is ongoing, Update handle size context */
  if (I2C_CHECK_IT_SOURCE(tmpcr1value, I2C_CR1_TXDMAEN) != RESET)
 80058b2:	68bb      	ldr	r3, [r7, #8]
 80058b4:	0b9b      	lsrs	r3, r3, #14
 80058b6:	001a      	movs	r2, r3
 80058b8:	2301      	movs	r3, #1
 80058ba:	4013      	ands	r3, r2
 80058bc:	d00b      	beq.n	80058d6 <I2C_ITSlaveCplt+0x76>
  {
    if (hi2c->hdmatx != NULL)
 80058be:	687b      	ldr	r3, [r7, #4]
 80058c0:	6b9b      	ldr	r3, [r3, #56]	; 0x38
 80058c2:	2b00      	cmp	r3, #0
 80058c4:	d018      	beq.n	80058f8 <I2C_ITSlaveCplt+0x98>
    {
      hi2c->XferCount = (uint16_t)__HAL_DMA_GET_COUNTER(hi2c->hdmatx);
 80058c6:	687b      	ldr	r3, [r7, #4]
 80058c8:	6b9b      	ldr	r3, [r3, #56]	; 0x38
 80058ca:	681b      	ldr	r3, [r3, #0]
 80058cc:	685b      	ldr	r3, [r3, #4]
 80058ce:	b29a      	uxth	r2, r3
 80058d0:	687b      	ldr	r3, [r7, #4]
 80058d2:	855a      	strh	r2, [r3, #42]	; 0x2a
 80058d4:	e010      	b.n	80058f8 <I2C_ITSlaveCplt+0x98>
    }
  }
  else if (I2C_CHECK_IT_SOURCE(tmpcr1value, I2C_CR1_RXDMAEN) != RESET)
 80058d6:	68bb      	ldr	r3, [r7, #8]
 80058d8:	0bdb      	lsrs	r3, r3, #15
 80058da:	001a      	movs	r2, r3
 80058dc:	2301      	movs	r3, #1
 80058de:	4013      	ands	r3, r2
 80058e0:	d00a      	beq.n	80058f8 <I2C_ITSlaveCplt+0x98>
  {
    if (hi2c->hdmarx != NULL)
 80058e2:	687b      	ldr	r3, [r7, #4]
 80058e4:	6bdb      	ldr	r3, [r3, #60]	; 0x3c
 80058e6:	2b00      	cmp	r3, #0
 80058e8:	d006      	beq.n	80058f8 <I2C_ITSlaveCplt+0x98>
    {
      hi2c->XferCount = (uint16_t)__HAL_DMA_GET_COUNTER(hi2c->hdmarx);
 80058ea:	687b      	ldr	r3, [r7, #4]
 80058ec:	6bdb      	ldr	r3, [r3, #60]	; 0x3c
 80058ee:	681b      	ldr	r3, [r3, #0]
 80058f0:	685b      	ldr	r3, [r3, #4]
 80058f2:	b29a      	uxth	r2, r3
 80058f4:	687b      	ldr	r3, [r7, #4]
 80058f6:	855a      	strh	r2, [r3, #42]	; 0x2a
  {
    /* Do nothing */
  }

  /* Store Last receive data if any */
  if (I2C_CHECK_FLAG(tmpITFlags, I2C_FLAG_RXNE) != RESET)
 80058f8:	68fb      	ldr	r3, [r7, #12]
 80058fa:	089b      	lsrs	r3, r3, #2
 80058fc:	001a      	movs	r2, r3
 80058fe:	2301      	movs	r3, #1
 8005900:	4013      	ands	r3, r2
 8005902:	d020      	beq.n	8005946 <I2C_ITSlaveCplt+0xe6>
  {
    /* Remove RXNE flag on temporary variable as read done */
    tmpITFlags &= ~I2C_FLAG_RXNE;
 8005904:	68fb      	ldr	r3, [r7, #12]
 8005906:	2204      	movs	r2, #4
 8005908:	4393      	bics	r3, r2
 800590a:	60fb      	str	r3, [r7, #12]

    /* Read data from RXDR */
    *hi2c->pBuffPtr = (uint8_t)hi2c->Instance->RXDR;
 800590c:	687b      	ldr	r3, [r7, #4]
 800590e:	681b      	ldr	r3, [r3, #0]
 8005910:	6a5a      	ldr	r2, [r3, #36]	; 0x24
 8005912:	687b      	ldr	r3, [r7, #4]
 8005914:	6a5b      	ldr	r3, [r3, #36]	; 0x24
 8005916:	b2d2      	uxtb	r2, r2
 8005918:	701a      	strb	r2, [r3, #0]

    /* Increment Buffer pointer */
    hi2c->pBuffPtr++;
 800591a:	687b      	ldr	r3, [r7, #4]
 800591c:	6a5b      	ldr	r3, [r3, #36]	; 0x24
 800591e:	1c5a      	adds	r2, r3, #1
 8005920:	687b      	ldr	r3, [r7, #4]
 8005922:	625a      	str	r2, [r3, #36]	; 0x24

    if ((hi2c->XferSize > 0U))
 8005924:	687b      	ldr	r3, [r7, #4]
 8005926:	8d1b      	ldrh	r3, [r3, #40]	; 0x28
 8005928:	2b00      	cmp	r3, #0
 800592a:	d00c      	beq.n	8005946 <I2C_ITSlaveCplt+0xe6>
    {
      hi2c->XferSize--;
 800592c:	687b      	ldr	r3, [r7, #4]
 800592e:	8d1b      	ldrh	r3, [r3, #40]	; 0x28
 8005930:	3b01      	subs	r3, #1
 8005932:	b29a      	uxth	r2, r3
 8005934:	687b      	ldr	r3, [r7, #4]
 8005936:	851a      	strh	r2, [r3, #40]	; 0x28
      hi2c->XferCount--;
 8005938:	687b      	ldr	r3, [r7, #4]
 800593a:	8d5b      	ldrh	r3, [r3, #42]	; 0x2a
 800593c:	b29b      	uxth	r3, r3
 800593e:	3b01      	subs	r3, #1
 8005940:	b29a      	uxth	r2, r3
 8005942:	687b      	ldr	r3, [r7, #4]
 8005944:	855a      	strh	r2, [r3, #42]	; 0x2a
    }
  }

  /* All data are not transferred, so set error code accordingly */
  if (hi2c->XferCount != 0U)
 8005946:	687b      	ldr	r3, [r7, #4]
 8005948:	8d5b      	ldrh	r3, [r3, #42]	; 0x2a
 800594a:	b29b      	uxth	r3, r3
 800594c:	2b00      	cmp	r3, #0
 800594e:	d005      	beq.n	800595c <I2C_ITSlaveCplt+0xfc>
  {
    /* Set ErrorCode corresponding to a Non-Acknowledge */
    hi2c->ErrorCode |= HAL_I2C_ERROR_AF;
 8005950:	687b      	ldr	r3, [r7, #4]
 8005952:	6c5b      	ldr	r3, [r3, #68]	; 0x44
 8005954:	2204      	movs	r2, #4
 8005956:	431a      	orrs	r2, r3
 8005958:	687b      	ldr	r3, [r7, #4]
 800595a:	645a      	str	r2, [r3, #68]	; 0x44
  }

  hi2c->PreviousState = I2C_STATE_NONE;
 800595c:	687b      	ldr	r3, [r7, #4]
 800595e:	2200      	movs	r2, #0
 8005960:	631a      	str	r2, [r3, #48]	; 0x30
  hi2c->Mode = HAL_I2C_MODE_NONE;
 8005962:	687b      	ldr	r3, [r7, #4]
 8005964:	2242      	movs	r2, #66	; 0x42
 8005966:	2100      	movs	r1, #0
 8005968:	5499      	strb	r1, [r3, r2]
  hi2c->XferISR = NULL;
 800596a:	687b      	ldr	r3, [r7, #4]
 800596c:	2200      	movs	r2, #0
 800596e:	635a      	str	r2, [r3, #52]	; 0x34

  if (hi2c->ErrorCode != HAL_I2C_ERROR_NONE)
 8005970:	687b      	ldr	r3, [r7, #4]
 8005972:	6c5b      	ldr	r3, [r3, #68]	; 0x44
 8005974:	2b00      	cmp	r3, #0
 8005976:	d013      	beq.n	80059a0 <I2C_ITSlaveCplt+0x140>
  {
    /* Call the corresponding callback to inform upper layer of End of Transfer */
    I2C_ITError(hi2c, hi2c->ErrorCode);
 8005978:	687b      	ldr	r3, [r7, #4]
 800597a:	6c5a      	ldr	r2, [r3, #68]	; 0x44
 800597c:	687b      	ldr	r3, [r7, #4]
 800597e:	0011      	movs	r1, r2
 8005980:	0018      	movs	r0, r3
 8005982:	f000 f8a3 	bl	8005acc <I2C_ITError>

    /* Call the Listen Complete callback, to inform upper layer of the end of Listen usecase */
    if (hi2c->State == HAL_I2C_STATE_LISTEN)
 8005986:	687b      	ldr	r3, [r7, #4]
 8005988:	2241      	movs	r2, #65	; 0x41
 800598a:	5c9b      	ldrb	r3, [r3, r2]
 800598c:	b2db      	uxtb	r3, r3
 800598e:	2b28      	cmp	r3, #40	; 0x28
 8005990:	d13e      	bne.n	8005a10 <I2C_ITSlaveCplt+0x1b0>
    {
      /* Call I2C Listen complete process */
      I2C_ITListenCplt(hi2c, tmpITFlags);
 8005992:	68fa      	ldr	r2, [r7, #12]
 8005994:	687b      	ldr	r3, [r7, #4]
 8005996:	0011      	movs	r1, r2
 8005998:	0018      	movs	r0, r3
 800599a:	f000 f841 	bl	8005a20 <I2C_ITListenCplt>
    hi2c->SlaveTxCpltCallback(hi2c);
#else
    HAL_I2C_SlaveTxCpltCallback(hi2c);
#endif /* USE_HAL_I2C_REGISTER_CALLBACKS */
  }
}
 800599e:	e037      	b.n	8005a10 <I2C_ITSlaveCplt+0x1b0>
  else if (hi2c->XferOptions != I2C_NO_OPTION_FRAME)
 80059a0:	687b      	ldr	r3, [r7, #4]
 80059a2:	6adb      	ldr	r3, [r3, #44]	; 0x2c
 80059a4:	4a1d      	ldr	r2, [pc, #116]	; (8005a1c <I2C_ITSlaveCplt+0x1bc>)
 80059a6:	4293      	cmp	r3, r2
 80059a8:	d013      	beq.n	80059d2 <I2C_ITSlaveCplt+0x172>
    I2C_ITSlaveSeqCplt(hi2c);
 80059aa:	687b      	ldr	r3, [r7, #4]
 80059ac:	0018      	movs	r0, r3
 80059ae:	f7ff ff16 	bl	80057de <I2C_ITSlaveSeqCplt>
    hi2c->XferOptions = I2C_NO_OPTION_FRAME;
 80059b2:	687b      	ldr	r3, [r7, #4]
 80059b4:	4a19      	ldr	r2, [pc, #100]	; (8005a1c <I2C_ITSlaveCplt+0x1bc>)
 80059b6:	62da      	str	r2, [r3, #44]	; 0x2c
    hi2c->State = HAL_I2C_STATE_READY;
 80059b8:	687b      	ldr	r3, [r7, #4]
 80059ba:	2241      	movs	r2, #65	; 0x41
 80059bc:	2120      	movs	r1, #32
 80059be:	5499      	strb	r1, [r3, r2]
    __HAL_UNLOCK(hi2c);
 80059c0:	687b      	ldr	r3, [r7, #4]
 80059c2:	2240      	movs	r2, #64	; 0x40
 80059c4:	2100      	movs	r1, #0
 80059c6:	5499      	strb	r1, [r3, r2]
    HAL_I2C_ListenCpltCallback(hi2c);
 80059c8:	687b      	ldr	r3, [r7, #4]
 80059ca:	0018      	movs	r0, r3
 80059cc:	f7ff fd36 	bl	800543c <HAL_I2C_ListenCpltCallback>
}
 80059d0:	e01e      	b.n	8005a10 <I2C_ITSlaveCplt+0x1b0>
  else if (hi2c->State == HAL_I2C_STATE_BUSY_RX)
 80059d2:	687b      	ldr	r3, [r7, #4]
 80059d4:	2241      	movs	r2, #65	; 0x41
 80059d6:	5c9b      	ldrb	r3, [r3, r2]
 80059d8:	b2db      	uxtb	r3, r3
 80059da:	2b22      	cmp	r3, #34	; 0x22
 80059dc:	d10c      	bne.n	80059f8 <I2C_ITSlaveCplt+0x198>
    hi2c->State = HAL_I2C_STATE_READY;
 80059de:	687b      	ldr	r3, [r7, #4]
 80059e0:	2241      	movs	r2, #65	; 0x41
 80059e2:	2120      	movs	r1, #32
 80059e4:	5499      	strb	r1, [r3, r2]
    __HAL_UNLOCK(hi2c);
 80059e6:	687b      	ldr	r3, [r7, #4]
 80059e8:	2240      	movs	r2, #64	; 0x40
 80059ea:	2100      	movs	r1, #0
 80059ec:	5499      	strb	r1, [r3, r2]
    HAL_I2C_SlaveRxCpltCallback(hi2c);
 80059ee:	687b      	ldr	r3, [r7, #4]
 80059f0:	0018      	movs	r0, r3
 80059f2:	f7ff fd0b 	bl	800540c <HAL_I2C_SlaveRxCpltCallback>
}
 80059f6:	e00b      	b.n	8005a10 <I2C_ITSlaveCplt+0x1b0>
    hi2c->State = HAL_I2C_STATE_READY;
 80059f8:	687b      	ldr	r3, [r7, #4]
 80059fa:	2241      	movs	r2, #65	; 0x41
 80059fc:	2120      	movs	r1, #32
 80059fe:	5499      	strb	r1, [r3, r2]
    __HAL_UNLOCK(hi2c);
 8005a00:	687b      	ldr	r3, [r7, #4]
 8005a02:	2240      	movs	r2, #64	; 0x40
 8005a04:	2100      	movs	r1, #0
 8005a06:	5499      	strb	r1, [r3, r2]
    HAL_I2C_SlaveTxCpltCallback(hi2c);
 8005a08:	687b      	ldr	r3, [r7, #4]
 8005a0a:	0018      	movs	r0, r3
 8005a0c:	f7ff fcf6 	bl	80053fc <HAL_I2C_SlaveTxCpltCallback>
}
 8005a10:	46c0      	nop			; (mov r8, r8)
 8005a12:	46bd      	mov	sp, r7
 8005a14:	b004      	add	sp, #16
 8005a16:	bd80      	pop	{r7, pc}
 8005a18:	fe00e800 	.word	0xfe00e800
 8005a1c:	ffff0000 	.word	0xffff0000

08005a20 <I2C_ITListenCplt>:
  * @param  hi2c I2C handle.
  * @param  ITFlags Interrupt flags to handle.
  * @retval None
  */
static void I2C_ITListenCplt(I2C_HandleTypeDef *hi2c, uint32_t ITFlags)
{
 8005a20:	b580      	push	{r7, lr}
 8005a22:	b082      	sub	sp, #8
 8005a24:	af00      	add	r7, sp, #0
 8005a26:	6078      	str	r0, [r7, #4]
 8005a28:	6039      	str	r1, [r7, #0]
  /* Reset handle parameters */
  hi2c->XferOptions = I2C_NO_OPTION_FRAME;
 8005a2a:	687b      	ldr	r3, [r7, #4]
 8005a2c:	4a26      	ldr	r2, [pc, #152]	; (8005ac8 <I2C_ITListenCplt+0xa8>)
 8005a2e:	62da      	str	r2, [r3, #44]	; 0x2c
  hi2c->PreviousState = I2C_STATE_NONE;
 8005a30:	687b      	ldr	r3, [r7, #4]
 8005a32:	2200      	movs	r2, #0
 8005a34:	631a      	str	r2, [r3, #48]	; 0x30
  hi2c->State = HAL_I2C_STATE_READY;
 8005a36:	687b      	ldr	r3, [r7, #4]
 8005a38:	2241      	movs	r2, #65	; 0x41
 8005a3a:	2120      	movs	r1, #32
 8005a3c:	5499      	strb	r1, [r3, r2]
  hi2c->Mode = HAL_I2C_MODE_NONE;
 8005a3e:	687b      	ldr	r3, [r7, #4]
 8005a40:	2242      	movs	r2, #66	; 0x42
 8005a42:	2100      	movs	r1, #0
 8005a44:	5499      	strb	r1, [r3, r2]
  hi2c->XferISR = NULL;
 8005a46:	687b      	ldr	r3, [r7, #4]
 8005a48:	2200      	movs	r2, #0
 8005a4a:	635a      	str	r2, [r3, #52]	; 0x34

  /* Store Last receive data if any */
  if (I2C_CHECK_FLAG(ITFlags, I2C_FLAG_RXNE) != RESET)
 8005a4c:	683b      	ldr	r3, [r7, #0]
 8005a4e:	089b      	lsrs	r3, r3, #2
 8005a50:	001a      	movs	r2, r3
 8005a52:	2301      	movs	r3, #1
 8005a54:	4013      	ands	r3, r2
 8005a56:	d022      	beq.n	8005a9e <I2C_ITListenCplt+0x7e>
  {
    /* Read data from RXDR */
    *hi2c->pBuffPtr = (uint8_t)hi2c->Instance->RXDR;
 8005a58:	687b      	ldr	r3, [r7, #4]
 8005a5a:	681b      	ldr	r3, [r3, #0]
 8005a5c:	6a5a      	ldr	r2, [r3, #36]	; 0x24
 8005a5e:	687b      	ldr	r3, [r7, #4]
 8005a60:	6a5b      	ldr	r3, [r3, #36]	; 0x24
 8005a62:	b2d2      	uxtb	r2, r2
 8005a64:	701a      	strb	r2, [r3, #0]

    /* Increment Buffer pointer */
    hi2c->pBuffPtr++;
 8005a66:	687b      	ldr	r3, [r7, #4]
 8005a68:	6a5b      	ldr	r3, [r3, #36]	; 0x24
 8005a6a:	1c5a      	adds	r2, r3, #1
 8005a6c:	687b      	ldr	r3, [r7, #4]
 8005a6e:	625a      	str	r2, [r3, #36]	; 0x24

    if ((hi2c->XferSize > 0U))
 8005a70:	687b      	ldr	r3, [r7, #4]
 8005a72:	8d1b      	ldrh	r3, [r3, #40]	; 0x28
 8005a74:	2b00      	cmp	r3, #0
 8005a76:	d012      	beq.n	8005a9e <I2C_ITListenCplt+0x7e>
    {
      hi2c->XferSize--;
 8005a78:	687b      	ldr	r3, [r7, #4]
 8005a7a:	8d1b      	ldrh	r3, [r3, #40]	; 0x28
 8005a7c:	3b01      	subs	r3, #1
 8005a7e:	b29a      	uxth	r2, r3
 8005a80:	687b      	ldr	r3, [r7, #4]
 8005a82:	851a      	strh	r2, [r3, #40]	; 0x28
      hi2c->XferCount--;
 8005a84:	687b      	ldr	r3, [r7, #4]
 8005a86:	8d5b      	ldrh	r3, [r3, #42]	; 0x2a
 8005a88:	b29b      	uxth	r3, r3
 8005a8a:	3b01      	subs	r3, #1
 8005a8c:	b29a      	uxth	r2, r3
 8005a8e:	687b      	ldr	r3, [r7, #4]
 8005a90:	855a      	strh	r2, [r3, #42]	; 0x2a

      /* Set ErrorCode corresponding to a Non-Acknowledge */
      hi2c->ErrorCode |= HAL_I2C_ERROR_AF;
 8005a92:	687b      	ldr	r3, [r7, #4]
 8005a94:	6c5b      	ldr	r3, [r3, #68]	; 0x44
 8005a96:	2204      	movs	r2, #4
 8005a98:	431a      	orrs	r2, r3
 8005a9a:	687b      	ldr	r3, [r7, #4]
 8005a9c:	645a      	str	r2, [r3, #68]	; 0x44
    }
  }

  /* Disable all Interrupts*/
  I2C_Disable_IRQ(hi2c, I2C_XFER_LISTEN_IT | I2C_XFER_RX_IT | I2C_XFER_TX_IT);
 8005a9e:	687b      	ldr	r3, [r7, #4]
 8005aa0:	2107      	movs	r1, #7
 8005aa2:	0018      	movs	r0, r3
 8005aa4:	f000 f92c 	bl	8005d00 <I2C_Disable_IRQ>

  /* Clear NACK Flag */
  __HAL_I2C_CLEAR_FLAG(hi2c, I2C_FLAG_AF);
 8005aa8:	687b      	ldr	r3, [r7, #4]
 8005aaa:	681b      	ldr	r3, [r3, #0]
 8005aac:	2210      	movs	r2, #16
 8005aae:	61da      	str	r2, [r3, #28]

  /* Process Unlocked */
  __HAL_UNLOCK(hi2c);
 8005ab0:	687b      	ldr	r3, [r7, #4]
 8005ab2:	2240      	movs	r2, #64	; 0x40
 8005ab4:	2100      	movs	r1, #0
 8005ab6:	5499      	strb	r1, [r3, r2]

  /* Call the Listen Complete callback, to inform upper layer of the end of Listen usecase */
#if (USE_HAL_I2C_REGISTER_CALLBACKS == 1)
  hi2c->ListenCpltCallback(hi2c);
#else
  HAL_I2C_ListenCpltCallback(hi2c);
 8005ab8:	687b      	ldr	r3, [r7, #4]
 8005aba:	0018      	movs	r0, r3
 8005abc:	f7ff fcbe 	bl	800543c <HAL_I2C_ListenCpltCallback>
#endif /* USE_HAL_I2C_REGISTER_CALLBACKS */
}
 8005ac0:	46c0      	nop			; (mov r8, r8)
 8005ac2:	46bd      	mov	sp, r7
 8005ac4:	b002      	add	sp, #8
 8005ac6:	bd80      	pop	{r7, pc}
 8005ac8:	ffff0000 	.word	0xffff0000

08005acc <I2C_ITError>:
  * @param  hi2c I2C handle.
  * @param  ErrorCode Error code to handle.
  * @retval None
  */
static void I2C_ITError(I2C_HandleTypeDef *hi2c, uint32_t ErrorCode)
{
 8005acc:	b580      	push	{r7, lr}
 8005ace:	b084      	sub	sp, #16
 8005ad0:	af00      	add	r7, sp, #0
 8005ad2:	6078      	str	r0, [r7, #4]
 8005ad4:	6039      	str	r1, [r7, #0]
  HAL_I2C_StateTypeDef tmpstate = hi2c->State;
 8005ad6:	200f      	movs	r0, #15
 8005ad8:	183b      	adds	r3, r7, r0
 8005ada:	687a      	ldr	r2, [r7, #4]
 8005adc:	2141      	movs	r1, #65	; 0x41
 8005ade:	5c52      	ldrb	r2, [r2, r1]
 8005ae0:	701a      	strb	r2, [r3, #0]

  /* Reset handle parameters */
  hi2c->Mode          = HAL_I2C_MODE_NONE;
 8005ae2:	687b      	ldr	r3, [r7, #4]
 8005ae4:	2242      	movs	r2, #66	; 0x42
 8005ae6:	2100      	movs	r1, #0
 8005ae8:	5499      	strb	r1, [r3, r2]
  hi2c->XferOptions   = I2C_NO_OPTION_FRAME;
 8005aea:	687b      	ldr	r3, [r7, #4]
 8005aec:	4a5b      	ldr	r2, [pc, #364]	; (8005c5c <I2C_ITError+0x190>)
 8005aee:	62da      	str	r2, [r3, #44]	; 0x2c
  hi2c->XferCount     = 0U;
 8005af0:	687b      	ldr	r3, [r7, #4]
 8005af2:	2200      	movs	r2, #0
 8005af4:	855a      	strh	r2, [r3, #42]	; 0x2a

  /* Set new error code */
  hi2c->ErrorCode |= ErrorCode;
 8005af6:	687b      	ldr	r3, [r7, #4]
 8005af8:	6c5a      	ldr	r2, [r3, #68]	; 0x44
 8005afa:	683b      	ldr	r3, [r7, #0]
 8005afc:	431a      	orrs	r2, r3
 8005afe:	687b      	ldr	r3, [r7, #4]
 8005b00:	645a      	str	r2, [r3, #68]	; 0x44

  /* Disable Interrupts */
  if ((tmpstate == HAL_I2C_STATE_LISTEN)         ||
 8005b02:	183b      	adds	r3, r7, r0
 8005b04:	781b      	ldrb	r3, [r3, #0]
 8005b06:	2b28      	cmp	r3, #40	; 0x28
 8005b08:	d009      	beq.n	8005b1e <I2C_ITError+0x52>
 8005b0a:	230f      	movs	r3, #15
 8005b0c:	18fb      	adds	r3, r7, r3
 8005b0e:	781b      	ldrb	r3, [r3, #0]
 8005b10:	2b29      	cmp	r3, #41	; 0x29
 8005b12:	d004      	beq.n	8005b1e <I2C_ITError+0x52>
      (tmpstate == HAL_I2C_STATE_BUSY_TX_LISTEN) ||
 8005b14:	230f      	movs	r3, #15
 8005b16:	18fb      	adds	r3, r7, r3
 8005b18:	781b      	ldrb	r3, [r3, #0]
 8005b1a:	2b2a      	cmp	r3, #42	; 0x2a
 8005b1c:	d10f      	bne.n	8005b3e <I2C_ITError+0x72>
      (tmpstate == HAL_I2C_STATE_BUSY_RX_LISTEN))
  {
    /* Disable all interrupts, except interrupts related to LISTEN state */
    I2C_Disable_IRQ(hi2c, I2C_XFER_RX_IT | I2C_XFER_TX_IT);
 8005b1e:	687b      	ldr	r3, [r7, #4]
 8005b20:	2103      	movs	r1, #3
 8005b22:	0018      	movs	r0, r3
 8005b24:	f000 f8ec 	bl	8005d00 <I2C_Disable_IRQ>

    /* keep HAL_I2C_STATE_LISTEN if set */
    hi2c->State         = HAL_I2C_STATE_LISTEN;
 8005b28:	687b      	ldr	r3, [r7, #4]
 8005b2a:	2241      	movs	r2, #65	; 0x41
 8005b2c:	2128      	movs	r1, #40	; 0x28
 8005b2e:	5499      	strb	r1, [r3, r2]
    hi2c->PreviousState = I2C_STATE_NONE;
 8005b30:	687b      	ldr	r3, [r7, #4]
 8005b32:	2200      	movs	r2, #0
 8005b34:	631a      	str	r2, [r3, #48]	; 0x30
    hi2c->XferISR       = I2C_Slave_ISR_IT;
 8005b36:	687b      	ldr	r3, [r7, #4]
 8005b38:	4a49      	ldr	r2, [pc, #292]	; (8005c60 <I2C_ITError+0x194>)
 8005b3a:	635a      	str	r2, [r3, #52]	; 0x34
 8005b3c:	e014      	b.n	8005b68 <I2C_ITError+0x9c>
  }
  else
  {
    /* Disable all interrupts */
    I2C_Disable_IRQ(hi2c, I2C_XFER_LISTEN_IT | I2C_XFER_RX_IT | I2C_XFER_TX_IT);
 8005b3e:	687b      	ldr	r3, [r7, #4]
 8005b40:	2107      	movs	r1, #7
 8005b42:	0018      	movs	r0, r3
 8005b44:	f000 f8dc 	bl	8005d00 <I2C_Disable_IRQ>

    /* If state is an abort treatment on goind, don't change state */
    /* This change will be do later */
    if (hi2c->State != HAL_I2C_STATE_ABORT)
 8005b48:	687b      	ldr	r3, [r7, #4]
 8005b4a:	2241      	movs	r2, #65	; 0x41
 8005b4c:	5c9b      	ldrb	r3, [r3, r2]
 8005b4e:	b2db      	uxtb	r3, r3
 8005b50:	2b60      	cmp	r3, #96	; 0x60
 8005b52:	d003      	beq.n	8005b5c <I2C_ITError+0x90>
    {
      /* Set HAL_I2C_STATE_READY */
      hi2c->State         = HAL_I2C_STATE_READY;
 8005b54:	687b      	ldr	r3, [r7, #4]
 8005b56:	2241      	movs	r2, #65	; 0x41
 8005b58:	2120      	movs	r1, #32
 8005b5a:	5499      	strb	r1, [r3, r2]
    }
    hi2c->PreviousState = I2C_STATE_NONE;
 8005b5c:	687b      	ldr	r3, [r7, #4]
 8005b5e:	2200      	movs	r2, #0
 8005b60:	631a      	str	r2, [r3, #48]	; 0x30
    hi2c->XferISR       = NULL;
 8005b62:	687b      	ldr	r3, [r7, #4]
 8005b64:	2200      	movs	r2, #0
 8005b66:	635a      	str	r2, [r3, #52]	; 0x34
  }

  /* Abort DMA TX transfer if any */
  if ((hi2c->Instance->CR1 & I2C_CR1_TXDMAEN) == I2C_CR1_TXDMAEN)
 8005b68:	687b      	ldr	r3, [r7, #4]
 8005b6a:	681b      	ldr	r3, [r3, #0]
 8005b6c:	681a      	ldr	r2, [r3, #0]
 8005b6e:	2380      	movs	r3, #128	; 0x80
 8005b70:	01db      	lsls	r3, r3, #7
 8005b72:	401a      	ands	r2, r3
 8005b74:	2380      	movs	r3, #128	; 0x80
 8005b76:	01db      	lsls	r3, r3, #7
 8005b78:	429a      	cmp	r2, r3
 8005b7a:	d122      	bne.n	8005bc2 <I2C_ITError+0xf6>
  {
    hi2c->Instance->CR1 &= ~I2C_CR1_TXDMAEN;
 8005b7c:	687b      	ldr	r3, [r7, #4]
 8005b7e:	681b      	ldr	r3, [r3, #0]
 8005b80:	681a      	ldr	r2, [r3, #0]
 8005b82:	687b      	ldr	r3, [r7, #4]
 8005b84:	681b      	ldr	r3, [r3, #0]
 8005b86:	4937      	ldr	r1, [pc, #220]	; (8005c64 <I2C_ITError+0x198>)
 8005b88:	400a      	ands	r2, r1
 8005b8a:	601a      	str	r2, [r3, #0]

    if (hi2c->hdmatx != NULL)
 8005b8c:	687b      	ldr	r3, [r7, #4]
 8005b8e:	6b9b      	ldr	r3, [r3, #56]	; 0x38
 8005b90:	2b00      	cmp	r3, #0
 8005b92:	d05e      	beq.n	8005c52 <I2C_ITError+0x186>
    {
      /* Set the I2C DMA Abort callback :
       will lead to call HAL_I2C_ErrorCallback() at end of DMA abort procedure */
      hi2c->hdmatx->XferAbortCallback = I2C_DMAAbort;
 8005b94:	687b      	ldr	r3, [r7, #4]
 8005b96:	6b9b      	ldr	r3, [r3, #56]	; 0x38
 8005b98:	4a33      	ldr	r2, [pc, #204]	; (8005c68 <I2C_ITError+0x19c>)
 8005b9a:	635a      	str	r2, [r3, #52]	; 0x34

      /* Process Unlocked */
      __HAL_UNLOCK(hi2c);
 8005b9c:	687b      	ldr	r3, [r7, #4]
 8005b9e:	2240      	movs	r2, #64	; 0x40
 8005ba0:	2100      	movs	r1, #0
 8005ba2:	5499      	strb	r1, [r3, r2]

      /* Abort DMA TX */
      if (HAL_DMA_Abort_IT(hi2c->hdmatx) != HAL_OK)
 8005ba4:	687b      	ldr	r3, [r7, #4]
 8005ba6:	6b9b      	ldr	r3, [r3, #56]	; 0x38
 8005ba8:	0018      	movs	r0, r3
 8005baa:	f7ff f925 	bl	8004df8 <HAL_DMA_Abort_IT>
 8005bae:	1e03      	subs	r3, r0, #0
 8005bb0:	d04f      	beq.n	8005c52 <I2C_ITError+0x186>
      {
        /* Call Directly XferAbortCallback function in case of error */
        hi2c->hdmatx->XferAbortCallback(hi2c->hdmatx);
 8005bb2:	687b      	ldr	r3, [r7, #4]
 8005bb4:	6b9b      	ldr	r3, [r3, #56]	; 0x38
 8005bb6:	6b5a      	ldr	r2, [r3, #52]	; 0x34
 8005bb8:	687b      	ldr	r3, [r7, #4]
 8005bba:	6b9b      	ldr	r3, [r3, #56]	; 0x38
 8005bbc:	0018      	movs	r0, r3
 8005bbe:	4790      	blx	r2
    hi2c->ErrorCallback(hi2c);
#else
    HAL_I2C_ErrorCallback(hi2c);
#endif /* USE_HAL_I2C_REGISTER_CALLBACKS */
  }
}
 8005bc0:	e047      	b.n	8005c52 <I2C_ITError+0x186>
  else if ((hi2c->Instance->CR1 & I2C_CR1_RXDMAEN) == I2C_CR1_RXDMAEN)
 8005bc2:	687b      	ldr	r3, [r7, #4]
 8005bc4:	681b      	ldr	r3, [r3, #0]
 8005bc6:	681a      	ldr	r2, [r3, #0]
 8005bc8:	2380      	movs	r3, #128	; 0x80
 8005bca:	021b      	lsls	r3, r3, #8
 8005bcc:	401a      	ands	r2, r3
 8005bce:	2380      	movs	r3, #128	; 0x80
 8005bd0:	021b      	lsls	r3, r3, #8
 8005bd2:	429a      	cmp	r2, r3
 8005bd4:	d122      	bne.n	8005c1c <I2C_ITError+0x150>
    hi2c->Instance->CR1 &= ~I2C_CR1_RXDMAEN;
 8005bd6:	687b      	ldr	r3, [r7, #4]
 8005bd8:	681b      	ldr	r3, [r3, #0]
 8005bda:	681a      	ldr	r2, [r3, #0]
 8005bdc:	687b      	ldr	r3, [r7, #4]
 8005bde:	681b      	ldr	r3, [r3, #0]
 8005be0:	4922      	ldr	r1, [pc, #136]	; (8005c6c <I2C_ITError+0x1a0>)
 8005be2:	400a      	ands	r2, r1
 8005be4:	601a      	str	r2, [r3, #0]
    if (hi2c->hdmarx != NULL)
 8005be6:	687b      	ldr	r3, [r7, #4]
 8005be8:	6bdb      	ldr	r3, [r3, #60]	; 0x3c
 8005bea:	2b00      	cmp	r3, #0
 8005bec:	d031      	beq.n	8005c52 <I2C_ITError+0x186>
      hi2c->hdmarx->XferAbortCallback = I2C_DMAAbort;
 8005bee:	687b      	ldr	r3, [r7, #4]
 8005bf0:	6bdb      	ldr	r3, [r3, #60]	; 0x3c
 8005bf2:	4a1d      	ldr	r2, [pc, #116]	; (8005c68 <I2C_ITError+0x19c>)
 8005bf4:	635a      	str	r2, [r3, #52]	; 0x34
      __HAL_UNLOCK(hi2c);
 8005bf6:	687b      	ldr	r3, [r7, #4]
 8005bf8:	2240      	movs	r2, #64	; 0x40
 8005bfa:	2100      	movs	r1, #0
 8005bfc:	5499      	strb	r1, [r3, r2]
      if (HAL_DMA_Abort_IT(hi2c->hdmarx) != HAL_OK)
 8005bfe:	687b      	ldr	r3, [r7, #4]
 8005c00:	6bdb      	ldr	r3, [r3, #60]	; 0x3c
 8005c02:	0018      	movs	r0, r3
 8005c04:	f7ff f8f8 	bl	8004df8 <HAL_DMA_Abort_IT>
 8005c08:	1e03      	subs	r3, r0, #0
 8005c0a:	d022      	beq.n	8005c52 <I2C_ITError+0x186>
        hi2c->hdmarx->XferAbortCallback(hi2c->hdmarx);
 8005c0c:	687b      	ldr	r3, [r7, #4]
 8005c0e:	6bdb      	ldr	r3, [r3, #60]	; 0x3c
 8005c10:	6b5a      	ldr	r2, [r3, #52]	; 0x34
 8005c12:	687b      	ldr	r3, [r7, #4]
 8005c14:	6bdb      	ldr	r3, [r3, #60]	; 0x3c
 8005c16:	0018      	movs	r0, r3
 8005c18:	4790      	blx	r2
}
 8005c1a:	e01a      	b.n	8005c52 <I2C_ITError+0x186>
  else if (hi2c->State == HAL_I2C_STATE_ABORT)
 8005c1c:	687b      	ldr	r3, [r7, #4]
 8005c1e:	2241      	movs	r2, #65	; 0x41
 8005c20:	5c9b      	ldrb	r3, [r3, r2]
 8005c22:	b2db      	uxtb	r3, r3
 8005c24:	2b60      	cmp	r3, #96	; 0x60
 8005c26:	d10c      	bne.n	8005c42 <I2C_ITError+0x176>
    hi2c->State = HAL_I2C_STATE_READY;
 8005c28:	687b      	ldr	r3, [r7, #4]
 8005c2a:	2241      	movs	r2, #65	; 0x41
 8005c2c:	2120      	movs	r1, #32
 8005c2e:	5499      	strb	r1, [r3, r2]
    __HAL_UNLOCK(hi2c);
 8005c30:	687b      	ldr	r3, [r7, #4]
 8005c32:	2240      	movs	r2, #64	; 0x40
 8005c34:	2100      	movs	r1, #0
 8005c36:	5499      	strb	r1, [r3, r2]
    HAL_I2C_AbortCpltCallback(hi2c);
 8005c38:	687b      	ldr	r3, [r7, #4]
 8005c3a:	0018      	movs	r0, r3
 8005c3c:	f7ff fc0e 	bl	800545c <HAL_I2C_AbortCpltCallback>
}
 8005c40:	e007      	b.n	8005c52 <I2C_ITError+0x186>
    __HAL_UNLOCK(hi2c);
 8005c42:	687b      	ldr	r3, [r7, #4]
 8005c44:	2240      	movs	r2, #64	; 0x40
 8005c46:	2100      	movs	r1, #0
 8005c48:	5499      	strb	r1, [r3, r2]
    HAL_I2C_ErrorCallback(hi2c);
 8005c4a:	687b      	ldr	r3, [r7, #4]
 8005c4c:	0018      	movs	r0, r3
 8005c4e:	f7ff fbfd 	bl	800544c <HAL_I2C_ErrorCallback>
}
 8005c52:	46c0      	nop			; (mov r8, r8)
 8005c54:	46bd      	mov	sp, r7
 8005c56:	b004      	add	sp, #16
 8005c58:	bd80      	pop	{r7, pc}
 8005c5a:	46c0      	nop			; (mov r8, r8)
 8005c5c:	ffff0000 	.word	0xffff0000
 8005c60:	0800546d 	.word	0x0800546d
 8005c64:	ffffbfff 	.word	0xffffbfff
 8005c68:	08005cb5 	.word	0x08005cb5
 8005c6c:	ffff7fff 	.word	0xffff7fff

08005c70 <I2C_Flush_TXDR>:
  * @brief  I2C Tx data register flush process.
  * @param  hi2c I2C handle.
  * @retval None
  */
static void I2C_Flush_TXDR(I2C_HandleTypeDef *hi2c)
{
 8005c70:	b580      	push	{r7, lr}
 8005c72:	b082      	sub	sp, #8
 8005c74:	af00      	add	r7, sp, #0
 8005c76:	6078      	str	r0, [r7, #4]
  /* If a pending TXIS flag is set */
  /* Write a dummy data in TXDR to clear it */
  if (__HAL_I2C_GET_FLAG(hi2c, I2C_FLAG_TXIS) != RESET)
 8005c78:	687b      	ldr	r3, [r7, #4]
 8005c7a:	681b      	ldr	r3, [r3, #0]
 8005c7c:	699b      	ldr	r3, [r3, #24]
 8005c7e:	2202      	movs	r2, #2
 8005c80:	4013      	ands	r3, r2
 8005c82:	2b02      	cmp	r3, #2
 8005c84:	d103      	bne.n	8005c8e <I2C_Flush_TXDR+0x1e>
  {
    hi2c->Instance->TXDR = 0x00U;
 8005c86:	687b      	ldr	r3, [r7, #4]
 8005c88:	681b      	ldr	r3, [r3, #0]
 8005c8a:	2200      	movs	r2, #0
 8005c8c:	629a      	str	r2, [r3, #40]	; 0x28
  }

  /* Flush TX register if not empty */
  if (__HAL_I2C_GET_FLAG(hi2c, I2C_FLAG_TXE) == RESET)
 8005c8e:	687b      	ldr	r3, [r7, #4]
 8005c90:	681b      	ldr	r3, [r3, #0]
 8005c92:	699b      	ldr	r3, [r3, #24]
 8005c94:	2201      	movs	r2, #1
 8005c96:	4013      	ands	r3, r2
 8005c98:	2b01      	cmp	r3, #1
 8005c9a:	d007      	beq.n	8005cac <I2C_Flush_TXDR+0x3c>
  {
    __HAL_I2C_CLEAR_FLAG(hi2c, I2C_FLAG_TXE);
 8005c9c:	687b      	ldr	r3, [r7, #4]
 8005c9e:	681b      	ldr	r3, [r3, #0]
 8005ca0:	699a      	ldr	r2, [r3, #24]
 8005ca2:	687b      	ldr	r3, [r7, #4]
 8005ca4:	681b      	ldr	r3, [r3, #0]
 8005ca6:	2101      	movs	r1, #1
 8005ca8:	430a      	orrs	r2, r1
 8005caa:	619a      	str	r2, [r3, #24]
  }
}
 8005cac:	46c0      	nop			; (mov r8, r8)
 8005cae:	46bd      	mov	sp, r7
 8005cb0:	b002      	add	sp, #8
 8005cb2:	bd80      	pop	{r7, pc}

08005cb4 <I2C_DMAAbort>:
  *        (To be called at end of DMA Abort procedure).
  * @param hdma DMA handle.
  * @retval None
  */
static void I2C_DMAAbort(DMA_HandleTypeDef *hdma)
{
 8005cb4:	b580      	push	{r7, lr}
 8005cb6:	b084      	sub	sp, #16
 8005cb8:	af00      	add	r7, sp, #0
 8005cba:	6078      	str	r0, [r7, #4]
  I2C_HandleTypeDef *hi2c = (I2C_HandleTypeDef *)(((DMA_HandleTypeDef *)hdma)->Parent); /* Derogation MISRAC2012-Rule-11.5 */
 8005cbc:	687b      	ldr	r3, [r7, #4]
 8005cbe:	6a5b      	ldr	r3, [r3, #36]	; 0x24
 8005cc0:	60fb      	str	r3, [r7, #12]

  /* Reset AbortCpltCallback */
  hi2c->hdmatx->XferAbortCallback = NULL;
 8005cc2:	68fb      	ldr	r3, [r7, #12]
 8005cc4:	6b9b      	ldr	r3, [r3, #56]	; 0x38
 8005cc6:	2200      	movs	r2, #0
 8005cc8:	635a      	str	r2, [r3, #52]	; 0x34
  hi2c->hdmarx->XferAbortCallback = NULL;
 8005cca:	68fb      	ldr	r3, [r7, #12]
 8005ccc:	6bdb      	ldr	r3, [r3, #60]	; 0x3c
 8005cce:	2200      	movs	r2, #0
 8005cd0:	635a      	str	r2, [r3, #52]	; 0x34

  /* Check if come from abort from user */
  if (hi2c->State == HAL_I2C_STATE_ABORT)
 8005cd2:	68fb      	ldr	r3, [r7, #12]
 8005cd4:	2241      	movs	r2, #65	; 0x41
 8005cd6:	5c9b      	ldrb	r3, [r3, r2]
 8005cd8:	b2db      	uxtb	r3, r3
 8005cda:	2b60      	cmp	r3, #96	; 0x60
 8005cdc:	d108      	bne.n	8005cf0 <I2C_DMAAbort+0x3c>
  {
    hi2c->State = HAL_I2C_STATE_READY;
 8005cde:	68fb      	ldr	r3, [r7, #12]
 8005ce0:	2241      	movs	r2, #65	; 0x41
 8005ce2:	2120      	movs	r1, #32
 8005ce4:	5499      	strb	r1, [r3, r2]

    /* Call the corresponding callback to inform upper layer of End of Transfer */
#if (USE_HAL_I2C_REGISTER_CALLBACKS == 1)
    hi2c->AbortCpltCallback(hi2c);
#else
    HAL_I2C_AbortCpltCallback(hi2c);
 8005ce6:	68fb      	ldr	r3, [r7, #12]
 8005ce8:	0018      	movs	r0, r3
 8005cea:	f7ff fbb7 	bl	800545c <HAL_I2C_AbortCpltCallback>
    hi2c->ErrorCallback(hi2c);
#else
    HAL_I2C_ErrorCallback(hi2c);
#endif /* USE_HAL_I2C_REGISTER_CALLBACKS */
  }
}
 8005cee:	e003      	b.n	8005cf8 <I2C_DMAAbort+0x44>
    HAL_I2C_ErrorCallback(hi2c);
 8005cf0:	68fb      	ldr	r3, [r7, #12]
 8005cf2:	0018      	movs	r0, r3
 8005cf4:	f7ff fbaa 	bl	800544c <HAL_I2C_ErrorCallback>
}
 8005cf8:	46c0      	nop			; (mov r8, r8)
 8005cfa:	46bd      	mov	sp, r7
 8005cfc:	b004      	add	sp, #16
 8005cfe:	bd80      	pop	{r7, pc}

08005d00 <I2C_Disable_IRQ>:
  *                the configuration information for the specified I2C.
  * @param  InterruptRequest Value of @ref I2C_Interrupt_configuration_definition.
  * @retval None
  */
static void I2C_Disable_IRQ(I2C_HandleTypeDef *hi2c, uint16_t InterruptRequest)
{
 8005d00:	b580      	push	{r7, lr}
 8005d02:	b084      	sub	sp, #16
 8005d04:	af00      	add	r7, sp, #0
 8005d06:	6078      	str	r0, [r7, #4]
 8005d08:	000a      	movs	r2, r1
 8005d0a:	1cbb      	adds	r3, r7, #2
 8005d0c:	801a      	strh	r2, [r3, #0]
  uint32_t tmpisr = 0U;
 8005d0e:	2300      	movs	r3, #0
 8005d10:	60fb      	str	r3, [r7, #12]

  if ((InterruptRequest & I2C_XFER_TX_IT) == I2C_XFER_TX_IT)
 8005d12:	1cbb      	adds	r3, r7, #2
 8005d14:	881b      	ldrh	r3, [r3, #0]
 8005d16:	2201      	movs	r2, #1
 8005d18:	4013      	ands	r3, r2
 8005d1a:	d010      	beq.n	8005d3e <I2C_Disable_IRQ+0x3e>
  {
    /* Disable TC and TXI interrupts */
    tmpisr |= I2C_IT_TCI | I2C_IT_TXI;
 8005d1c:	68fb      	ldr	r3, [r7, #12]
 8005d1e:	2242      	movs	r2, #66	; 0x42
 8005d20:	4313      	orrs	r3, r2
 8005d22:	60fb      	str	r3, [r7, #12]

    if (((uint32_t)hi2c->State & (uint32_t)HAL_I2C_STATE_LISTEN) != (uint32_t)HAL_I2C_STATE_LISTEN)
 8005d24:	687b      	ldr	r3, [r7, #4]
 8005d26:	2241      	movs	r2, #65	; 0x41
 8005d28:	5c9b      	ldrb	r3, [r3, r2]
 8005d2a:	b2db      	uxtb	r3, r3
 8005d2c:	001a      	movs	r2, r3
 8005d2e:	2328      	movs	r3, #40	; 0x28
 8005d30:	4013      	ands	r3, r2
 8005d32:	2b28      	cmp	r3, #40	; 0x28
 8005d34:	d003      	beq.n	8005d3e <I2C_Disable_IRQ+0x3e>
    {
      /* Disable NACK and STOP interrupts */
      tmpisr |= I2C_IT_STOPI | I2C_IT_NACKI | I2C_IT_ERRI;
 8005d36:	68fb      	ldr	r3, [r7, #12]
 8005d38:	22b0      	movs	r2, #176	; 0xb0
 8005d3a:	4313      	orrs	r3, r2
 8005d3c:	60fb      	str	r3, [r7, #12]
    }
  }

  if ((InterruptRequest & I2C_XFER_RX_IT) == I2C_XFER_RX_IT)
 8005d3e:	1cbb      	adds	r3, r7, #2
 8005d40:	881b      	ldrh	r3, [r3, #0]
 8005d42:	2202      	movs	r2, #2
 8005d44:	4013      	ands	r3, r2
 8005d46:	d010      	beq.n	8005d6a <I2C_Disable_IRQ+0x6a>
  {
    /* Disable TC and RXI interrupts */
    tmpisr |= I2C_IT_TCI | I2C_IT_RXI;
 8005d48:	68fb      	ldr	r3, [r7, #12]
 8005d4a:	2244      	movs	r2, #68	; 0x44
 8005d4c:	4313      	orrs	r3, r2
 8005d4e:	60fb      	str	r3, [r7, #12]

    if (((uint32_t)hi2c->State & (uint32_t)HAL_I2C_STATE_LISTEN) != (uint32_t)HAL_I2C_STATE_LISTEN)
 8005d50:	687b      	ldr	r3, [r7, #4]
 8005d52:	2241      	movs	r2, #65	; 0x41
 8005d54:	5c9b      	ldrb	r3, [r3, r2]
 8005d56:	b2db      	uxtb	r3, r3
 8005d58:	001a      	movs	r2, r3
 8005d5a:	2328      	movs	r3, #40	; 0x28
 8005d5c:	4013      	ands	r3, r2
 8005d5e:	2b28      	cmp	r3, #40	; 0x28
 8005d60:	d003      	beq.n	8005d6a <I2C_Disable_IRQ+0x6a>
    {
      /* Disable NACK and STOP interrupts */
      tmpisr |= I2C_IT_STOPI | I2C_IT_NACKI | I2C_IT_ERRI;
 8005d62:	68fb      	ldr	r3, [r7, #12]
 8005d64:	22b0      	movs	r2, #176	; 0xb0
 8005d66:	4313      	orrs	r3, r2
 8005d68:	60fb      	str	r3, [r7, #12]
    }
  }

  if ((InterruptRequest & I2C_XFER_LISTEN_IT) == I2C_XFER_LISTEN_IT)
 8005d6a:	1cbb      	adds	r3, r7, #2
 8005d6c:	881b      	ldrh	r3, [r3, #0]
 8005d6e:	2204      	movs	r2, #4
 8005d70:	4013      	ands	r3, r2
 8005d72:	d003      	beq.n	8005d7c <I2C_Disable_IRQ+0x7c>
  {
    /* Disable ADDR, NACK and STOP interrupts */
    tmpisr |= I2C_IT_ADDRI | I2C_IT_STOPI | I2C_IT_NACKI | I2C_IT_ERRI;
 8005d74:	68fb      	ldr	r3, [r7, #12]
 8005d76:	22b8      	movs	r2, #184	; 0xb8
 8005d78:	4313      	orrs	r3, r2
 8005d7a:	60fb      	str	r3, [r7, #12]
  }

  if ((InterruptRequest & I2C_XFER_ERROR_IT) == I2C_XFER_ERROR_IT)
 8005d7c:	1cbb      	adds	r3, r7, #2
 8005d7e:	881b      	ldrh	r3, [r3, #0]
 8005d80:	2211      	movs	r2, #17
 8005d82:	4013      	ands	r3, r2
 8005d84:	2b11      	cmp	r3, #17
 8005d86:	d103      	bne.n	8005d90 <I2C_Disable_IRQ+0x90>
  {
    /* Enable ERR and NACK interrupts */
    tmpisr |= I2C_IT_ERRI | I2C_IT_NACKI;
 8005d88:	68fb      	ldr	r3, [r7, #12]
 8005d8a:	2290      	movs	r2, #144	; 0x90
 8005d8c:	4313      	orrs	r3, r2
 8005d8e:	60fb      	str	r3, [r7, #12]
  }

  if ((InterruptRequest & I2C_XFER_CPLT_IT) == I2C_XFER_CPLT_IT)
 8005d90:	1cbb      	adds	r3, r7, #2
 8005d92:	881b      	ldrh	r3, [r3, #0]
 8005d94:	2212      	movs	r2, #18
 8005d96:	4013      	ands	r3, r2
 8005d98:	2b12      	cmp	r3, #18
 8005d9a:	d103      	bne.n	8005da4 <I2C_Disable_IRQ+0xa4>
  {
    /* Enable STOP interrupts */
    tmpisr |= I2C_IT_STOPI;
 8005d9c:	68fb      	ldr	r3, [r7, #12]
 8005d9e:	2220      	movs	r2, #32
 8005da0:	4313      	orrs	r3, r2
 8005da2:	60fb      	str	r3, [r7, #12]
  }

  if ((InterruptRequest & I2C_XFER_RELOAD_IT) == I2C_XFER_RELOAD_IT)
 8005da4:	1cbb      	adds	r3, r7, #2
 8005da6:	881b      	ldrh	r3, [r3, #0]
 8005da8:	2212      	movs	r2, #18
 8005daa:	4013      	ands	r3, r2
 8005dac:	2b12      	cmp	r3, #18
 8005dae:	d103      	bne.n	8005db8 <I2C_Disable_IRQ+0xb8>
  {
    /* Enable TC interrupts */
    tmpisr |= I2C_IT_TCI;
 8005db0:	68fb      	ldr	r3, [r7, #12]
 8005db2:	2240      	movs	r2, #64	; 0x40
 8005db4:	4313      	orrs	r3, r2
 8005db6:	60fb      	str	r3, [r7, #12]
  }

  /* Disable interrupts only at the end */
  /* to avoid a breaking situation like at "t" time */
  /* all disable interrupts request are not done */
  __HAL_I2C_DISABLE_IT(hi2c, tmpisr);
 8005db8:	687b      	ldr	r3, [r7, #4]
 8005dba:	681b      	ldr	r3, [r3, #0]
 8005dbc:	681a      	ldr	r2, [r3, #0]
 8005dbe:	68fb      	ldr	r3, [r7, #12]
 8005dc0:	43d9      	mvns	r1, r3
 8005dc2:	687b      	ldr	r3, [r7, #4]
 8005dc4:	681b      	ldr	r3, [r3, #0]
 8005dc6:	400a      	ands	r2, r1
 8005dc8:	601a      	str	r2, [r3, #0]
}
 8005dca:	46c0      	nop			; (mov r8, r8)
 8005dcc:	46bd      	mov	sp, r7
 8005dce:	b004      	add	sp, #16
 8005dd0:	bd80      	pop	{r7, pc}
	...

08005dd4 <HAL_I2CEx_ConfigAnalogFilter>:
  *                the configuration information for the specified I2Cx peripheral.
  * @param  AnalogFilter New state of the Analog filter.
  * @retval HAL status
  */
HAL_StatusTypeDef HAL_I2CEx_ConfigAnalogFilter(I2C_HandleTypeDef *hi2c, uint32_t AnalogFilter)
{
 8005dd4:	b580      	push	{r7, lr}
 8005dd6:	b082      	sub	sp, #8
 8005dd8:	af00      	add	r7, sp, #0
 8005dda:	6078      	str	r0, [r7, #4]
 8005ddc:	6039      	str	r1, [r7, #0]
  /* Check the parameters */
  assert_param(IS_I2C_ALL_INSTANCE(hi2c->Instance));
  assert_param(IS_I2C_ANALOG_FILTER(AnalogFilter));

  if (hi2c->State == HAL_I2C_STATE_READY)
 8005dde:	687b      	ldr	r3, [r7, #4]
 8005de0:	2241      	movs	r2, #65	; 0x41
 8005de2:	5c9b      	ldrb	r3, [r3, r2]
 8005de4:	b2db      	uxtb	r3, r3
 8005de6:	2b20      	cmp	r3, #32
 8005de8:	d138      	bne.n	8005e5c <HAL_I2CEx_ConfigAnalogFilter+0x88>
  {
    /* Process Locked */
    __HAL_LOCK(hi2c);
 8005dea:	687b      	ldr	r3, [r7, #4]
 8005dec:	2240      	movs	r2, #64	; 0x40
 8005dee:	5c9b      	ldrb	r3, [r3, r2]
 8005df0:	2b01      	cmp	r3, #1
 8005df2:	d101      	bne.n	8005df8 <HAL_I2CEx_ConfigAnalogFilter+0x24>
 8005df4:	2302      	movs	r3, #2
 8005df6:	e032      	b.n	8005e5e <HAL_I2CEx_ConfigAnalogFilter+0x8a>
 8005df8:	687b      	ldr	r3, [r7, #4]
 8005dfa:	2240      	movs	r2, #64	; 0x40
 8005dfc:	2101      	movs	r1, #1
 8005dfe:	5499      	strb	r1, [r3, r2]

    hi2c->State = HAL_I2C_STATE_BUSY;
 8005e00:	687b      	ldr	r3, [r7, #4]
 8005e02:	2241      	movs	r2, #65	; 0x41
 8005e04:	2124      	movs	r1, #36	; 0x24
 8005e06:	5499      	strb	r1, [r3, r2]

    /* Disable the selected I2C peripheral */
    __HAL_I2C_DISABLE(hi2c);
 8005e08:	687b      	ldr	r3, [r7, #4]
 8005e0a:	681b      	ldr	r3, [r3, #0]
 8005e0c:	681a      	ldr	r2, [r3, #0]
 8005e0e:	687b      	ldr	r3, [r7, #4]
 8005e10:	681b      	ldr	r3, [r3, #0]
 8005e12:	2101      	movs	r1, #1
 8005e14:	438a      	bics	r2, r1
 8005e16:	601a      	str	r2, [r3, #0]

    /* Reset I2Cx ANOFF bit */
    hi2c->Instance->CR1 &= ~(I2C_CR1_ANFOFF);
 8005e18:	687b      	ldr	r3, [r7, #4]
 8005e1a:	681b      	ldr	r3, [r3, #0]
 8005e1c:	681a      	ldr	r2, [r3, #0]
 8005e1e:	687b      	ldr	r3, [r7, #4]
 8005e20:	681b      	ldr	r3, [r3, #0]
 8005e22:	4911      	ldr	r1, [pc, #68]	; (8005e68 <HAL_I2CEx_ConfigAnalogFilter+0x94>)
 8005e24:	400a      	ands	r2, r1
 8005e26:	601a      	str	r2, [r3, #0]

    /* Set analog filter bit*/
    hi2c->Instance->CR1 |= AnalogFilter;
 8005e28:	687b      	ldr	r3, [r7, #4]
 8005e2a:	681b      	ldr	r3, [r3, #0]
 8005e2c:	6819      	ldr	r1, [r3, #0]
 8005e2e:	687b      	ldr	r3, [r7, #4]
 8005e30:	681b      	ldr	r3, [r3, #0]
 8005e32:	683a      	ldr	r2, [r7, #0]
 8005e34:	430a      	orrs	r2, r1
 8005e36:	601a      	str	r2, [r3, #0]

    __HAL_I2C_ENABLE(hi2c);
 8005e38:	687b      	ldr	r3, [r7, #4]
 8005e3a:	681b      	ldr	r3, [r3, #0]
 8005e3c:	681a      	ldr	r2, [r3, #0]
 8005e3e:	687b      	ldr	r3, [r7, #4]
 8005e40:	681b      	ldr	r3, [r3, #0]
 8005e42:	2101      	movs	r1, #1
 8005e44:	430a      	orrs	r2, r1
 8005e46:	601a      	str	r2, [r3, #0]

    hi2c->State = HAL_I2C_STATE_READY;
 8005e48:	687b      	ldr	r3, [r7, #4]
 8005e4a:	2241      	movs	r2, #65	; 0x41
 8005e4c:	2120      	movs	r1, #32
 8005e4e:	5499      	strb	r1, [r3, r2]

    /* Process Unlocked */
    __HAL_UNLOCK(hi2c);
 8005e50:	687b      	ldr	r3, [r7, #4]
 8005e52:	2240      	movs	r2, #64	; 0x40
 8005e54:	2100      	movs	r1, #0
 8005e56:	5499      	strb	r1, [r3, r2]

    return HAL_OK;
 8005e58:	2300      	movs	r3, #0
 8005e5a:	e000      	b.n	8005e5e <HAL_I2CEx_ConfigAnalogFilter+0x8a>
  }
  else
  {
    return HAL_BUSY;
 8005e5c:	2302      	movs	r3, #2
  }
}
 8005e5e:	0018      	movs	r0, r3
 8005e60:	46bd      	mov	sp, r7
 8005e62:	b002      	add	sp, #8
 8005e64:	bd80      	pop	{r7, pc}
 8005e66:	46c0      	nop			; (mov r8, r8)
 8005e68:	ffffefff 	.word	0xffffefff

08005e6c <HAL_I2CEx_ConfigDigitalFilter>:
  *                the configuration information for the specified I2Cx peripheral.
  * @param  DigitalFilter Coefficient of digital noise filter between Min_Data=0x00 and Max_Data=0x0F.
  * @retval HAL status
  */
HAL_StatusTypeDef HAL_I2CEx_ConfigDigitalFilter(I2C_HandleTypeDef *hi2c, uint32_t DigitalFilter)
{
 8005e6c:	b580      	push	{r7, lr}
 8005e6e:	b084      	sub	sp, #16
 8005e70:	af00      	add	r7, sp, #0
 8005e72:	6078      	str	r0, [r7, #4]
 8005e74:	6039      	str	r1, [r7, #0]

  /* Check the parameters */
  assert_param(IS_I2C_ALL_INSTANCE(hi2c->Instance));
  assert_param(IS_I2C_DIGITAL_FILTER(DigitalFilter));

  if (hi2c->State == HAL_I2C_STATE_READY)
 8005e76:	687b      	ldr	r3, [r7, #4]
 8005e78:	2241      	movs	r2, #65	; 0x41
 8005e7a:	5c9b      	ldrb	r3, [r3, r2]
 8005e7c:	b2db      	uxtb	r3, r3
 8005e7e:	2b20      	cmp	r3, #32
 8005e80:	d139      	bne.n	8005ef6 <HAL_I2CEx_ConfigDigitalFilter+0x8a>
  {
    /* Process Locked */
    __HAL_LOCK(hi2c);
 8005e82:	687b      	ldr	r3, [r7, #4]
 8005e84:	2240      	movs	r2, #64	; 0x40
 8005e86:	5c9b      	ldrb	r3, [r3, r2]
 8005e88:	2b01      	cmp	r3, #1
 8005e8a:	d101      	bne.n	8005e90 <HAL_I2CEx_ConfigDigitalFilter+0x24>
 8005e8c:	2302      	movs	r3, #2
 8005e8e:	e033      	b.n	8005ef8 <HAL_I2CEx_ConfigDigitalFilter+0x8c>
 8005e90:	687b      	ldr	r3, [r7, #4]
 8005e92:	2240      	movs	r2, #64	; 0x40
 8005e94:	2101      	movs	r1, #1
 8005e96:	5499      	strb	r1, [r3, r2]

    hi2c->State = HAL_I2C_STATE_BUSY;
 8005e98:	687b      	ldr	r3, [r7, #4]
 8005e9a:	2241      	movs	r2, #65	; 0x41
 8005e9c:	2124      	movs	r1, #36	; 0x24
 8005e9e:	5499      	strb	r1, [r3, r2]

    /* Disable the selected I2C peripheral */
    __HAL_I2C_DISABLE(hi2c);
 8005ea0:	687b      	ldr	r3, [r7, #4]
 8005ea2:	681b      	ldr	r3, [r3, #0]
 8005ea4:	681a      	ldr	r2, [r3, #0]
 8005ea6:	687b      	ldr	r3, [r7, #4]
 8005ea8:	681b      	ldr	r3, [r3, #0]
 8005eaa:	2101      	movs	r1, #1
 8005eac:	438a      	bics	r2, r1
 8005eae:	601a      	str	r2, [r3, #0]

    /* Get the old register value */
    tmpreg = hi2c->Instance->CR1;
 8005eb0:	687b      	ldr	r3, [r7, #4]
 8005eb2:	681b      	ldr	r3, [r3, #0]
 8005eb4:	681b      	ldr	r3, [r3, #0]
 8005eb6:	60fb      	str	r3, [r7, #12]

    /* Reset I2Cx DNF bits [11:8] */
    tmpreg &= ~(I2C_CR1_DNF);
 8005eb8:	68fb      	ldr	r3, [r7, #12]
 8005eba:	4a11      	ldr	r2, [pc, #68]	; (8005f00 <HAL_I2CEx_ConfigDigitalFilter+0x94>)
 8005ebc:	4013      	ands	r3, r2
 8005ebe:	60fb      	str	r3, [r7, #12]

    /* Set I2Cx DNF coefficient */
    tmpreg |= DigitalFilter << 8U;
 8005ec0:	683b      	ldr	r3, [r7, #0]
 8005ec2:	021b      	lsls	r3, r3, #8
 8005ec4:	68fa      	ldr	r2, [r7, #12]
 8005ec6:	4313      	orrs	r3, r2
 8005ec8:	60fb      	str	r3, [r7, #12]

    /* Store the new register value */
    hi2c->Instance->CR1 = tmpreg;
 8005eca:	687b      	ldr	r3, [r7, #4]
 8005ecc:	681b      	ldr	r3, [r3, #0]
 8005ece:	68fa      	ldr	r2, [r7, #12]
 8005ed0:	601a      	str	r2, [r3, #0]

    __HAL_I2C_ENABLE(hi2c);
 8005ed2:	687b      	ldr	r3, [r7, #4]
 8005ed4:	681b      	ldr	r3, [r3, #0]
 8005ed6:	681a      	ldr	r2, [r3, #0]
 8005ed8:	687b      	ldr	r3, [r7, #4]
 8005eda:	681b      	ldr	r3, [r3, #0]
 8005edc:	2101      	movs	r1, #1
 8005ede:	430a      	orrs	r2, r1
 8005ee0:	601a      	str	r2, [r3, #0]

    hi2c->State = HAL_I2C_STATE_READY;
 8005ee2:	687b      	ldr	r3, [r7, #4]
 8005ee4:	2241      	movs	r2, #65	; 0x41
 8005ee6:	2120      	movs	r1, #32
 8005ee8:	5499      	strb	r1, [r3, r2]

    /* Process Unlocked */
    __HAL_UNLOCK(hi2c);
 8005eea:	687b      	ldr	r3, [r7, #4]
 8005eec:	2240      	movs	r2, #64	; 0x40
 8005eee:	2100      	movs	r1, #0
 8005ef0:	5499      	strb	r1, [r3, r2]

    return HAL_OK;
 8005ef2:	2300      	movs	r3, #0
 8005ef4:	e000      	b.n	8005ef8 <HAL_I2CEx_ConfigDigitalFilter+0x8c>
  }
  else
  {
    return HAL_BUSY;
 8005ef6:	2302      	movs	r3, #2
  }
}
 8005ef8:	0018      	movs	r0, r3
 8005efa:	46bd      	mov	sp, r7
 8005efc:	b004      	add	sp, #16
 8005efe:	bd80      	pop	{r7, pc}
 8005f00:	fffff0ff 	.word	0xfffff0ff

08005f04 <HAL_PWR_EnableBkUpAccess>:
  * @note  If the HSE divided by 32 is used as the RTC clock, the
  *         Backup Domain Access should be kept enabled.
  * @retval None
  */
void HAL_PWR_EnableBkUpAccess(void)
{
 8005f04:	b580      	push	{r7, lr}
 8005f06:	af00      	add	r7, sp, #0
  PWR->CR |= (uint32_t)PWR_CR_DBP;
 8005f08:	4b04      	ldr	r3, [pc, #16]	; (8005f1c <HAL_PWR_EnableBkUpAccess+0x18>)
 8005f0a:	681a      	ldr	r2, [r3, #0]
 8005f0c:	4b03      	ldr	r3, [pc, #12]	; (8005f1c <HAL_PWR_EnableBkUpAccess+0x18>)
 8005f0e:	2180      	movs	r1, #128	; 0x80
 8005f10:	0049      	lsls	r1, r1, #1
 8005f12:	430a      	orrs	r2, r1
 8005f14:	601a      	str	r2, [r3, #0]
}
 8005f16:	46c0      	nop			; (mov r8, r8)
 8005f18:	46bd      	mov	sp, r7
 8005f1a:	bd80      	pop	{r7, pc}
 8005f1c:	40007000 	.word	0x40007000

08005f20 <HAL_RCC_OscConfig>:
  *         supported by this macro. User should request a transition to HSE Off
  *         first and then HSE On or HSE Bypass.
  * @retval HAL status
  */
HAL_StatusTypeDef HAL_RCC_OscConfig(RCC_OscInitTypeDef  *RCC_OscInitStruct)
{
 8005f20:	b580      	push	{r7, lr}
 8005f22:	b088      	sub	sp, #32
 8005f24:	af00      	add	r7, sp, #0
 8005f26:	6078      	str	r0, [r7, #4]
  uint32_t tickstart;
  uint32_t pll_config;
  uint32_t pll_config2;

  /* Check Null pointer */
  if(RCC_OscInitStruct == NULL)
 8005f28:	687b      	ldr	r3, [r7, #4]
 8005f2a:	2b00      	cmp	r3, #0
 8005f2c:	d101      	bne.n	8005f32 <HAL_RCC_OscConfig+0x12>
  {
    return HAL_ERROR;
 8005f2e:	2301      	movs	r3, #1
 8005f30:	e303      	b.n	800653a <HAL_RCC_OscConfig+0x61a>

  /* Check the parameters */
  assert_param(IS_RCC_OSCILLATORTYPE(RCC_OscInitStruct->OscillatorType));

  /*------------------------------- HSE Configuration ------------------------*/ 
  if(((RCC_OscInitStruct->OscillatorType) & RCC_OSCILLATORTYPE_HSE) == RCC_OSCILLATORTYPE_HSE)
 8005f32:	687b      	ldr	r3, [r7, #4]
 8005f34:	681b      	ldr	r3, [r3, #0]
 8005f36:	2201      	movs	r2, #1
 8005f38:	4013      	ands	r3, r2
 8005f3a:	d100      	bne.n	8005f3e <HAL_RCC_OscConfig+0x1e>
 8005f3c:	e08d      	b.n	800605a <HAL_RCC_OscConfig+0x13a>
  {
    /* Check the parameters */
    assert_param(IS_RCC_HSE(RCC_OscInitStruct->HSEState));

    /* When the HSE is used as system clock or clock source for PLL in these cases it is not allowed to be disabled */
    if((__HAL_RCC_GET_SYSCLK_SOURCE() == RCC_SYSCLKSOURCE_STATUS_HSE) 
 8005f3e:	4bc4      	ldr	r3, [pc, #784]	; (8006250 <HAL_RCC_OscConfig+0x330>)
 8005f40:	685b      	ldr	r3, [r3, #4]
 8005f42:	220c      	movs	r2, #12
 8005f44:	4013      	ands	r3, r2
 8005f46:	2b04      	cmp	r3, #4
 8005f48:	d00e      	beq.n	8005f68 <HAL_RCC_OscConfig+0x48>
       || ((__HAL_RCC_GET_SYSCLK_SOURCE() == RCC_SYSCLKSOURCE_STATUS_PLLCLK) && (__HAL_RCC_GET_PLL_OSCSOURCE() == RCC_PLLSOURCE_HSE)))
 8005f4a:	4bc1      	ldr	r3, [pc, #772]	; (8006250 <HAL_RCC_OscConfig+0x330>)
 8005f4c:	685b      	ldr	r3, [r3, #4]
 8005f4e:	220c      	movs	r2, #12
 8005f50:	4013      	ands	r3, r2
 8005f52:	2b08      	cmp	r3, #8
 8005f54:	d116      	bne.n	8005f84 <HAL_RCC_OscConfig+0x64>
 8005f56:	4bbe      	ldr	r3, [pc, #760]	; (8006250 <HAL_RCC_OscConfig+0x330>)
 8005f58:	685a      	ldr	r2, [r3, #4]
 8005f5a:	2380      	movs	r3, #128	; 0x80
 8005f5c:	025b      	lsls	r3, r3, #9
 8005f5e:	401a      	ands	r2, r3
 8005f60:	2380      	movs	r3, #128	; 0x80
 8005f62:	025b      	lsls	r3, r3, #9
 8005f64:	429a      	cmp	r2, r3
 8005f66:	d10d      	bne.n	8005f84 <HAL_RCC_OscConfig+0x64>
    {
      if((__HAL_RCC_GET_FLAG(RCC_FLAG_HSERDY) != RESET) && (RCC_OscInitStruct->HSEState == RCC_HSE_OFF))
 8005f68:	4bb9      	ldr	r3, [pc, #740]	; (8006250 <HAL_RCC_OscConfig+0x330>)
 8005f6a:	681a      	ldr	r2, [r3, #0]
 8005f6c:	2380      	movs	r3, #128	; 0x80
 8005f6e:	029b      	lsls	r3, r3, #10
 8005f70:	4013      	ands	r3, r2
 8005f72:	d100      	bne.n	8005f76 <HAL_RCC_OscConfig+0x56>
 8005f74:	e070      	b.n	8006058 <HAL_RCC_OscConfig+0x138>
 8005f76:	687b      	ldr	r3, [r7, #4]
 8005f78:	685b      	ldr	r3, [r3, #4]
 8005f7a:	2b00      	cmp	r3, #0
 8005f7c:	d000      	beq.n	8005f80 <HAL_RCC_OscConfig+0x60>
 8005f7e:	e06b      	b.n	8006058 <HAL_RCC_OscConfig+0x138>
      {
        return HAL_ERROR;
 8005f80:	2301      	movs	r3, #1
 8005f82:	e2da      	b.n	800653a <HAL_RCC_OscConfig+0x61a>
      }
    }
    else
    {
      /* Set the new HSE configuration ---------------------------------------*/
      __HAL_RCC_HSE_CONFIG(RCC_OscInitStruct->HSEState);
 8005f84:	687b      	ldr	r3, [r7, #4]
 8005f86:	685b      	ldr	r3, [r3, #4]
 8005f88:	2b01      	cmp	r3, #1
 8005f8a:	d107      	bne.n	8005f9c <HAL_RCC_OscConfig+0x7c>
 8005f8c:	4bb0      	ldr	r3, [pc, #704]	; (8006250 <HAL_RCC_OscConfig+0x330>)
 8005f8e:	681a      	ldr	r2, [r3, #0]
 8005f90:	4baf      	ldr	r3, [pc, #700]	; (8006250 <HAL_RCC_OscConfig+0x330>)
 8005f92:	2180      	movs	r1, #128	; 0x80
 8005f94:	0249      	lsls	r1, r1, #9
 8005f96:	430a      	orrs	r2, r1
 8005f98:	601a      	str	r2, [r3, #0]
 8005f9a:	e02f      	b.n	8005ffc <HAL_RCC_OscConfig+0xdc>
 8005f9c:	687b      	ldr	r3, [r7, #4]
 8005f9e:	685b      	ldr	r3, [r3, #4]
 8005fa0:	2b00      	cmp	r3, #0
 8005fa2:	d10c      	bne.n	8005fbe <HAL_RCC_OscConfig+0x9e>
 8005fa4:	4baa      	ldr	r3, [pc, #680]	; (8006250 <HAL_RCC_OscConfig+0x330>)
 8005fa6:	681a      	ldr	r2, [r3, #0]
 8005fa8:	4ba9      	ldr	r3, [pc, #676]	; (8006250 <HAL_RCC_OscConfig+0x330>)
 8005faa:	49aa      	ldr	r1, [pc, #680]	; (8006254 <HAL_RCC_OscConfig+0x334>)
 8005fac:	400a      	ands	r2, r1
 8005fae:	601a      	str	r2, [r3, #0]
 8005fb0:	4ba7      	ldr	r3, [pc, #668]	; (8006250 <HAL_RCC_OscConfig+0x330>)
 8005fb2:	681a      	ldr	r2, [r3, #0]
 8005fb4:	4ba6      	ldr	r3, [pc, #664]	; (8006250 <HAL_RCC_OscConfig+0x330>)
 8005fb6:	49a8      	ldr	r1, [pc, #672]	; (8006258 <HAL_RCC_OscConfig+0x338>)
 8005fb8:	400a      	ands	r2, r1
 8005fba:	601a      	str	r2, [r3, #0]
 8005fbc:	e01e      	b.n	8005ffc <HAL_RCC_OscConfig+0xdc>
 8005fbe:	687b      	ldr	r3, [r7, #4]
 8005fc0:	685b      	ldr	r3, [r3, #4]
 8005fc2:	2b05      	cmp	r3, #5
 8005fc4:	d10e      	bne.n	8005fe4 <HAL_RCC_OscConfig+0xc4>
 8005fc6:	4ba2      	ldr	r3, [pc, #648]	; (8006250 <HAL_RCC_OscConfig+0x330>)
 8005fc8:	681a      	ldr	r2, [r3, #0]
 8005fca:	4ba1      	ldr	r3, [pc, #644]	; (8006250 <HAL_RCC_OscConfig+0x330>)
 8005fcc:	2180      	movs	r1, #128	; 0x80
 8005fce:	02c9      	lsls	r1, r1, #11
 8005fd0:	430a      	orrs	r2, r1
 8005fd2:	601a      	str	r2, [r3, #0]
 8005fd4:	4b9e      	ldr	r3, [pc, #632]	; (8006250 <HAL_RCC_OscConfig+0x330>)
 8005fd6:	681a      	ldr	r2, [r3, #0]
 8005fd8:	4b9d      	ldr	r3, [pc, #628]	; (8006250 <HAL_RCC_OscConfig+0x330>)
 8005fda:	2180      	movs	r1, #128	; 0x80
 8005fdc:	0249      	lsls	r1, r1, #9
 8005fde:	430a      	orrs	r2, r1
 8005fe0:	601a      	str	r2, [r3, #0]
 8005fe2:	e00b      	b.n	8005ffc <HAL_RCC_OscConfig+0xdc>
 8005fe4:	4b9a      	ldr	r3, [pc, #616]	; (8006250 <HAL_RCC_OscConfig+0x330>)
 8005fe6:	681a      	ldr	r2, [r3, #0]
 8005fe8:	4b99      	ldr	r3, [pc, #612]	; (8006250 <HAL_RCC_OscConfig+0x330>)
 8005fea:	499a      	ldr	r1, [pc, #616]	; (8006254 <HAL_RCC_OscConfig+0x334>)
 8005fec:	400a      	ands	r2, r1
 8005fee:	601a      	str	r2, [r3, #0]
 8005ff0:	4b97      	ldr	r3, [pc, #604]	; (8006250 <HAL_RCC_OscConfig+0x330>)
 8005ff2:	681a      	ldr	r2, [r3, #0]
 8005ff4:	4b96      	ldr	r3, [pc, #600]	; (8006250 <HAL_RCC_OscConfig+0x330>)
 8005ff6:	4998      	ldr	r1, [pc, #608]	; (8006258 <HAL_RCC_OscConfig+0x338>)
 8005ff8:	400a      	ands	r2, r1
 8005ffa:	601a      	str	r2, [r3, #0]
      

       /* Check the HSE State */
      if(RCC_OscInitStruct->HSEState != RCC_HSE_OFF)
 8005ffc:	687b      	ldr	r3, [r7, #4]
 8005ffe:	685b      	ldr	r3, [r3, #4]
 8006000:	2b00      	cmp	r3, #0
 8006002:	d014      	beq.n	800602e <HAL_RCC_OscConfig+0x10e>
      {
        /* Get Start Tick */
        tickstart = HAL_GetTick();
 8006004:	f7fe fae8 	bl	80045d8 <HAL_GetTick>
 8006008:	0003      	movs	r3, r0
 800600a:	61bb      	str	r3, [r7, #24]
        
        /* Wait till HSE is ready */
        while(__HAL_RCC_GET_FLAG(RCC_FLAG_HSERDY) == RESET)
 800600c:	e008      	b.n	8006020 <HAL_RCC_OscConfig+0x100>
        {
          if((HAL_GetTick() - tickstart ) > HSE_TIMEOUT_VALUE)
 800600e:	f7fe fae3 	bl	80045d8 <HAL_GetTick>
 8006012:	0002      	movs	r2, r0
 8006014:	69bb      	ldr	r3, [r7, #24]
 8006016:	1ad3      	subs	r3, r2, r3
 8006018:	2b64      	cmp	r3, #100	; 0x64
 800601a:	d901      	bls.n	8006020 <HAL_RCC_OscConfig+0x100>
          {
            return HAL_TIMEOUT;
 800601c:	2303      	movs	r3, #3
 800601e:	e28c      	b.n	800653a <HAL_RCC_OscConfig+0x61a>
        while(__HAL_RCC_GET_FLAG(RCC_FLAG_HSERDY) == RESET)
 8006020:	4b8b      	ldr	r3, [pc, #556]	; (8006250 <HAL_RCC_OscConfig+0x330>)
 8006022:	681a      	ldr	r2, [r3, #0]
 8006024:	2380      	movs	r3, #128	; 0x80
 8006026:	029b      	lsls	r3, r3, #10
 8006028:	4013      	ands	r3, r2
 800602a:	d0f0      	beq.n	800600e <HAL_RCC_OscConfig+0xee>
 800602c:	e015      	b.n	800605a <HAL_RCC_OscConfig+0x13a>
        }
      }
      else
      {
        /* Get Start Tick */
        tickstart = HAL_GetTick();
 800602e:	f7fe fad3 	bl	80045d8 <HAL_GetTick>
 8006032:	0003      	movs	r3, r0
 8006034:	61bb      	str	r3, [r7, #24]
        
        /* Wait till HSE is disabled */
        while(__HAL_RCC_GET_FLAG(RCC_FLAG_HSERDY) != RESET)
 8006036:	e008      	b.n	800604a <HAL_RCC_OscConfig+0x12a>
        {
           if((HAL_GetTick() - tickstart ) > HSE_TIMEOUT_VALUE)
 8006038:	f7fe face 	bl	80045d8 <HAL_GetTick>
 800603c:	0002      	movs	r2, r0
 800603e:	69bb      	ldr	r3, [r7, #24]
 8006040:	1ad3      	subs	r3, r2, r3
 8006042:	2b64      	cmp	r3, #100	; 0x64
 8006044:	d901      	bls.n	800604a <HAL_RCC_OscConfig+0x12a>
          {
            return HAL_TIMEOUT;
 8006046:	2303      	movs	r3, #3
 8006048:	e277      	b.n	800653a <HAL_RCC_OscConfig+0x61a>
        while(__HAL_RCC_GET_FLAG(RCC_FLAG_HSERDY) != RESET)
 800604a:	4b81      	ldr	r3, [pc, #516]	; (8006250 <HAL_RCC_OscConfig+0x330>)
 800604c:	681a      	ldr	r2, [r3, #0]
 800604e:	2380      	movs	r3, #128	; 0x80
 8006050:	029b      	lsls	r3, r3, #10
 8006052:	4013      	ands	r3, r2
 8006054:	d1f0      	bne.n	8006038 <HAL_RCC_OscConfig+0x118>
 8006056:	e000      	b.n	800605a <HAL_RCC_OscConfig+0x13a>
      if((__HAL_RCC_GET_FLAG(RCC_FLAG_HSERDY) != RESET) && (RCC_OscInitStruct->HSEState == RCC_HSE_OFF))
 8006058:	46c0      	nop			; (mov r8, r8)
        }
      }
    }
  }
  /*----------------------------- HSI Configuration --------------------------*/ 
  if(((RCC_OscInitStruct->OscillatorType) & RCC_OSCILLATORTYPE_HSI) == RCC_OSCILLATORTYPE_HSI)
 800605a:	687b      	ldr	r3, [r7, #4]
 800605c:	681b      	ldr	r3, [r3, #0]
 800605e:	2202      	movs	r2, #2
 8006060:	4013      	ands	r3, r2
 8006062:	d100      	bne.n	8006066 <HAL_RCC_OscConfig+0x146>
 8006064:	e069      	b.n	800613a <HAL_RCC_OscConfig+0x21a>
    /* Check the parameters */
    assert_param(IS_RCC_HSI(RCC_OscInitStruct->HSIState));
    assert_param(IS_RCC_CALIBRATION_VALUE(RCC_OscInitStruct->HSICalibrationValue));
    
    /* Check if HSI is used as system clock or as PLL source when PLL is selected as system clock */ 
    if((__HAL_RCC_GET_SYSCLK_SOURCE() == RCC_SYSCLKSOURCE_STATUS_HSI) 
 8006066:	4b7a      	ldr	r3, [pc, #488]	; (8006250 <HAL_RCC_OscConfig+0x330>)
 8006068:	685b      	ldr	r3, [r3, #4]
 800606a:	220c      	movs	r2, #12
 800606c:	4013      	ands	r3, r2
 800606e:	d00b      	beq.n	8006088 <HAL_RCC_OscConfig+0x168>
       || ((__HAL_RCC_GET_SYSCLK_SOURCE() == RCC_SYSCLKSOURCE_STATUS_PLLCLK) && (__HAL_RCC_GET_PLL_OSCSOURCE() == RCC_PLLSOURCE_HSI)))
 8006070:	4b77      	ldr	r3, [pc, #476]	; (8006250 <HAL_RCC_OscConfig+0x330>)
 8006072:	685b      	ldr	r3, [r3, #4]
 8006074:	220c      	movs	r2, #12
 8006076:	4013      	ands	r3, r2
 8006078:	2b08      	cmp	r3, #8
 800607a:	d11c      	bne.n	80060b6 <HAL_RCC_OscConfig+0x196>
 800607c:	4b74      	ldr	r3, [pc, #464]	; (8006250 <HAL_RCC_OscConfig+0x330>)
 800607e:	685a      	ldr	r2, [r3, #4]
 8006080:	2380      	movs	r3, #128	; 0x80
 8006082:	025b      	lsls	r3, r3, #9
 8006084:	4013      	ands	r3, r2
 8006086:	d116      	bne.n	80060b6 <HAL_RCC_OscConfig+0x196>
    {
      /* When HSI is used as system clock it will not disabled */
      if((__HAL_RCC_GET_FLAG(RCC_FLAG_HSIRDY) != RESET) && (RCC_OscInitStruct->HSIState != RCC_HSI_ON))
 8006088:	4b71      	ldr	r3, [pc, #452]	; (8006250 <HAL_RCC_OscConfig+0x330>)
 800608a:	681b      	ldr	r3, [r3, #0]
 800608c:	2202      	movs	r2, #2
 800608e:	4013      	ands	r3, r2
 8006090:	d005      	beq.n	800609e <HAL_RCC_OscConfig+0x17e>
 8006092:	687b      	ldr	r3, [r7, #4]
 8006094:	68db      	ldr	r3, [r3, #12]
 8006096:	2b01      	cmp	r3, #1
 8006098:	d001      	beq.n	800609e <HAL_RCC_OscConfig+0x17e>
      {
        return HAL_ERROR;
 800609a:	2301      	movs	r3, #1
 800609c:	e24d      	b.n	800653a <HAL_RCC_OscConfig+0x61a>
      }
      /* Otherwise, just the calibration is allowed */
      else
      {
        /* Adjusts the Internal High Speed oscillator (HSI) calibration value.*/
        __HAL_RCC_HSI_CALIBRATIONVALUE_ADJUST(RCC_OscInitStruct->HSICalibrationValue);
 800609e:	4b6c      	ldr	r3, [pc, #432]	; (8006250 <HAL_RCC_OscConfig+0x330>)
 80060a0:	681b      	ldr	r3, [r3, #0]
 80060a2:	22f8      	movs	r2, #248	; 0xf8
 80060a4:	4393      	bics	r3, r2
 80060a6:	0019      	movs	r1, r3
 80060a8:	687b      	ldr	r3, [r7, #4]
 80060aa:	691b      	ldr	r3, [r3, #16]
 80060ac:	00da      	lsls	r2, r3, #3
 80060ae:	4b68      	ldr	r3, [pc, #416]	; (8006250 <HAL_RCC_OscConfig+0x330>)
 80060b0:	430a      	orrs	r2, r1
 80060b2:	601a      	str	r2, [r3, #0]
      if((__HAL_RCC_GET_FLAG(RCC_FLAG_HSIRDY) != RESET) && (RCC_OscInitStruct->HSIState != RCC_HSI_ON))
 80060b4:	e041      	b.n	800613a <HAL_RCC_OscConfig+0x21a>
      }
    }
    else
    {
      /* Check the HSI State */
      if(RCC_OscInitStruct->HSIState != RCC_HSI_OFF)
 80060b6:	687b      	ldr	r3, [r7, #4]
 80060b8:	68db      	ldr	r3, [r3, #12]
 80060ba:	2b00      	cmp	r3, #0
 80060bc:	d024      	beq.n	8006108 <HAL_RCC_OscConfig+0x1e8>
      {
       /* Enable the Internal High Speed oscillator (HSI). */
        __HAL_RCC_HSI_ENABLE();
 80060be:	4b64      	ldr	r3, [pc, #400]	; (8006250 <HAL_RCC_OscConfig+0x330>)
 80060c0:	681a      	ldr	r2, [r3, #0]
 80060c2:	4b63      	ldr	r3, [pc, #396]	; (8006250 <HAL_RCC_OscConfig+0x330>)
 80060c4:	2101      	movs	r1, #1
 80060c6:	430a      	orrs	r2, r1
 80060c8:	601a      	str	r2, [r3, #0]
        
        /* Get Start Tick */
        tickstart = HAL_GetTick();
 80060ca:	f7fe fa85 	bl	80045d8 <HAL_GetTick>
 80060ce:	0003      	movs	r3, r0
 80060d0:	61bb      	str	r3, [r7, #24]
        
        /* Wait till HSI is ready */
        while(__HAL_RCC_GET_FLAG(RCC_FLAG_HSIRDY) == RESET)
 80060d2:	e008      	b.n	80060e6 <HAL_RCC_OscConfig+0x1c6>
        {
          if((HAL_GetTick() - tickstart ) > HSI_TIMEOUT_VALUE)
 80060d4:	f7fe fa80 	bl	80045d8 <HAL_GetTick>
 80060d8:	0002      	movs	r2, r0
 80060da:	69bb      	ldr	r3, [r7, #24]
 80060dc:	1ad3      	subs	r3, r2, r3
 80060de:	2b02      	cmp	r3, #2
 80060e0:	d901      	bls.n	80060e6 <HAL_RCC_OscConfig+0x1c6>
          {
            return HAL_TIMEOUT;
 80060e2:	2303      	movs	r3, #3
 80060e4:	e229      	b.n	800653a <HAL_RCC_OscConfig+0x61a>
        while(__HAL_RCC_GET_FLAG(RCC_FLAG_HSIRDY) == RESET)
 80060e6:	4b5a      	ldr	r3, [pc, #360]	; (8006250 <HAL_RCC_OscConfig+0x330>)
 80060e8:	681b      	ldr	r3, [r3, #0]
 80060ea:	2202      	movs	r2, #2
 80060ec:	4013      	ands	r3, r2
 80060ee:	d0f1      	beq.n	80060d4 <HAL_RCC_OscConfig+0x1b4>
          }
        }
                
        /* Adjusts the Internal High Speed oscillator (HSI) calibration value.*/
        __HAL_RCC_HSI_CALIBRATIONVALUE_ADJUST(RCC_OscInitStruct->HSICalibrationValue);
 80060f0:	4b57      	ldr	r3, [pc, #348]	; (8006250 <HAL_RCC_OscConfig+0x330>)
 80060f2:	681b      	ldr	r3, [r3, #0]
 80060f4:	22f8      	movs	r2, #248	; 0xf8
 80060f6:	4393      	bics	r3, r2
 80060f8:	0019      	movs	r1, r3
 80060fa:	687b      	ldr	r3, [r7, #4]
 80060fc:	691b      	ldr	r3, [r3, #16]
 80060fe:	00da      	lsls	r2, r3, #3
 8006100:	4b53      	ldr	r3, [pc, #332]	; (8006250 <HAL_RCC_OscConfig+0x330>)
 8006102:	430a      	orrs	r2, r1
 8006104:	601a      	str	r2, [r3, #0]
 8006106:	e018      	b.n	800613a <HAL_RCC_OscConfig+0x21a>
      }
      else
      {
        /* Disable the Internal High Speed oscillator (HSI). */
        __HAL_RCC_HSI_DISABLE();
 8006108:	4b51      	ldr	r3, [pc, #324]	; (8006250 <HAL_RCC_OscConfig+0x330>)
 800610a:	681a      	ldr	r2, [r3, #0]
 800610c:	4b50      	ldr	r3, [pc, #320]	; (8006250 <HAL_RCC_OscConfig+0x330>)
 800610e:	2101      	movs	r1, #1
 8006110:	438a      	bics	r2, r1
 8006112:	601a      	str	r2, [r3, #0]
        
        /* Get Start Tick */
        tickstart = HAL_GetTick();
 8006114:	f7fe fa60 	bl	80045d8 <HAL_GetTick>
 8006118:	0003      	movs	r3, r0
 800611a:	61bb      	str	r3, [r7, #24]
        
        /* Wait till HSI is disabled */
        while(__HAL_RCC_GET_FLAG(RCC_FLAG_HSIRDY) != RESET)
 800611c:	e008      	b.n	8006130 <HAL_RCC_OscConfig+0x210>
        {
          if((HAL_GetTick() - tickstart ) > HSI_TIMEOUT_VALUE)
 800611e:	f7fe fa5b 	bl	80045d8 <HAL_GetTick>
 8006122:	0002      	movs	r2, r0
 8006124:	69bb      	ldr	r3, [r7, #24]
 8006126:	1ad3      	subs	r3, r2, r3
 8006128:	2b02      	cmp	r3, #2
 800612a:	d901      	bls.n	8006130 <HAL_RCC_OscConfig+0x210>
          {
            return HAL_TIMEOUT;
 800612c:	2303      	movs	r3, #3
 800612e:	e204      	b.n	800653a <HAL_RCC_OscConfig+0x61a>
        while(__HAL_RCC_GET_FLAG(RCC_FLAG_HSIRDY) != RESET)
 8006130:	4b47      	ldr	r3, [pc, #284]	; (8006250 <HAL_RCC_OscConfig+0x330>)
 8006132:	681b      	ldr	r3, [r3, #0]
 8006134:	2202      	movs	r2, #2
 8006136:	4013      	ands	r3, r2
 8006138:	d1f1      	bne.n	800611e <HAL_RCC_OscConfig+0x1fe>
        }
      }
    }
  }
  /*------------------------------ LSI Configuration -------------------------*/ 
  if(((RCC_OscInitStruct->OscillatorType) & RCC_OSCILLATORTYPE_LSI) == RCC_OSCILLATORTYPE_LSI)
 800613a:	687b      	ldr	r3, [r7, #4]
 800613c:	681b      	ldr	r3, [r3, #0]
 800613e:	2208      	movs	r2, #8
 8006140:	4013      	ands	r3, r2
 8006142:	d036      	beq.n	80061b2 <HAL_RCC_OscConfig+0x292>
  {
    /* Check the parameters */
    assert_param(IS_RCC_LSI(RCC_OscInitStruct->LSIState));
    
    /* Check the LSI State */
    if(RCC_OscInitStruct->LSIState != RCC_LSI_OFF)
 8006144:	687b      	ldr	r3, [r7, #4]
 8006146:	69db      	ldr	r3, [r3, #28]
 8006148:	2b00      	cmp	r3, #0
 800614a:	d019      	beq.n	8006180 <HAL_RCC_OscConfig+0x260>
    {
      /* Enable the Internal Low Speed oscillator (LSI). */
      __HAL_RCC_LSI_ENABLE();
 800614c:	4b40      	ldr	r3, [pc, #256]	; (8006250 <HAL_RCC_OscConfig+0x330>)
 800614e:	6a5a      	ldr	r2, [r3, #36]	; 0x24
 8006150:	4b3f      	ldr	r3, [pc, #252]	; (8006250 <HAL_RCC_OscConfig+0x330>)
 8006152:	2101      	movs	r1, #1
 8006154:	430a      	orrs	r2, r1
 8006156:	625a      	str	r2, [r3, #36]	; 0x24
      
      /* Get Start Tick */
      tickstart = HAL_GetTick();
 8006158:	f7fe fa3e 	bl	80045d8 <HAL_GetTick>
 800615c:	0003      	movs	r3, r0
 800615e:	61bb      	str	r3, [r7, #24]
      
      /* Wait till LSI is ready */  
      while(__HAL_RCC_GET_FLAG(RCC_FLAG_LSIRDY) == RESET)
 8006160:	e008      	b.n	8006174 <HAL_RCC_OscConfig+0x254>
      {
        if((HAL_GetTick() - tickstart ) > LSI_TIMEOUT_VALUE)
 8006162:	f7fe fa39 	bl	80045d8 <HAL_GetTick>
 8006166:	0002      	movs	r2, r0
 8006168:	69bb      	ldr	r3, [r7, #24]
 800616a:	1ad3      	subs	r3, r2, r3
 800616c:	2b02      	cmp	r3, #2
 800616e:	d901      	bls.n	8006174 <HAL_RCC_OscConfig+0x254>
        {
          return HAL_TIMEOUT;
 8006170:	2303      	movs	r3, #3
 8006172:	e1e2      	b.n	800653a <HAL_RCC_OscConfig+0x61a>
      while(__HAL_RCC_GET_FLAG(RCC_FLAG_LSIRDY) == RESET)
 8006174:	4b36      	ldr	r3, [pc, #216]	; (8006250 <HAL_RCC_OscConfig+0x330>)
 8006176:	6a5b      	ldr	r3, [r3, #36]	; 0x24
 8006178:	2202      	movs	r2, #2
 800617a:	4013      	ands	r3, r2
 800617c:	d0f1      	beq.n	8006162 <HAL_RCC_OscConfig+0x242>
 800617e:	e018      	b.n	80061b2 <HAL_RCC_OscConfig+0x292>
      }
    }
    else
    {
      /* Disable the Internal Low Speed oscillator (LSI). */
      __HAL_RCC_LSI_DISABLE();
 8006180:	4b33      	ldr	r3, [pc, #204]	; (8006250 <HAL_RCC_OscConfig+0x330>)
 8006182:	6a5a      	ldr	r2, [r3, #36]	; 0x24
 8006184:	4b32      	ldr	r3, [pc, #200]	; (8006250 <HAL_RCC_OscConfig+0x330>)
 8006186:	2101      	movs	r1, #1
 8006188:	438a      	bics	r2, r1
 800618a:	625a      	str	r2, [r3, #36]	; 0x24
      
      /* Get Start Tick */
      tickstart = HAL_GetTick();
 800618c:	f7fe fa24 	bl	80045d8 <HAL_GetTick>
 8006190:	0003      	movs	r3, r0
 8006192:	61bb      	str	r3, [r7, #24]
      
      /* Wait till LSI is disabled */  
      while(__HAL_RCC_GET_FLAG(RCC_FLAG_LSIRDY) != RESET)
 8006194:	e008      	b.n	80061a8 <HAL_RCC_OscConfig+0x288>
      {
        if((HAL_GetTick() - tickstart ) > LSI_TIMEOUT_VALUE)
 8006196:	f7fe fa1f 	bl	80045d8 <HAL_GetTick>
 800619a:	0002      	movs	r2, r0
 800619c:	69bb      	ldr	r3, [r7, #24]
 800619e:	1ad3      	subs	r3, r2, r3
 80061a0:	2b02      	cmp	r3, #2
 80061a2:	d901      	bls.n	80061a8 <HAL_RCC_OscConfig+0x288>
        {
          return HAL_TIMEOUT;
 80061a4:	2303      	movs	r3, #3
 80061a6:	e1c8      	b.n	800653a <HAL_RCC_OscConfig+0x61a>
      while(__HAL_RCC_GET_FLAG(RCC_FLAG_LSIRDY) != RESET)
 80061a8:	4b29      	ldr	r3, [pc, #164]	; (8006250 <HAL_RCC_OscConfig+0x330>)
 80061aa:	6a5b      	ldr	r3, [r3, #36]	; 0x24
 80061ac:	2202      	movs	r2, #2
 80061ae:	4013      	ands	r3, r2
 80061b0:	d1f1      	bne.n	8006196 <HAL_RCC_OscConfig+0x276>
        }
      }
    }
  }
  /*------------------------------ LSE Configuration -------------------------*/ 
  if(((RCC_OscInitStruct->OscillatorType) & RCC_OSCILLATORTYPE_LSE) == RCC_OSCILLATORTYPE_LSE)
 80061b2:	687b      	ldr	r3, [r7, #4]
 80061b4:	681b      	ldr	r3, [r3, #0]
 80061b6:	2204      	movs	r2, #4
 80061b8:	4013      	ands	r3, r2
 80061ba:	d100      	bne.n	80061be <HAL_RCC_OscConfig+0x29e>
 80061bc:	e0b6      	b.n	800632c <HAL_RCC_OscConfig+0x40c>
  {
    FlagStatus       pwrclkchanged = RESET;
 80061be:	231f      	movs	r3, #31
 80061c0:	18fb      	adds	r3, r7, r3
 80061c2:	2200      	movs	r2, #0
 80061c4:	701a      	strb	r2, [r3, #0]
    /* Check the parameters */
    assert_param(IS_RCC_LSE(RCC_OscInitStruct->LSEState));

    /* Update LSE configuration in Backup Domain control register    */
    /* Requires to enable write access to Backup Domain of necessary */
    if(__HAL_RCC_PWR_IS_CLK_DISABLED())
 80061c6:	4b22      	ldr	r3, [pc, #136]	; (8006250 <HAL_RCC_OscConfig+0x330>)
 80061c8:	69da      	ldr	r2, [r3, #28]
 80061ca:	2380      	movs	r3, #128	; 0x80
 80061cc:	055b      	lsls	r3, r3, #21
 80061ce:	4013      	ands	r3, r2
 80061d0:	d111      	bne.n	80061f6 <HAL_RCC_OscConfig+0x2d6>
    {
      __HAL_RCC_PWR_CLK_ENABLE();
 80061d2:	4b1f      	ldr	r3, [pc, #124]	; (8006250 <HAL_RCC_OscConfig+0x330>)
 80061d4:	69da      	ldr	r2, [r3, #28]
 80061d6:	4b1e      	ldr	r3, [pc, #120]	; (8006250 <HAL_RCC_OscConfig+0x330>)
 80061d8:	2180      	movs	r1, #128	; 0x80
 80061da:	0549      	lsls	r1, r1, #21
 80061dc:	430a      	orrs	r2, r1
 80061de:	61da      	str	r2, [r3, #28]
 80061e0:	4b1b      	ldr	r3, [pc, #108]	; (8006250 <HAL_RCC_OscConfig+0x330>)
 80061e2:	69da      	ldr	r2, [r3, #28]
 80061e4:	2380      	movs	r3, #128	; 0x80
 80061e6:	055b      	lsls	r3, r3, #21
 80061e8:	4013      	ands	r3, r2
 80061ea:	60fb      	str	r3, [r7, #12]
 80061ec:	68fb      	ldr	r3, [r7, #12]
      pwrclkchanged = SET;
 80061ee:	231f      	movs	r3, #31
 80061f0:	18fb      	adds	r3, r7, r3
 80061f2:	2201      	movs	r2, #1
 80061f4:	701a      	strb	r2, [r3, #0]
    }
    
    if(HAL_IS_BIT_CLR(PWR->CR, PWR_CR_DBP))
 80061f6:	4b19      	ldr	r3, [pc, #100]	; (800625c <HAL_RCC_OscConfig+0x33c>)
 80061f8:	681a      	ldr	r2, [r3, #0]
 80061fa:	2380      	movs	r3, #128	; 0x80
 80061fc:	005b      	lsls	r3, r3, #1
 80061fe:	4013      	ands	r3, r2
 8006200:	d11a      	bne.n	8006238 <HAL_RCC_OscConfig+0x318>
    {
      /* Enable write access to Backup domain */
      SET_BIT(PWR->CR, PWR_CR_DBP);
 8006202:	4b16      	ldr	r3, [pc, #88]	; (800625c <HAL_RCC_OscConfig+0x33c>)
 8006204:	681a      	ldr	r2, [r3, #0]
 8006206:	4b15      	ldr	r3, [pc, #84]	; (800625c <HAL_RCC_OscConfig+0x33c>)
 8006208:	2180      	movs	r1, #128	; 0x80
 800620a:	0049      	lsls	r1, r1, #1
 800620c:	430a      	orrs	r2, r1
 800620e:	601a      	str	r2, [r3, #0]
      
      /* Wait for Backup domain Write protection disable */
      tickstart = HAL_GetTick();
 8006210:	f7fe f9e2 	bl	80045d8 <HAL_GetTick>
 8006214:	0003      	movs	r3, r0
 8006216:	61bb      	str	r3, [r7, #24]

      while(HAL_IS_BIT_CLR(PWR->CR, PWR_CR_DBP))
 8006218:	e008      	b.n	800622c <HAL_RCC_OscConfig+0x30c>
      {
        if((HAL_GetTick() - tickstart) > RCC_DBP_TIMEOUT_VALUE)
 800621a:	f7fe f9dd 	bl	80045d8 <HAL_GetTick>
 800621e:	0002      	movs	r2, r0
 8006220:	69bb      	ldr	r3, [r7, #24]
 8006222:	1ad3      	subs	r3, r2, r3
 8006224:	2b64      	cmp	r3, #100	; 0x64
 8006226:	d901      	bls.n	800622c <HAL_RCC_OscConfig+0x30c>
        {
          return HAL_TIMEOUT;
 8006228:	2303      	movs	r3, #3
 800622a:	e186      	b.n	800653a <HAL_RCC_OscConfig+0x61a>
      while(HAL_IS_BIT_CLR(PWR->CR, PWR_CR_DBP))
 800622c:	4b0b      	ldr	r3, [pc, #44]	; (800625c <HAL_RCC_OscConfig+0x33c>)
 800622e:	681a      	ldr	r2, [r3, #0]
 8006230:	2380      	movs	r3, #128	; 0x80
 8006232:	005b      	lsls	r3, r3, #1
 8006234:	4013      	ands	r3, r2
 8006236:	d0f0      	beq.n	800621a <HAL_RCC_OscConfig+0x2fa>
        }
      }
    }

    /* Set the new LSE configuration -----------------------------------------*/
    __HAL_RCC_LSE_CONFIG(RCC_OscInitStruct->LSEState);
 8006238:	687b      	ldr	r3, [r7, #4]
 800623a:	689b      	ldr	r3, [r3, #8]
 800623c:	2b01      	cmp	r3, #1
 800623e:	d10f      	bne.n	8006260 <HAL_RCC_OscConfig+0x340>
 8006240:	4b03      	ldr	r3, [pc, #12]	; (8006250 <HAL_RCC_OscConfig+0x330>)
 8006242:	6a1a      	ldr	r2, [r3, #32]
 8006244:	4b02      	ldr	r3, [pc, #8]	; (8006250 <HAL_RCC_OscConfig+0x330>)
 8006246:	2101      	movs	r1, #1
 8006248:	430a      	orrs	r2, r1
 800624a:	621a      	str	r2, [r3, #32]
 800624c:	e036      	b.n	80062bc <HAL_RCC_OscConfig+0x39c>
 800624e:	46c0      	nop			; (mov r8, r8)
 8006250:	40021000 	.word	0x40021000
 8006254:	fffeffff 	.word	0xfffeffff
 8006258:	fffbffff 	.word	0xfffbffff
 800625c:	40007000 	.word	0x40007000
 8006260:	687b      	ldr	r3, [r7, #4]
 8006262:	689b      	ldr	r3, [r3, #8]
 8006264:	2b00      	cmp	r3, #0
 8006266:	d10c      	bne.n	8006282 <HAL_RCC_OscConfig+0x362>
 8006268:	4bb6      	ldr	r3, [pc, #728]	; (8006544 <HAL_RCC_OscConfig+0x624>)
 800626a:	6a1a      	ldr	r2, [r3, #32]
 800626c:	4bb5      	ldr	r3, [pc, #724]	; (8006544 <HAL_RCC_OscConfig+0x624>)
 800626e:	2101      	movs	r1, #1
 8006270:	438a      	bics	r2, r1
 8006272:	621a      	str	r2, [r3, #32]
 8006274:	4bb3      	ldr	r3, [pc, #716]	; (8006544 <HAL_RCC_OscConfig+0x624>)
 8006276:	6a1a      	ldr	r2, [r3, #32]
 8006278:	4bb2      	ldr	r3, [pc, #712]	; (8006544 <HAL_RCC_OscConfig+0x624>)
 800627a:	2104      	movs	r1, #4
 800627c:	438a      	bics	r2, r1
 800627e:	621a      	str	r2, [r3, #32]
 8006280:	e01c      	b.n	80062bc <HAL_RCC_OscConfig+0x39c>
 8006282:	687b      	ldr	r3, [r7, #4]
 8006284:	689b      	ldr	r3, [r3, #8]
 8006286:	2b05      	cmp	r3, #5
 8006288:	d10c      	bne.n	80062a4 <HAL_RCC_OscConfig+0x384>
 800628a:	4bae      	ldr	r3, [pc, #696]	; (8006544 <HAL_RCC_OscConfig+0x624>)
 800628c:	6a1a      	ldr	r2, [r3, #32]
 800628e:	4bad      	ldr	r3, [pc, #692]	; (8006544 <HAL_RCC_OscConfig+0x624>)
 8006290:	2104      	movs	r1, #4
 8006292:	430a      	orrs	r2, r1
 8006294:	621a      	str	r2, [r3, #32]
 8006296:	4bab      	ldr	r3, [pc, #684]	; (8006544 <HAL_RCC_OscConfig+0x624>)
 8006298:	6a1a      	ldr	r2, [r3, #32]
 800629a:	4baa      	ldr	r3, [pc, #680]	; (8006544 <HAL_RCC_OscConfig+0x624>)
 800629c:	2101      	movs	r1, #1
 800629e:	430a      	orrs	r2, r1
 80062a0:	621a      	str	r2, [r3, #32]
 80062a2:	e00b      	b.n	80062bc <HAL_RCC_OscConfig+0x39c>
 80062a4:	4ba7      	ldr	r3, [pc, #668]	; (8006544 <HAL_RCC_OscConfig+0x624>)
 80062a6:	6a1a      	ldr	r2, [r3, #32]
 80062a8:	4ba6      	ldr	r3, [pc, #664]	; (8006544 <HAL_RCC_OscConfig+0x624>)
 80062aa:	2101      	movs	r1, #1
 80062ac:	438a      	bics	r2, r1
 80062ae:	621a      	str	r2, [r3, #32]
 80062b0:	4ba4      	ldr	r3, [pc, #656]	; (8006544 <HAL_RCC_OscConfig+0x624>)
 80062b2:	6a1a      	ldr	r2, [r3, #32]
 80062b4:	4ba3      	ldr	r3, [pc, #652]	; (8006544 <HAL_RCC_OscConfig+0x624>)
 80062b6:	2104      	movs	r1, #4
 80062b8:	438a      	bics	r2, r1
 80062ba:	621a      	str	r2, [r3, #32]
    /* Check the LSE State */
    if(RCC_OscInitStruct->LSEState != RCC_LSE_OFF)
 80062bc:	687b      	ldr	r3, [r7, #4]
 80062be:	689b      	ldr	r3, [r3, #8]
 80062c0:	2b00      	cmp	r3, #0
 80062c2:	d014      	beq.n	80062ee <HAL_RCC_OscConfig+0x3ce>
    {
      /* Get Start Tick */
      tickstart = HAL_GetTick();
 80062c4:	f7fe f988 	bl	80045d8 <HAL_GetTick>
 80062c8:	0003      	movs	r3, r0
 80062ca:	61bb      	str	r3, [r7, #24]
      
      /* Wait till LSE is ready */  
      while(__HAL_RCC_GET_FLAG(RCC_FLAG_LSERDY) == RESET)
 80062cc:	e009      	b.n	80062e2 <HAL_RCC_OscConfig+0x3c2>
      {
        if((HAL_GetTick() - tickstart ) > RCC_LSE_TIMEOUT_VALUE)
 80062ce:	f7fe f983 	bl	80045d8 <HAL_GetTick>
 80062d2:	0002      	movs	r2, r0
 80062d4:	69bb      	ldr	r3, [r7, #24]
 80062d6:	1ad3      	subs	r3, r2, r3
 80062d8:	4a9b      	ldr	r2, [pc, #620]	; (8006548 <HAL_RCC_OscConfig+0x628>)
 80062da:	4293      	cmp	r3, r2
 80062dc:	d901      	bls.n	80062e2 <HAL_RCC_OscConfig+0x3c2>
        {
          return HAL_TIMEOUT;
 80062de:	2303      	movs	r3, #3
 80062e0:	e12b      	b.n	800653a <HAL_RCC_OscConfig+0x61a>
      while(__HAL_RCC_GET_FLAG(RCC_FLAG_LSERDY) == RESET)
 80062e2:	4b98      	ldr	r3, [pc, #608]	; (8006544 <HAL_RCC_OscConfig+0x624>)
 80062e4:	6a1b      	ldr	r3, [r3, #32]
 80062e6:	2202      	movs	r2, #2
 80062e8:	4013      	ands	r3, r2
 80062ea:	d0f0      	beq.n	80062ce <HAL_RCC_OscConfig+0x3ae>
 80062ec:	e013      	b.n	8006316 <HAL_RCC_OscConfig+0x3f6>
      }
    }
    else
    {
      /* Get Start Tick */
      tickstart = HAL_GetTick();
 80062ee:	f7fe f973 	bl	80045d8 <HAL_GetTick>
 80062f2:	0003      	movs	r3, r0
 80062f4:	61bb      	str	r3, [r7, #24]
      
      /* Wait till LSE is disabled */  
      while(__HAL_RCC_GET_FLAG(RCC_FLAG_LSERDY) != RESET)
 80062f6:	e009      	b.n	800630c <HAL_RCC_OscConfig+0x3ec>
      {
        if((HAL_GetTick() - tickstart ) > RCC_LSE_TIMEOUT_VALUE)
 80062f8:	f7fe f96e 	bl	80045d8 <HAL_GetTick>
 80062fc:	0002      	movs	r2, r0
 80062fe:	69bb      	ldr	r3, [r7, #24]
 8006300:	1ad3      	subs	r3, r2, r3
 8006302:	4a91      	ldr	r2, [pc, #580]	; (8006548 <HAL_RCC_OscConfig+0x628>)
 8006304:	4293      	cmp	r3, r2
 8006306:	d901      	bls.n	800630c <HAL_RCC_OscConfig+0x3ec>
        {
          return HAL_TIMEOUT;
 8006308:	2303      	movs	r3, #3
 800630a:	e116      	b.n	800653a <HAL_RCC_OscConfig+0x61a>
      while(__HAL_RCC_GET_FLAG(RCC_FLAG_LSERDY) != RESET)
 800630c:	4b8d      	ldr	r3, [pc, #564]	; (8006544 <HAL_RCC_OscConfig+0x624>)
 800630e:	6a1b      	ldr	r3, [r3, #32]
 8006310:	2202      	movs	r2, #2
 8006312:	4013      	ands	r3, r2
 8006314:	d1f0      	bne.n	80062f8 <HAL_RCC_OscConfig+0x3d8>
        }
      }
    }

    /* Require to disable power clock if necessary */
    if(pwrclkchanged == SET)
 8006316:	231f      	movs	r3, #31
 8006318:	18fb      	adds	r3, r7, r3
 800631a:	781b      	ldrb	r3, [r3, #0]
 800631c:	2b01      	cmp	r3, #1
 800631e:	d105      	bne.n	800632c <HAL_RCC_OscConfig+0x40c>
    {
      __HAL_RCC_PWR_CLK_DISABLE();
 8006320:	4b88      	ldr	r3, [pc, #544]	; (8006544 <HAL_RCC_OscConfig+0x624>)
 8006322:	69da      	ldr	r2, [r3, #28]
 8006324:	4b87      	ldr	r3, [pc, #540]	; (8006544 <HAL_RCC_OscConfig+0x624>)
 8006326:	4989      	ldr	r1, [pc, #548]	; (800654c <HAL_RCC_OscConfig+0x62c>)
 8006328:	400a      	ands	r2, r1
 800632a:	61da      	str	r2, [r3, #28]
    }
  }

  /*----------------------------- HSI14 Configuration --------------------------*/
  if(((RCC_OscInitStruct->OscillatorType) & RCC_OSCILLATORTYPE_HSI14) == RCC_OSCILLATORTYPE_HSI14)
 800632c:	687b      	ldr	r3, [r7, #4]
 800632e:	681b      	ldr	r3, [r3, #0]
 8006330:	2210      	movs	r2, #16
 8006332:	4013      	ands	r3, r2
 8006334:	d063      	beq.n	80063fe <HAL_RCC_OscConfig+0x4de>
    /* Check the parameters */
    assert_param(IS_RCC_HSI14(RCC_OscInitStruct->HSI14State));
    assert_param(IS_RCC_CALIBRATION_VALUE(RCC_OscInitStruct->HSI14CalibrationValue));

    /* Check the HSI14 State */
    if(RCC_OscInitStruct->HSI14State == RCC_HSI14_ON)
 8006336:	687b      	ldr	r3, [r7, #4]
 8006338:	695b      	ldr	r3, [r3, #20]
 800633a:	2b01      	cmp	r3, #1
 800633c:	d12a      	bne.n	8006394 <HAL_RCC_OscConfig+0x474>
    {
      /* Disable ADC control of the Internal High Speed oscillator HSI14 */
      __HAL_RCC_HSI14ADC_DISABLE();
 800633e:	4b81      	ldr	r3, [pc, #516]	; (8006544 <HAL_RCC_OscConfig+0x624>)
 8006340:	6b5a      	ldr	r2, [r3, #52]	; 0x34
 8006342:	4b80      	ldr	r3, [pc, #512]	; (8006544 <HAL_RCC_OscConfig+0x624>)
 8006344:	2104      	movs	r1, #4
 8006346:	430a      	orrs	r2, r1
 8006348:	635a      	str	r2, [r3, #52]	; 0x34

      /* Enable the Internal High Speed oscillator (HSI). */
      __HAL_RCC_HSI14_ENABLE();
 800634a:	4b7e      	ldr	r3, [pc, #504]	; (8006544 <HAL_RCC_OscConfig+0x624>)
 800634c:	6b5a      	ldr	r2, [r3, #52]	; 0x34
 800634e:	4b7d      	ldr	r3, [pc, #500]	; (8006544 <HAL_RCC_OscConfig+0x624>)
 8006350:	2101      	movs	r1, #1
 8006352:	430a      	orrs	r2, r1
 8006354:	635a      	str	r2, [r3, #52]	; 0x34

      /* Get Start Tick */
      tickstart = HAL_GetTick();
 8006356:	f7fe f93f 	bl	80045d8 <HAL_GetTick>
 800635a:	0003      	movs	r3, r0
 800635c:	61bb      	str	r3, [r7, #24]
      
      /* Wait till HSI is ready */  
      while(__HAL_RCC_GET_FLAG(RCC_FLAG_HSI14RDY) == RESET)
 800635e:	e008      	b.n	8006372 <HAL_RCC_OscConfig+0x452>
      {
        if((HAL_GetTick() - tickstart) > HSI14_TIMEOUT_VALUE)
 8006360:	f7fe f93a 	bl	80045d8 <HAL_GetTick>
 8006364:	0002      	movs	r2, r0
 8006366:	69bb      	ldr	r3, [r7, #24]
 8006368:	1ad3      	subs	r3, r2, r3
 800636a:	2b02      	cmp	r3, #2
 800636c:	d901      	bls.n	8006372 <HAL_RCC_OscConfig+0x452>
        {
          return HAL_TIMEOUT;
 800636e:	2303      	movs	r3, #3
 8006370:	e0e3      	b.n	800653a <HAL_RCC_OscConfig+0x61a>
      while(__HAL_RCC_GET_FLAG(RCC_FLAG_HSI14RDY) == RESET)
 8006372:	4b74      	ldr	r3, [pc, #464]	; (8006544 <HAL_RCC_OscConfig+0x624>)
 8006374:	6b5b      	ldr	r3, [r3, #52]	; 0x34
 8006376:	2202      	movs	r2, #2
 8006378:	4013      	ands	r3, r2
 800637a:	d0f1      	beq.n	8006360 <HAL_RCC_OscConfig+0x440>
        }      
      } 

      /* Adjusts the Internal High Speed oscillator 14Mhz (HSI14) calibration value. */
      __HAL_RCC_HSI14_CALIBRATIONVALUE_ADJUST(RCC_OscInitStruct->HSI14CalibrationValue);
 800637c:	4b71      	ldr	r3, [pc, #452]	; (8006544 <HAL_RCC_OscConfig+0x624>)
 800637e:	6b5b      	ldr	r3, [r3, #52]	; 0x34
 8006380:	22f8      	movs	r2, #248	; 0xf8
 8006382:	4393      	bics	r3, r2
 8006384:	0019      	movs	r1, r3
 8006386:	687b      	ldr	r3, [r7, #4]
 8006388:	699b      	ldr	r3, [r3, #24]
 800638a:	00da      	lsls	r2, r3, #3
 800638c:	4b6d      	ldr	r3, [pc, #436]	; (8006544 <HAL_RCC_OscConfig+0x624>)
 800638e:	430a      	orrs	r2, r1
 8006390:	635a      	str	r2, [r3, #52]	; 0x34
 8006392:	e034      	b.n	80063fe <HAL_RCC_OscConfig+0x4de>
    }
    else if(RCC_OscInitStruct->HSI14State == RCC_HSI14_ADC_CONTROL)
 8006394:	687b      	ldr	r3, [r7, #4]
 8006396:	695b      	ldr	r3, [r3, #20]
 8006398:	3305      	adds	r3, #5
 800639a:	d111      	bne.n	80063c0 <HAL_RCC_OscConfig+0x4a0>
    {
      /* Enable ADC control of the Internal High Speed oscillator HSI14 */
      __HAL_RCC_HSI14ADC_ENABLE();
 800639c:	4b69      	ldr	r3, [pc, #420]	; (8006544 <HAL_RCC_OscConfig+0x624>)
 800639e:	6b5a      	ldr	r2, [r3, #52]	; 0x34
 80063a0:	4b68      	ldr	r3, [pc, #416]	; (8006544 <HAL_RCC_OscConfig+0x624>)
 80063a2:	2104      	movs	r1, #4
 80063a4:	438a      	bics	r2, r1
 80063a6:	635a      	str	r2, [r3, #52]	; 0x34

      /* Adjusts the Internal High Speed oscillator 14Mhz (HSI14) calibration value. */
      __HAL_RCC_HSI14_CALIBRATIONVALUE_ADJUST(RCC_OscInitStruct->HSI14CalibrationValue);
 80063a8:	4b66      	ldr	r3, [pc, #408]	; (8006544 <HAL_RCC_OscConfig+0x624>)
 80063aa:	6b5b      	ldr	r3, [r3, #52]	; 0x34
 80063ac:	22f8      	movs	r2, #248	; 0xf8
 80063ae:	4393      	bics	r3, r2
 80063b0:	0019      	movs	r1, r3
 80063b2:	687b      	ldr	r3, [r7, #4]
 80063b4:	699b      	ldr	r3, [r3, #24]
 80063b6:	00da      	lsls	r2, r3, #3
 80063b8:	4b62      	ldr	r3, [pc, #392]	; (8006544 <HAL_RCC_OscConfig+0x624>)
 80063ba:	430a      	orrs	r2, r1
 80063bc:	635a      	str	r2, [r3, #52]	; 0x34
 80063be:	e01e      	b.n	80063fe <HAL_RCC_OscConfig+0x4de>
    }
    else
    {
      /* Disable ADC control of the Internal High Speed oscillator HSI14 */
      __HAL_RCC_HSI14ADC_DISABLE();
 80063c0:	4b60      	ldr	r3, [pc, #384]	; (8006544 <HAL_RCC_OscConfig+0x624>)
 80063c2:	6b5a      	ldr	r2, [r3, #52]	; 0x34
 80063c4:	4b5f      	ldr	r3, [pc, #380]	; (8006544 <HAL_RCC_OscConfig+0x624>)
 80063c6:	2104      	movs	r1, #4
 80063c8:	430a      	orrs	r2, r1
 80063ca:	635a      	str	r2, [r3, #52]	; 0x34

      /* Disable the Internal High Speed oscillator (HSI). */
      __HAL_RCC_HSI14_DISABLE();
 80063cc:	4b5d      	ldr	r3, [pc, #372]	; (8006544 <HAL_RCC_OscConfig+0x624>)
 80063ce:	6b5a      	ldr	r2, [r3, #52]	; 0x34
 80063d0:	4b5c      	ldr	r3, [pc, #368]	; (8006544 <HAL_RCC_OscConfig+0x624>)
 80063d2:	2101      	movs	r1, #1
 80063d4:	438a      	bics	r2, r1
 80063d6:	635a      	str	r2, [r3, #52]	; 0x34

      /* Get Start Tick */
      tickstart = HAL_GetTick();
 80063d8:	f7fe f8fe 	bl	80045d8 <HAL_GetTick>
 80063dc:	0003      	movs	r3, r0
 80063de:	61bb      	str	r3, [r7, #24]
      
      /* Wait till HSI is ready */  
      while(__HAL_RCC_GET_FLAG(RCC_FLAG_HSI14RDY) != RESET)
 80063e0:	e008      	b.n	80063f4 <HAL_RCC_OscConfig+0x4d4>
      {
        if((HAL_GetTick() - tickstart) > HSI14_TIMEOUT_VALUE)
 80063e2:	f7fe f8f9 	bl	80045d8 <HAL_GetTick>
 80063e6:	0002      	movs	r2, r0
 80063e8:	69bb      	ldr	r3, [r7, #24]
 80063ea:	1ad3      	subs	r3, r2, r3
 80063ec:	2b02      	cmp	r3, #2
 80063ee:	d901      	bls.n	80063f4 <HAL_RCC_OscConfig+0x4d4>
        {
          return HAL_TIMEOUT;
 80063f0:	2303      	movs	r3, #3
 80063f2:	e0a2      	b.n	800653a <HAL_RCC_OscConfig+0x61a>
      while(__HAL_RCC_GET_FLAG(RCC_FLAG_HSI14RDY) != RESET)
 80063f4:	4b53      	ldr	r3, [pc, #332]	; (8006544 <HAL_RCC_OscConfig+0x624>)
 80063f6:	6b5b      	ldr	r3, [r3, #52]	; 0x34
 80063f8:	2202      	movs	r2, #2
 80063fa:	4013      	ands	r3, r2
 80063fc:	d1f1      	bne.n	80063e2 <HAL_RCC_OscConfig+0x4c2>
#endif /* RCC_HSI48_SUPPORT */
       
  /*-------------------------------- PLL Configuration -----------------------*/
  /* Check the parameters */
  assert_param(IS_RCC_PLL(RCC_OscInitStruct->PLL.PLLState));
  if ((RCC_OscInitStruct->PLL.PLLState) != RCC_PLL_NONE)
 80063fe:	687b      	ldr	r3, [r7, #4]
 8006400:	6a1b      	ldr	r3, [r3, #32]
 8006402:	2b00      	cmp	r3, #0
 8006404:	d100      	bne.n	8006408 <HAL_RCC_OscConfig+0x4e8>
 8006406:	e097      	b.n	8006538 <HAL_RCC_OscConfig+0x618>
  {
    /* Check if the PLL is used as system clock or not */
    if(__HAL_RCC_GET_SYSCLK_SOURCE() != RCC_SYSCLKSOURCE_STATUS_PLLCLK)
 8006408:	4b4e      	ldr	r3, [pc, #312]	; (8006544 <HAL_RCC_OscConfig+0x624>)
 800640a:	685b      	ldr	r3, [r3, #4]
 800640c:	220c      	movs	r2, #12
 800640e:	4013      	ands	r3, r2
 8006410:	2b08      	cmp	r3, #8
 8006412:	d100      	bne.n	8006416 <HAL_RCC_OscConfig+0x4f6>
 8006414:	e06b      	b.n	80064ee <HAL_RCC_OscConfig+0x5ce>
    { 
      if((RCC_OscInitStruct->PLL.PLLState) == RCC_PLL_ON)
 8006416:	687b      	ldr	r3, [r7, #4]
 8006418:	6a1b      	ldr	r3, [r3, #32]
 800641a:	2b02      	cmp	r3, #2
 800641c:	d14c      	bne.n	80064b8 <HAL_RCC_OscConfig+0x598>
        assert_param(IS_RCC_PLLSOURCE(RCC_OscInitStruct->PLL.PLLSource));
        assert_param(IS_RCC_PLL_MUL(RCC_OscInitStruct->PLL.PLLMUL));
        assert_param(IS_RCC_PREDIV(RCC_OscInitStruct->PLL.PREDIV));
  
        /* Disable the main PLL. */
        __HAL_RCC_PLL_DISABLE();
 800641e:	4b49      	ldr	r3, [pc, #292]	; (8006544 <HAL_RCC_OscConfig+0x624>)
 8006420:	681a      	ldr	r2, [r3, #0]
 8006422:	4b48      	ldr	r3, [pc, #288]	; (8006544 <HAL_RCC_OscConfig+0x624>)
 8006424:	494a      	ldr	r1, [pc, #296]	; (8006550 <HAL_RCC_OscConfig+0x630>)
 8006426:	400a      	ands	r2, r1
 8006428:	601a      	str	r2, [r3, #0]
        
        /* Get Start Tick */
        tickstart = HAL_GetTick();
 800642a:	f7fe f8d5 	bl	80045d8 <HAL_GetTick>
 800642e:	0003      	movs	r3, r0
 8006430:	61bb      	str	r3, [r7, #24]
        
        /* Wait till PLL is disabled */
        while(__HAL_RCC_GET_FLAG(RCC_FLAG_PLLRDY)  != RESET)
 8006432:	e008      	b.n	8006446 <HAL_RCC_OscConfig+0x526>
        {
          if((HAL_GetTick() - tickstart ) > PLL_TIMEOUT_VALUE)
 8006434:	f7fe f8d0 	bl	80045d8 <HAL_GetTick>
 8006438:	0002      	movs	r2, r0
 800643a:	69bb      	ldr	r3, [r7, #24]
 800643c:	1ad3      	subs	r3, r2, r3
 800643e:	2b02      	cmp	r3, #2
 8006440:	d901      	bls.n	8006446 <HAL_RCC_OscConfig+0x526>
          {
            return HAL_TIMEOUT;
 8006442:	2303      	movs	r3, #3
 8006444:	e079      	b.n	800653a <HAL_RCC_OscConfig+0x61a>
        while(__HAL_RCC_GET_FLAG(RCC_FLAG_PLLRDY)  != RESET)
 8006446:	4b3f      	ldr	r3, [pc, #252]	; (8006544 <HAL_RCC_OscConfig+0x624>)
 8006448:	681a      	ldr	r2, [r3, #0]
 800644a:	2380      	movs	r3, #128	; 0x80
 800644c:	049b      	lsls	r3, r3, #18
 800644e:	4013      	ands	r3, r2
 8006450:	d1f0      	bne.n	8006434 <HAL_RCC_OscConfig+0x514>
          }
        }

        /* Configure the main PLL clock source, predivider and multiplication factor. */
        __HAL_RCC_PLL_CONFIG(RCC_OscInitStruct->PLL.PLLSource,
 8006452:	4b3c      	ldr	r3, [pc, #240]	; (8006544 <HAL_RCC_OscConfig+0x624>)
 8006454:	6adb      	ldr	r3, [r3, #44]	; 0x2c
 8006456:	220f      	movs	r2, #15
 8006458:	4393      	bics	r3, r2
 800645a:	0019      	movs	r1, r3
 800645c:	687b      	ldr	r3, [r7, #4]
 800645e:	6ada      	ldr	r2, [r3, #44]	; 0x2c
 8006460:	4b38      	ldr	r3, [pc, #224]	; (8006544 <HAL_RCC_OscConfig+0x624>)
 8006462:	430a      	orrs	r2, r1
 8006464:	62da      	str	r2, [r3, #44]	; 0x2c
 8006466:	4b37      	ldr	r3, [pc, #220]	; (8006544 <HAL_RCC_OscConfig+0x624>)
 8006468:	685b      	ldr	r3, [r3, #4]
 800646a:	4a3a      	ldr	r2, [pc, #232]	; (8006554 <HAL_RCC_OscConfig+0x634>)
 800646c:	4013      	ands	r3, r2
 800646e:	0019      	movs	r1, r3
 8006470:	687b      	ldr	r3, [r7, #4]
 8006472:	6a9a      	ldr	r2, [r3, #40]	; 0x28
 8006474:	687b      	ldr	r3, [r7, #4]
 8006476:	6a5b      	ldr	r3, [r3, #36]	; 0x24
 8006478:	431a      	orrs	r2, r3
 800647a:	4b32      	ldr	r3, [pc, #200]	; (8006544 <HAL_RCC_OscConfig+0x624>)
 800647c:	430a      	orrs	r2, r1
 800647e:	605a      	str	r2, [r3, #4]
                             RCC_OscInitStruct->PLL.PREDIV,
                             RCC_OscInitStruct->PLL.PLLMUL);
        /* Enable the main PLL. */
        __HAL_RCC_PLL_ENABLE();
 8006480:	4b30      	ldr	r3, [pc, #192]	; (8006544 <HAL_RCC_OscConfig+0x624>)
 8006482:	681a      	ldr	r2, [r3, #0]
 8006484:	4b2f      	ldr	r3, [pc, #188]	; (8006544 <HAL_RCC_OscConfig+0x624>)
 8006486:	2180      	movs	r1, #128	; 0x80
 8006488:	0449      	lsls	r1, r1, #17
 800648a:	430a      	orrs	r2, r1
 800648c:	601a      	str	r2, [r3, #0]
        
        /* Get Start Tick */
        tickstart = HAL_GetTick();
 800648e:	f7fe f8a3 	bl	80045d8 <HAL_GetTick>
 8006492:	0003      	movs	r3, r0
 8006494:	61bb      	str	r3, [r7, #24]
        
        /* Wait till PLL is ready */
        while(__HAL_RCC_GET_FLAG(RCC_FLAG_PLLRDY)  == RESET)
 8006496:	e008      	b.n	80064aa <HAL_RCC_OscConfig+0x58a>
        {
          if((HAL_GetTick() - tickstart ) > PLL_TIMEOUT_VALUE)
 8006498:	f7fe f89e 	bl	80045d8 <HAL_GetTick>
 800649c:	0002      	movs	r2, r0
 800649e:	69bb      	ldr	r3, [r7, #24]
 80064a0:	1ad3      	subs	r3, r2, r3
 80064a2:	2b02      	cmp	r3, #2
 80064a4:	d901      	bls.n	80064aa <HAL_RCC_OscConfig+0x58a>
          {
            return HAL_TIMEOUT;
 80064a6:	2303      	movs	r3, #3
 80064a8:	e047      	b.n	800653a <HAL_RCC_OscConfig+0x61a>
        while(__HAL_RCC_GET_FLAG(RCC_FLAG_PLLRDY)  == RESET)
 80064aa:	4b26      	ldr	r3, [pc, #152]	; (8006544 <HAL_RCC_OscConfig+0x624>)
 80064ac:	681a      	ldr	r2, [r3, #0]
 80064ae:	2380      	movs	r3, #128	; 0x80
 80064b0:	049b      	lsls	r3, r3, #18
 80064b2:	4013      	ands	r3, r2
 80064b4:	d0f0      	beq.n	8006498 <HAL_RCC_OscConfig+0x578>
 80064b6:	e03f      	b.n	8006538 <HAL_RCC_OscConfig+0x618>
        }
      }
      else
      {
        /* Disable the main PLL. */
        __HAL_RCC_PLL_DISABLE();
 80064b8:	4b22      	ldr	r3, [pc, #136]	; (8006544 <HAL_RCC_OscConfig+0x624>)
 80064ba:	681a      	ldr	r2, [r3, #0]
 80064bc:	4b21      	ldr	r3, [pc, #132]	; (8006544 <HAL_RCC_OscConfig+0x624>)
 80064be:	4924      	ldr	r1, [pc, #144]	; (8006550 <HAL_RCC_OscConfig+0x630>)
 80064c0:	400a      	ands	r2, r1
 80064c2:	601a      	str	r2, [r3, #0]
 
        /* Get Start Tick */
        tickstart = HAL_GetTick();
 80064c4:	f7fe f888 	bl	80045d8 <HAL_GetTick>
 80064c8:	0003      	movs	r3, r0
 80064ca:	61bb      	str	r3, [r7, #24]
        
        /* Wait till PLL is disabled */  
        while(__HAL_RCC_GET_FLAG(RCC_FLAG_PLLRDY)  != RESET)
 80064cc:	e008      	b.n	80064e0 <HAL_RCC_OscConfig+0x5c0>
        {
          if((HAL_GetTick() - tickstart ) > PLL_TIMEOUT_VALUE)
 80064ce:	f7fe f883 	bl	80045d8 <HAL_GetTick>
 80064d2:	0002      	movs	r2, r0
 80064d4:	69bb      	ldr	r3, [r7, #24]
 80064d6:	1ad3      	subs	r3, r2, r3
 80064d8:	2b02      	cmp	r3, #2
 80064da:	d901      	bls.n	80064e0 <HAL_RCC_OscConfig+0x5c0>
          {
            return HAL_TIMEOUT;
 80064dc:	2303      	movs	r3, #3
 80064de:	e02c      	b.n	800653a <HAL_RCC_OscConfig+0x61a>
        while(__HAL_RCC_GET_FLAG(RCC_FLAG_PLLRDY)  != RESET)
 80064e0:	4b18      	ldr	r3, [pc, #96]	; (8006544 <HAL_RCC_OscConfig+0x624>)
 80064e2:	681a      	ldr	r2, [r3, #0]
 80064e4:	2380      	movs	r3, #128	; 0x80
 80064e6:	049b      	lsls	r3, r3, #18
 80064e8:	4013      	ands	r3, r2
 80064ea:	d1f0      	bne.n	80064ce <HAL_RCC_OscConfig+0x5ae>
 80064ec:	e024      	b.n	8006538 <HAL_RCC_OscConfig+0x618>
      }
    }
    else
    {
      /* Check if there is a request to disable the PLL used as System clock source */
      if((RCC_OscInitStruct->PLL.PLLState) == RCC_PLL_OFF)
 80064ee:	687b      	ldr	r3, [r7, #4]
 80064f0:	6a1b      	ldr	r3, [r3, #32]
 80064f2:	2b01      	cmp	r3, #1
 80064f4:	d101      	bne.n	80064fa <HAL_RCC_OscConfig+0x5da>
      {
        return HAL_ERROR;
 80064f6:	2301      	movs	r3, #1
 80064f8:	e01f      	b.n	800653a <HAL_RCC_OscConfig+0x61a>
      }
      else
      {
        /* Do not return HAL_ERROR if request repeats the current configuration */
        pll_config  = RCC->CFGR;
 80064fa:	4b12      	ldr	r3, [pc, #72]	; (8006544 <HAL_RCC_OscConfig+0x624>)
 80064fc:	685b      	ldr	r3, [r3, #4]
 80064fe:	617b      	str	r3, [r7, #20]
        pll_config2 = RCC->CFGR2;
 8006500:	4b10      	ldr	r3, [pc, #64]	; (8006544 <HAL_RCC_OscConfig+0x624>)
 8006502:	6adb      	ldr	r3, [r3, #44]	; 0x2c
 8006504:	613b      	str	r3, [r7, #16]
        if((READ_BIT(pll_config,  RCC_CFGR_PLLSRC)  != RCC_OscInitStruct->PLL.PLLSource) ||
 8006506:	697a      	ldr	r2, [r7, #20]
 8006508:	2380      	movs	r3, #128	; 0x80
 800650a:	025b      	lsls	r3, r3, #9
 800650c:	401a      	ands	r2, r3
 800650e:	687b      	ldr	r3, [r7, #4]
 8006510:	6a5b      	ldr	r3, [r3, #36]	; 0x24
 8006512:	429a      	cmp	r2, r3
 8006514:	d10e      	bne.n	8006534 <HAL_RCC_OscConfig+0x614>
           (READ_BIT(pll_config2, RCC_CFGR2_PREDIV) != RCC_OscInitStruct->PLL.PREDIV)    ||
 8006516:	693b      	ldr	r3, [r7, #16]
 8006518:	220f      	movs	r2, #15
 800651a:	401a      	ands	r2, r3
 800651c:	687b      	ldr	r3, [r7, #4]
 800651e:	6adb      	ldr	r3, [r3, #44]	; 0x2c
        if((READ_BIT(pll_config,  RCC_CFGR_PLLSRC)  != RCC_OscInitStruct->PLL.PLLSource) ||
 8006520:	429a      	cmp	r2, r3
 8006522:	d107      	bne.n	8006534 <HAL_RCC_OscConfig+0x614>
           (READ_BIT(pll_config,  RCC_CFGR_PLLMUL)  != RCC_OscInitStruct->PLL.PLLMUL))
 8006524:	697a      	ldr	r2, [r7, #20]
 8006526:	23f0      	movs	r3, #240	; 0xf0
 8006528:	039b      	lsls	r3, r3, #14
 800652a:	401a      	ands	r2, r3
 800652c:	687b      	ldr	r3, [r7, #4]
 800652e:	6a9b      	ldr	r3, [r3, #40]	; 0x28
           (READ_BIT(pll_config2, RCC_CFGR2_PREDIV) != RCC_OscInitStruct->PLL.PREDIV)    ||
 8006530:	429a      	cmp	r2, r3
 8006532:	d001      	beq.n	8006538 <HAL_RCC_OscConfig+0x618>
        {
          return HAL_ERROR;
 8006534:	2301      	movs	r3, #1
 8006536:	e000      	b.n	800653a <HAL_RCC_OscConfig+0x61a>
        }
      }
    }
  }

  return HAL_OK;
 8006538:	2300      	movs	r3, #0
}
 800653a:	0018      	movs	r0, r3
 800653c:	46bd      	mov	sp, r7
 800653e:	b008      	add	sp, #32
 8006540:	bd80      	pop	{r7, pc}
 8006542:	46c0      	nop			; (mov r8, r8)
 8006544:	40021000 	.word	0x40021000
 8006548:	00001388 	.word	0x00001388
 800654c:	efffffff 	.word	0xefffffff
 8006550:	feffffff 	.word	0xfeffffff
 8006554:	ffc2ffff 	.word	0xffc2ffff

08006558 <HAL_RCC_ClockConfig>:
  *         You can use @ref HAL_RCC_GetClockConfig() function to know which clock is
  *         currently used as system clock source.
  * @retval HAL status
  */
HAL_StatusTypeDef HAL_RCC_ClockConfig(RCC_ClkInitTypeDef  *RCC_ClkInitStruct, uint32_t FLatency)
{
 8006558:	b580      	push	{r7, lr}
 800655a:	b084      	sub	sp, #16
 800655c:	af00      	add	r7, sp, #0
 800655e:	6078      	str	r0, [r7, #4]
 8006560:	6039      	str	r1, [r7, #0]
  uint32_t tickstart;

  /* Check Null pointer */
  if(RCC_ClkInitStruct == NULL)
 8006562:	687b      	ldr	r3, [r7, #4]
 8006564:	2b00      	cmp	r3, #0
 8006566:	d101      	bne.n	800656c <HAL_RCC_ClockConfig+0x14>
  {
    return HAL_ERROR;
 8006568:	2301      	movs	r3, #1
 800656a:	e0b3      	b.n	80066d4 <HAL_RCC_ClockConfig+0x17c>
  /* To correctly read data from FLASH memory, the number of wait states (LATENCY) 
  must be correctly programmed according to the frequency of the CPU clock 
    (HCLK) of the device. */

  /* Increasing the number of wait states because of higher CPU frequency */
  if(FLatency > __HAL_FLASH_GET_LATENCY())
 800656c:	4b5b      	ldr	r3, [pc, #364]	; (80066dc <HAL_RCC_ClockConfig+0x184>)
 800656e:	681b      	ldr	r3, [r3, #0]
 8006570:	2201      	movs	r2, #1
 8006572:	4013      	ands	r3, r2
 8006574:	683a      	ldr	r2, [r7, #0]
 8006576:	429a      	cmp	r2, r3
 8006578:	d911      	bls.n	800659e <HAL_RCC_ClockConfig+0x46>
  {    
    /* Program the new number of wait states to the LATENCY bits in the FLASH_ACR register */
    __HAL_FLASH_SET_LATENCY(FLatency);
 800657a:	4b58      	ldr	r3, [pc, #352]	; (80066dc <HAL_RCC_ClockConfig+0x184>)
 800657c:	681b      	ldr	r3, [r3, #0]
 800657e:	2201      	movs	r2, #1
 8006580:	4393      	bics	r3, r2
 8006582:	0019      	movs	r1, r3
 8006584:	4b55      	ldr	r3, [pc, #340]	; (80066dc <HAL_RCC_ClockConfig+0x184>)
 8006586:	683a      	ldr	r2, [r7, #0]
 8006588:	430a      	orrs	r2, r1
 800658a:	601a      	str	r2, [r3, #0]
    
    /* Check that the new number of wait states is taken into account to access the Flash
    memory by reading the FLASH_ACR register */
    if(__HAL_FLASH_GET_LATENCY() != FLatency)
 800658c:	4b53      	ldr	r3, [pc, #332]	; (80066dc <HAL_RCC_ClockConfig+0x184>)
 800658e:	681b      	ldr	r3, [r3, #0]
 8006590:	2201      	movs	r2, #1
 8006592:	4013      	ands	r3, r2
 8006594:	683a      	ldr	r2, [r7, #0]
 8006596:	429a      	cmp	r2, r3
 8006598:	d001      	beq.n	800659e <HAL_RCC_ClockConfig+0x46>
    {
      return HAL_ERROR;
 800659a:	2301      	movs	r3, #1
 800659c:	e09a      	b.n	80066d4 <HAL_RCC_ClockConfig+0x17c>
    }
  }

  /*-------------------------- HCLK Configuration --------------------------*/
  if(((RCC_ClkInitStruct->ClockType) & RCC_CLOCKTYPE_HCLK) == RCC_CLOCKTYPE_HCLK)
 800659e:	687b      	ldr	r3, [r7, #4]
 80065a0:	681b      	ldr	r3, [r3, #0]
 80065a2:	2202      	movs	r2, #2
 80065a4:	4013      	ands	r3, r2
 80065a6:	d015      	beq.n	80065d4 <HAL_RCC_ClockConfig+0x7c>
  {
    /* Set the highest APB divider in order to ensure that we do not go through
       a non-spec phase whatever we decrease or increase HCLK. */
    if(((RCC_ClkInitStruct->ClockType) & RCC_CLOCKTYPE_PCLK1) == RCC_CLOCKTYPE_PCLK1)
 80065a8:	687b      	ldr	r3, [r7, #4]
 80065aa:	681b      	ldr	r3, [r3, #0]
 80065ac:	2204      	movs	r2, #4
 80065ae:	4013      	ands	r3, r2
 80065b0:	d006      	beq.n	80065c0 <HAL_RCC_ClockConfig+0x68>
    {
      MODIFY_REG(RCC->CFGR, RCC_CFGR_PPRE, RCC_HCLK_DIV16);
 80065b2:	4b4b      	ldr	r3, [pc, #300]	; (80066e0 <HAL_RCC_ClockConfig+0x188>)
 80065b4:	685a      	ldr	r2, [r3, #4]
 80065b6:	4b4a      	ldr	r3, [pc, #296]	; (80066e0 <HAL_RCC_ClockConfig+0x188>)
 80065b8:	21e0      	movs	r1, #224	; 0xe0
 80065ba:	00c9      	lsls	r1, r1, #3
 80065bc:	430a      	orrs	r2, r1
 80065be:	605a      	str	r2, [r3, #4]
    }

    /* Set the new HCLK clock divider */
    assert_param(IS_RCC_HCLK(RCC_ClkInitStruct->AHBCLKDivider));
    MODIFY_REG(RCC->CFGR, RCC_CFGR_HPRE, RCC_ClkInitStruct->AHBCLKDivider);
 80065c0:	4b47      	ldr	r3, [pc, #284]	; (80066e0 <HAL_RCC_ClockConfig+0x188>)
 80065c2:	685b      	ldr	r3, [r3, #4]
 80065c4:	22f0      	movs	r2, #240	; 0xf0
 80065c6:	4393      	bics	r3, r2
 80065c8:	0019      	movs	r1, r3
 80065ca:	687b      	ldr	r3, [r7, #4]
 80065cc:	689a      	ldr	r2, [r3, #8]
 80065ce:	4b44      	ldr	r3, [pc, #272]	; (80066e0 <HAL_RCC_ClockConfig+0x188>)
 80065d0:	430a      	orrs	r2, r1
 80065d2:	605a      	str	r2, [r3, #4]
  }

  /*------------------------- SYSCLK Configuration ---------------------------*/ 
  if(((RCC_ClkInitStruct->ClockType) & RCC_CLOCKTYPE_SYSCLK) == RCC_CLOCKTYPE_SYSCLK)
 80065d4:	687b      	ldr	r3, [r7, #4]
 80065d6:	681b      	ldr	r3, [r3, #0]
 80065d8:	2201      	movs	r2, #1
 80065da:	4013      	ands	r3, r2
 80065dc:	d040      	beq.n	8006660 <HAL_RCC_ClockConfig+0x108>
  {
    assert_param(IS_RCC_SYSCLKSOURCE(RCC_ClkInitStruct->SYSCLKSource));
    
    /* HSE is selected as System Clock Source */
    if(RCC_ClkInitStruct->SYSCLKSource == RCC_SYSCLKSOURCE_HSE)
 80065de:	687b      	ldr	r3, [r7, #4]
 80065e0:	685b      	ldr	r3, [r3, #4]
 80065e2:	2b01      	cmp	r3, #1
 80065e4:	d107      	bne.n	80065f6 <HAL_RCC_ClockConfig+0x9e>
    {
      /* Check the HSE ready flag */  
      if(__HAL_RCC_GET_FLAG(RCC_FLAG_HSERDY) == RESET)
 80065e6:	4b3e      	ldr	r3, [pc, #248]	; (80066e0 <HAL_RCC_ClockConfig+0x188>)
 80065e8:	681a      	ldr	r2, [r3, #0]
 80065ea:	2380      	movs	r3, #128	; 0x80
 80065ec:	029b      	lsls	r3, r3, #10
 80065ee:	4013      	ands	r3, r2
 80065f0:	d114      	bne.n	800661c <HAL_RCC_ClockConfig+0xc4>
      {
        return HAL_ERROR;
 80065f2:	2301      	movs	r3, #1
 80065f4:	e06e      	b.n	80066d4 <HAL_RCC_ClockConfig+0x17c>
      }
    }
    /* PLL is selected as System Clock Source */
    else if(RCC_ClkInitStruct->SYSCLKSource == RCC_SYSCLKSOURCE_PLLCLK)
 80065f6:	687b      	ldr	r3, [r7, #4]
 80065f8:	685b      	ldr	r3, [r3, #4]
 80065fa:	2b02      	cmp	r3, #2
 80065fc:	d107      	bne.n	800660e <HAL_RCC_ClockConfig+0xb6>
    {
      /* Check the PLL ready flag */  
      if(__HAL_RCC_GET_FLAG(RCC_FLAG_PLLRDY) == RESET)
 80065fe:	4b38      	ldr	r3, [pc, #224]	; (80066e0 <HAL_RCC_ClockConfig+0x188>)
 8006600:	681a      	ldr	r2, [r3, #0]
 8006602:	2380      	movs	r3, #128	; 0x80
 8006604:	049b      	lsls	r3, r3, #18
 8006606:	4013      	ands	r3, r2
 8006608:	d108      	bne.n	800661c <HAL_RCC_ClockConfig+0xc4>
      {
        return HAL_ERROR;
 800660a:	2301      	movs	r3, #1
 800660c:	e062      	b.n	80066d4 <HAL_RCC_ClockConfig+0x17c>
#endif /* RCC_CFGR_SWS_HSI48 */
    /* HSI is selected as System Clock Source */
    else
    {
      /* Check the HSI ready flag */  
      if(__HAL_RCC_GET_FLAG(RCC_FLAG_HSIRDY) == RESET)
 800660e:	4b34      	ldr	r3, [pc, #208]	; (80066e0 <HAL_RCC_ClockConfig+0x188>)
 8006610:	681b      	ldr	r3, [r3, #0]
 8006612:	2202      	movs	r2, #2
 8006614:	4013      	ands	r3, r2
 8006616:	d101      	bne.n	800661c <HAL_RCC_ClockConfig+0xc4>
      {
        return HAL_ERROR;
 8006618:	2301      	movs	r3, #1
 800661a:	e05b      	b.n	80066d4 <HAL_RCC_ClockConfig+0x17c>
      }
    }
    __HAL_RCC_SYSCLK_CONFIG(RCC_ClkInitStruct->SYSCLKSource);
 800661c:	4b30      	ldr	r3, [pc, #192]	; (80066e0 <HAL_RCC_ClockConfig+0x188>)
 800661e:	685b      	ldr	r3, [r3, #4]
 8006620:	2203      	movs	r2, #3
 8006622:	4393      	bics	r3, r2
 8006624:	0019      	movs	r1, r3
 8006626:	687b      	ldr	r3, [r7, #4]
 8006628:	685a      	ldr	r2, [r3, #4]
 800662a:	4b2d      	ldr	r3, [pc, #180]	; (80066e0 <HAL_RCC_ClockConfig+0x188>)
 800662c:	430a      	orrs	r2, r1
 800662e:	605a      	str	r2, [r3, #4]

    /* Get Start Tick */
    tickstart = HAL_GetTick();
 8006630:	f7fd ffd2 	bl	80045d8 <HAL_GetTick>
 8006634:	0003      	movs	r3, r0
 8006636:	60fb      	str	r3, [r7, #12]
    
    while (__HAL_RCC_GET_SYSCLK_SOURCE() != (RCC_ClkInitStruct->SYSCLKSource << RCC_CFGR_SWS_Pos))
 8006638:	e009      	b.n	800664e <HAL_RCC_ClockConfig+0xf6>
    {
      if((HAL_GetTick() - tickstart ) > CLOCKSWITCH_TIMEOUT_VALUE)
 800663a:	f7fd ffcd 	bl	80045d8 <HAL_GetTick>
 800663e:	0002      	movs	r2, r0
 8006640:	68fb      	ldr	r3, [r7, #12]
 8006642:	1ad3      	subs	r3, r2, r3
 8006644:	4a27      	ldr	r2, [pc, #156]	; (80066e4 <HAL_RCC_ClockConfig+0x18c>)
 8006646:	4293      	cmp	r3, r2
 8006648:	d901      	bls.n	800664e <HAL_RCC_ClockConfig+0xf6>
      {
        return HAL_TIMEOUT;
 800664a:	2303      	movs	r3, #3
 800664c:	e042      	b.n	80066d4 <HAL_RCC_ClockConfig+0x17c>
    while (__HAL_RCC_GET_SYSCLK_SOURCE() != (RCC_ClkInitStruct->SYSCLKSource << RCC_CFGR_SWS_Pos))
 800664e:	4b24      	ldr	r3, [pc, #144]	; (80066e0 <HAL_RCC_ClockConfig+0x188>)
 8006650:	685b      	ldr	r3, [r3, #4]
 8006652:	220c      	movs	r2, #12
 8006654:	401a      	ands	r2, r3
 8006656:	687b      	ldr	r3, [r7, #4]
 8006658:	685b      	ldr	r3, [r3, #4]
 800665a:	009b      	lsls	r3, r3, #2
 800665c:	429a      	cmp	r2, r3
 800665e:	d1ec      	bne.n	800663a <HAL_RCC_ClockConfig+0xe2>
      }
    }
  }

  /* Decreasing the number of wait states because of lower CPU frequency */
  if(FLatency < __HAL_FLASH_GET_LATENCY())
 8006660:	4b1e      	ldr	r3, [pc, #120]	; (80066dc <HAL_RCC_ClockConfig+0x184>)
 8006662:	681b      	ldr	r3, [r3, #0]
 8006664:	2201      	movs	r2, #1
 8006666:	4013      	ands	r3, r2
 8006668:	683a      	ldr	r2, [r7, #0]
 800666a:	429a      	cmp	r2, r3
 800666c:	d211      	bcs.n	8006692 <HAL_RCC_ClockConfig+0x13a>
  {    
    /* Program the new number of wait states to the LATENCY bits in the FLASH_ACR register */
    __HAL_FLASH_SET_LATENCY(FLatency);
 800666e:	4b1b      	ldr	r3, [pc, #108]	; (80066dc <HAL_RCC_ClockConfig+0x184>)
 8006670:	681b      	ldr	r3, [r3, #0]
 8006672:	2201      	movs	r2, #1
 8006674:	4393      	bics	r3, r2
 8006676:	0019      	movs	r1, r3
 8006678:	4b18      	ldr	r3, [pc, #96]	; (80066dc <HAL_RCC_ClockConfig+0x184>)
 800667a:	683a      	ldr	r2, [r7, #0]
 800667c:	430a      	orrs	r2, r1
 800667e:	601a      	str	r2, [r3, #0]
    
    /* Check that the new number of wait states is taken into account to access the Flash
    memory by reading the FLASH_ACR register */
    if(__HAL_FLASH_GET_LATENCY() != FLatency)
 8006680:	4b16      	ldr	r3, [pc, #88]	; (80066dc <HAL_RCC_ClockConfig+0x184>)
 8006682:	681b      	ldr	r3, [r3, #0]
 8006684:	2201      	movs	r2, #1
 8006686:	4013      	ands	r3, r2
 8006688:	683a      	ldr	r2, [r7, #0]
 800668a:	429a      	cmp	r2, r3
 800668c:	d001      	beq.n	8006692 <HAL_RCC_ClockConfig+0x13a>
    {
      return HAL_ERROR;
 800668e:	2301      	movs	r3, #1
 8006690:	e020      	b.n	80066d4 <HAL_RCC_ClockConfig+0x17c>
    }
  }    

  /*-------------------------- PCLK1 Configuration ---------------------------*/ 
  if(((RCC_ClkInitStruct->ClockType) & RCC_CLOCKTYPE_PCLK1) == RCC_CLOCKTYPE_PCLK1)
 8006692:	687b      	ldr	r3, [r7, #4]
 8006694:	681b      	ldr	r3, [r3, #0]
 8006696:	2204      	movs	r2, #4
 8006698:	4013      	ands	r3, r2
 800669a:	d009      	beq.n	80066b0 <HAL_RCC_ClockConfig+0x158>
  {
    assert_param(IS_RCC_PCLK(RCC_ClkInitStruct->APB1CLKDivider));
    MODIFY_REG(RCC->CFGR, RCC_CFGR_PPRE, RCC_ClkInitStruct->APB1CLKDivider);
 800669c:	4b10      	ldr	r3, [pc, #64]	; (80066e0 <HAL_RCC_ClockConfig+0x188>)
 800669e:	685b      	ldr	r3, [r3, #4]
 80066a0:	4a11      	ldr	r2, [pc, #68]	; (80066e8 <HAL_RCC_ClockConfig+0x190>)
 80066a2:	4013      	ands	r3, r2
 80066a4:	0019      	movs	r1, r3
 80066a6:	687b      	ldr	r3, [r7, #4]
 80066a8:	68da      	ldr	r2, [r3, #12]
 80066aa:	4b0d      	ldr	r3, [pc, #52]	; (80066e0 <HAL_RCC_ClockConfig+0x188>)
 80066ac:	430a      	orrs	r2, r1
 80066ae:	605a      	str	r2, [r3, #4]
  }
  
  /* Update the SystemCoreClock global variable */
  SystemCoreClock = HAL_RCC_GetSysClockFreq() >> AHBPrescTable[(RCC->CFGR & RCC_CFGR_HPRE)>> RCC_CFGR_HPRE_BITNUMBER];
 80066b0:	f000 f820 	bl	80066f4 <HAL_RCC_GetSysClockFreq>
 80066b4:	0001      	movs	r1, r0
 80066b6:	4b0a      	ldr	r3, [pc, #40]	; (80066e0 <HAL_RCC_ClockConfig+0x188>)
 80066b8:	685b      	ldr	r3, [r3, #4]
 80066ba:	091b      	lsrs	r3, r3, #4
 80066bc:	220f      	movs	r2, #15
 80066be:	4013      	ands	r3, r2
 80066c0:	4a0a      	ldr	r2, [pc, #40]	; (80066ec <HAL_RCC_ClockConfig+0x194>)
 80066c2:	5cd3      	ldrb	r3, [r2, r3]
 80066c4:	000a      	movs	r2, r1
 80066c6:	40da      	lsrs	r2, r3
 80066c8:	4b09      	ldr	r3, [pc, #36]	; (80066f0 <HAL_RCC_ClockConfig+0x198>)
 80066ca:	601a      	str	r2, [r3, #0]

  /* Configure the source of time base considering new system clocks settings*/
  HAL_InitTick (TICK_INT_PRIORITY);
 80066cc:	2000      	movs	r0, #0
 80066ce:	f7fd ff3d 	bl	800454c <HAL_InitTick>
  
  return HAL_OK;
 80066d2:	2300      	movs	r3, #0
}
 80066d4:	0018      	movs	r0, r3
 80066d6:	46bd      	mov	sp, r7
 80066d8:	b004      	add	sp, #16
 80066da:	bd80      	pop	{r7, pc}
 80066dc:	40022000 	.word	0x40022000
 80066e0:	40021000 	.word	0x40021000
 80066e4:	00001388 	.word	0x00001388
 80066e8:	fffff8ff 	.word	0xfffff8ff
 80066ec:	0800d510 	.word	0x0800d510
 80066f0:	20000014 	.word	0x20000014

080066f4 <HAL_RCC_GetSysClockFreq>:
  *         right SYSCLK value. Otherwise, any configuration based on this function will be incorrect.
  *         
  * @retval SYSCLK frequency
  */
uint32_t HAL_RCC_GetSysClockFreq(void)
{
 80066f4:	b590      	push	{r4, r7, lr}
 80066f6:	b08f      	sub	sp, #60	; 0x3c
 80066f8:	af00      	add	r7, sp, #0
  const uint8_t aPLLMULFactorTable[16] = { 2U,  3U,  4U,  5U,  6U,  7U,  8U,  9U,
 80066fa:	2314      	movs	r3, #20
 80066fc:	18fb      	adds	r3, r7, r3
 80066fe:	4a2b      	ldr	r2, [pc, #172]	; (80067ac <HAL_RCC_GetSysClockFreq+0xb8>)
 8006700:	ca13      	ldmia	r2!, {r0, r1, r4}
 8006702:	c313      	stmia	r3!, {r0, r1, r4}
 8006704:	6812      	ldr	r2, [r2, #0]
 8006706:	601a      	str	r2, [r3, #0]
                                         10U, 11U, 12U, 13U, 14U, 15U, 16U, 16U};
  const uint8_t aPredivFactorTable[16] = { 1U, 2U,  3U,  4U,  5U,  6U,  7U,  8U,
 8006708:	1d3b      	adds	r3, r7, #4
 800670a:	4a29      	ldr	r2, [pc, #164]	; (80067b0 <HAL_RCC_GetSysClockFreq+0xbc>)
 800670c:	ca13      	ldmia	r2!, {r0, r1, r4}
 800670e:	c313      	stmia	r3!, {r0, r1, r4}
 8006710:	6812      	ldr	r2, [r2, #0]
 8006712:	601a      	str	r2, [r3, #0]
                                           9U,10U, 11U, 12U, 13U, 14U, 15U, 16U};

  uint32_t tmpreg = 0U, prediv = 0U, pllclk = 0U, pllmul = 0U;
 8006714:	2300      	movs	r3, #0
 8006716:	62fb      	str	r3, [r7, #44]	; 0x2c
 8006718:	2300      	movs	r3, #0
 800671a:	62bb      	str	r3, [r7, #40]	; 0x28
 800671c:	2300      	movs	r3, #0
 800671e:	637b      	str	r3, [r7, #52]	; 0x34
 8006720:	2300      	movs	r3, #0
 8006722:	627b      	str	r3, [r7, #36]	; 0x24
  uint32_t sysclockfreq = 0U;
 8006724:	2300      	movs	r3, #0
 8006726:	633b      	str	r3, [r7, #48]	; 0x30
  
  tmpreg = RCC->CFGR;
 8006728:	4b22      	ldr	r3, [pc, #136]	; (80067b4 <HAL_RCC_GetSysClockFreq+0xc0>)
 800672a:	685b      	ldr	r3, [r3, #4]
 800672c:	62fb      	str	r3, [r7, #44]	; 0x2c
  
  /* Get SYSCLK source -------------------------------------------------------*/
  switch (tmpreg & RCC_CFGR_SWS)
 800672e:	6afb      	ldr	r3, [r7, #44]	; 0x2c
 8006730:	220c      	movs	r2, #12
 8006732:	4013      	ands	r3, r2
 8006734:	2b04      	cmp	r3, #4
 8006736:	d002      	beq.n	800673e <HAL_RCC_GetSysClockFreq+0x4a>
 8006738:	2b08      	cmp	r3, #8
 800673a:	d003      	beq.n	8006744 <HAL_RCC_GetSysClockFreq+0x50>
 800673c:	e02d      	b.n	800679a <HAL_RCC_GetSysClockFreq+0xa6>
  {
    case RCC_SYSCLKSOURCE_STATUS_HSE:  /* HSE used as system clock */
    {
      sysclockfreq = HSE_VALUE;
 800673e:	4b1e      	ldr	r3, [pc, #120]	; (80067b8 <HAL_RCC_GetSysClockFreq+0xc4>)
 8006740:	633b      	str	r3, [r7, #48]	; 0x30
      break;
 8006742:	e02d      	b.n	80067a0 <HAL_RCC_GetSysClockFreq+0xac>
    }
    case RCC_SYSCLKSOURCE_STATUS_PLLCLK:  /* PLL used as system clock */
    {
      pllmul = aPLLMULFactorTable[(uint32_t)(tmpreg & RCC_CFGR_PLLMUL) >> RCC_CFGR_PLLMUL_BITNUMBER];
 8006744:	6afb      	ldr	r3, [r7, #44]	; 0x2c
 8006746:	0c9b      	lsrs	r3, r3, #18
 8006748:	220f      	movs	r2, #15
 800674a:	4013      	ands	r3, r2
 800674c:	2214      	movs	r2, #20
 800674e:	18ba      	adds	r2, r7, r2
 8006750:	5cd3      	ldrb	r3, [r2, r3]
 8006752:	627b      	str	r3, [r7, #36]	; 0x24
      prediv = aPredivFactorTable[(uint32_t)(RCC->CFGR2 & RCC_CFGR2_PREDIV) >> RCC_CFGR2_PREDIV_BITNUMBER];
 8006754:	4b17      	ldr	r3, [pc, #92]	; (80067b4 <HAL_RCC_GetSysClockFreq+0xc0>)
 8006756:	6adb      	ldr	r3, [r3, #44]	; 0x2c
 8006758:	220f      	movs	r2, #15
 800675a:	4013      	ands	r3, r2
 800675c:	1d3a      	adds	r2, r7, #4
 800675e:	5cd3      	ldrb	r3, [r2, r3]
 8006760:	62bb      	str	r3, [r7, #40]	; 0x28
      if ((tmpreg & RCC_CFGR_PLLSRC) == RCC_PLLSOURCE_HSE)
 8006762:	6afa      	ldr	r2, [r7, #44]	; 0x2c
 8006764:	2380      	movs	r3, #128	; 0x80
 8006766:	025b      	lsls	r3, r3, #9
 8006768:	4013      	ands	r3, r2
 800676a:	d009      	beq.n	8006780 <HAL_RCC_GetSysClockFreq+0x8c>
      {
        /* HSE used as PLL clock source : PLLCLK = HSE/PREDIV * PLLMUL */
        pllclk = (uint32_t)((uint64_t) HSE_VALUE / (uint64_t) (prediv)) * ((uint64_t) pllmul);
 800676c:	6ab9      	ldr	r1, [r7, #40]	; 0x28
 800676e:	4812      	ldr	r0, [pc, #72]	; (80067b8 <HAL_RCC_GetSysClockFreq+0xc4>)
 8006770:	f7f9 fcca 	bl	8000108 <__udivsi3>
 8006774:	0003      	movs	r3, r0
 8006776:	001a      	movs	r2, r3
 8006778:	6a7b      	ldr	r3, [r7, #36]	; 0x24
 800677a:	4353      	muls	r3, r2
 800677c:	637b      	str	r3, [r7, #52]	; 0x34
 800677e:	e009      	b.n	8006794 <HAL_RCC_GetSysClockFreq+0xa0>
#if  (defined(STM32F042x6) || defined(STM32F048xx) || defined(STM32F070x6) || defined(STM32F071xB) || defined(STM32F072xB) || defined(STM32F078xx) || defined(STM32F070xB) || defined(STM32F091xC) || defined(STM32F098xx) || defined(STM32F030xC))
        /* HSI used as PLL clock source : PLLCLK = HSI/PREDIV * PLLMUL */
        pllclk = (uint32_t)((uint64_t) HSI_VALUE / (uint64_t) (prediv)) * ((uint64_t) pllmul);
#else
        /* HSI used as PLL clock source : PLLCLK = HSI/2 * PLLMUL */
        pllclk = (uint32_t)((uint64_t) (HSI_VALUE >> 1U) * ((uint64_t) pllmul));
 8006780:	6a79      	ldr	r1, [r7, #36]	; 0x24
 8006782:	000a      	movs	r2, r1
 8006784:	0152      	lsls	r2, r2, #5
 8006786:	1a52      	subs	r2, r2, r1
 8006788:	0193      	lsls	r3, r2, #6
 800678a:	1a9b      	subs	r3, r3, r2
 800678c:	00db      	lsls	r3, r3, #3
 800678e:	185b      	adds	r3, r3, r1
 8006790:	021b      	lsls	r3, r3, #8
 8006792:	637b      	str	r3, [r7, #52]	; 0x34
#endif
      }
      sysclockfreq = pllclk;
 8006794:	6b7b      	ldr	r3, [r7, #52]	; 0x34
 8006796:	633b      	str	r3, [r7, #48]	; 0x30
      break;
 8006798:	e002      	b.n	80067a0 <HAL_RCC_GetSysClockFreq+0xac>
    }
#endif /* RCC_CFGR_SWS_HSI48 */
    case RCC_SYSCLKSOURCE_STATUS_HSI:  /* HSI used as system clock source */
    default: /* HSI used as system clock */
    {
      sysclockfreq = HSI_VALUE;
 800679a:	4b07      	ldr	r3, [pc, #28]	; (80067b8 <HAL_RCC_GetSysClockFreq+0xc4>)
 800679c:	633b      	str	r3, [r7, #48]	; 0x30
      break;
 800679e:	46c0      	nop			; (mov r8, r8)
    }
  }
  return sysclockfreq;
 80067a0:	6b3b      	ldr	r3, [r7, #48]	; 0x30
}
 80067a2:	0018      	movs	r0, r3
 80067a4:	46bd      	mov	sp, r7
 80067a6:	b00f      	add	sp, #60	; 0x3c
 80067a8:	bd90      	pop	{r4, r7, pc}
 80067aa:	46c0      	nop			; (mov r8, r8)
 80067ac:	080086b8 	.word	0x080086b8
 80067b0:	080086c8 	.word	0x080086c8
 80067b4:	40021000 	.word	0x40021000
 80067b8:	007a1200 	.word	0x007a1200

080067bc <HAL_RCC_GetHCLKFreq>:
  * @note   The SystemCoreClock CMSIS variable is used to store System Clock Frequency 
  *         and updated within this function
  * @retval HCLK frequency
  */
uint32_t HAL_RCC_GetHCLKFreq(void)
{
 80067bc:	b580      	push	{r7, lr}
 80067be:	af00      	add	r7, sp, #0
  return SystemCoreClock;
 80067c0:	4b02      	ldr	r3, [pc, #8]	; (80067cc <HAL_RCC_GetHCLKFreq+0x10>)
 80067c2:	681b      	ldr	r3, [r3, #0]
}
 80067c4:	0018      	movs	r0, r3
 80067c6:	46bd      	mov	sp, r7
 80067c8:	bd80      	pop	{r7, pc}
 80067ca:	46c0      	nop			; (mov r8, r8)
 80067cc:	20000014 	.word	0x20000014

080067d0 <HAL_RCC_GetPCLK1Freq>:
  * @note   Each time PCLK1 changes, this function must be called to update the
  *         right PCLK1 value. Otherwise, any configuration based on this function will be incorrect.
  * @retval PCLK1 frequency
  */
uint32_t HAL_RCC_GetPCLK1Freq(void)
{
 80067d0:	b580      	push	{r7, lr}
 80067d2:	af00      	add	r7, sp, #0
  /* Get HCLK source and Compute PCLK1 frequency ---------------------------*/
  return (HAL_RCC_GetHCLKFreq() >> APBPrescTable[(RCC->CFGR & RCC_CFGR_PPRE) >> RCC_CFGR_PPRE_BITNUMBER]);
 80067d4:	f7ff fff2 	bl	80067bc <HAL_RCC_GetHCLKFreq>
 80067d8:	0001      	movs	r1, r0
 80067da:	4b06      	ldr	r3, [pc, #24]	; (80067f4 <HAL_RCC_GetPCLK1Freq+0x24>)
 80067dc:	685b      	ldr	r3, [r3, #4]
 80067de:	0a1b      	lsrs	r3, r3, #8
 80067e0:	2207      	movs	r2, #7
 80067e2:	4013      	ands	r3, r2
 80067e4:	4a04      	ldr	r2, [pc, #16]	; (80067f8 <HAL_RCC_GetPCLK1Freq+0x28>)
 80067e6:	5cd3      	ldrb	r3, [r2, r3]
 80067e8:	40d9      	lsrs	r1, r3
 80067ea:	000b      	movs	r3, r1
}    
 80067ec:	0018      	movs	r0, r3
 80067ee:	46bd      	mov	sp, r7
 80067f0:	bd80      	pop	{r7, pc}
 80067f2:	46c0      	nop			; (mov r8, r8)
 80067f4:	40021000 	.word	0x40021000
 80067f8:	0800d520 	.word	0x0800d520

080067fc <HAL_RCCEx_PeriphCLKConfig>:
  *         the backup registers) and RCC_BDCR register are set to their reset values.
  *
  * @retval HAL status
  */
HAL_StatusTypeDef HAL_RCCEx_PeriphCLKConfig(RCC_PeriphCLKInitTypeDef  *PeriphClkInit)
{
 80067fc:	b580      	push	{r7, lr}
 80067fe:	b086      	sub	sp, #24
 8006800:	af00      	add	r7, sp, #0
 8006802:	6078      	str	r0, [r7, #4]
  uint32_t tickstart = 0U;
 8006804:	2300      	movs	r3, #0
 8006806:	613b      	str	r3, [r7, #16]
  uint32_t temp_reg = 0U;
 8006808:	2300      	movs	r3, #0
 800680a:	60fb      	str	r3, [r7, #12]

  /* Check the parameters */
  assert_param(IS_RCC_PERIPHCLOCK(PeriphClkInit->PeriphClockSelection));
  
  /*---------------------------- RTC configuration -------------------------------*/
  if(((PeriphClkInit->PeriphClockSelection) & RCC_PERIPHCLK_RTC) == (RCC_PERIPHCLK_RTC))
 800680c:	687b      	ldr	r3, [r7, #4]
 800680e:	681a      	ldr	r2, [r3, #0]
 8006810:	2380      	movs	r3, #128	; 0x80
 8006812:	025b      	lsls	r3, r3, #9
 8006814:	4013      	ands	r3, r2
 8006816:	d100      	bne.n	800681a <HAL_RCCEx_PeriphCLKConfig+0x1e>
 8006818:	e08f      	b.n	800693a <HAL_RCCEx_PeriphCLKConfig+0x13e>
  {
    /* check for RTC Parameters used to output RTCCLK */
    assert_param(IS_RCC_RTCCLKSOURCE(PeriphClkInit->RTCClockSelection));
    
    FlagStatus       pwrclkchanged = RESET;
 800681a:	2317      	movs	r3, #23
 800681c:	18fb      	adds	r3, r7, r3
 800681e:	2200      	movs	r2, #0
 8006820:	701a      	strb	r2, [r3, #0]

    /* As soon as function is called to change RTC clock source, activation of the 
       power domain is done. */
    /* Requires to enable write access to Backup Domain of necessary */
    if(__HAL_RCC_PWR_IS_CLK_DISABLED())
 8006822:	4b57      	ldr	r3, [pc, #348]	; (8006980 <HAL_RCCEx_PeriphCLKConfig+0x184>)
 8006824:	69da      	ldr	r2, [r3, #28]
 8006826:	2380      	movs	r3, #128	; 0x80
 8006828:	055b      	lsls	r3, r3, #21
 800682a:	4013      	ands	r3, r2
 800682c:	d111      	bne.n	8006852 <HAL_RCCEx_PeriphCLKConfig+0x56>
    {
    __HAL_RCC_PWR_CLK_ENABLE();
 800682e:	4b54      	ldr	r3, [pc, #336]	; (8006980 <HAL_RCCEx_PeriphCLKConfig+0x184>)
 8006830:	69da      	ldr	r2, [r3, #28]
 8006832:	4b53      	ldr	r3, [pc, #332]	; (8006980 <HAL_RCCEx_PeriphCLKConfig+0x184>)
 8006834:	2180      	movs	r1, #128	; 0x80
 8006836:	0549      	lsls	r1, r1, #21
 8006838:	430a      	orrs	r2, r1
 800683a:	61da      	str	r2, [r3, #28]
 800683c:	4b50      	ldr	r3, [pc, #320]	; (8006980 <HAL_RCCEx_PeriphCLKConfig+0x184>)
 800683e:	69da      	ldr	r2, [r3, #28]
 8006840:	2380      	movs	r3, #128	; 0x80
 8006842:	055b      	lsls	r3, r3, #21
 8006844:	4013      	ands	r3, r2
 8006846:	60bb      	str	r3, [r7, #8]
 8006848:	68bb      	ldr	r3, [r7, #8]
      pwrclkchanged = SET;
 800684a:	2317      	movs	r3, #23
 800684c:	18fb      	adds	r3, r7, r3
 800684e:	2201      	movs	r2, #1
 8006850:	701a      	strb	r2, [r3, #0]
    }
    
    if(HAL_IS_BIT_CLR(PWR->CR, PWR_CR_DBP))
 8006852:	4b4c      	ldr	r3, [pc, #304]	; (8006984 <HAL_RCCEx_PeriphCLKConfig+0x188>)
 8006854:	681a      	ldr	r2, [r3, #0]
 8006856:	2380      	movs	r3, #128	; 0x80
 8006858:	005b      	lsls	r3, r3, #1
 800685a:	4013      	ands	r3, r2
 800685c:	d11a      	bne.n	8006894 <HAL_RCCEx_PeriphCLKConfig+0x98>
    {
      /* Enable write access to Backup domain */
      SET_BIT(PWR->CR, PWR_CR_DBP);
 800685e:	4b49      	ldr	r3, [pc, #292]	; (8006984 <HAL_RCCEx_PeriphCLKConfig+0x188>)
 8006860:	681a      	ldr	r2, [r3, #0]
 8006862:	4b48      	ldr	r3, [pc, #288]	; (8006984 <HAL_RCCEx_PeriphCLKConfig+0x188>)
 8006864:	2180      	movs	r1, #128	; 0x80
 8006866:	0049      	lsls	r1, r1, #1
 8006868:	430a      	orrs	r2, r1
 800686a:	601a      	str	r2, [r3, #0]
      
      /* Wait for Backup domain Write protection disable */
      tickstart = HAL_GetTick();
 800686c:	f7fd feb4 	bl	80045d8 <HAL_GetTick>
 8006870:	0003      	movs	r3, r0
 8006872:	613b      	str	r3, [r7, #16]
      
      while(HAL_IS_BIT_CLR(PWR->CR, PWR_CR_DBP))
 8006874:	e008      	b.n	8006888 <HAL_RCCEx_PeriphCLKConfig+0x8c>
      {
        if((HAL_GetTick() - tickstart) > RCC_DBP_TIMEOUT_VALUE)
 8006876:	f7fd feaf 	bl	80045d8 <HAL_GetTick>
 800687a:	0002      	movs	r2, r0
 800687c:	693b      	ldr	r3, [r7, #16]
 800687e:	1ad3      	subs	r3, r2, r3
 8006880:	2b64      	cmp	r3, #100	; 0x64
 8006882:	d901      	bls.n	8006888 <HAL_RCCEx_PeriphCLKConfig+0x8c>
        {
          return HAL_TIMEOUT;
 8006884:	2303      	movs	r3, #3
 8006886:	e077      	b.n	8006978 <HAL_RCCEx_PeriphCLKConfig+0x17c>
      while(HAL_IS_BIT_CLR(PWR->CR, PWR_CR_DBP))
 8006888:	4b3e      	ldr	r3, [pc, #248]	; (8006984 <HAL_RCCEx_PeriphCLKConfig+0x188>)
 800688a:	681a      	ldr	r2, [r3, #0]
 800688c:	2380      	movs	r3, #128	; 0x80
 800688e:	005b      	lsls	r3, r3, #1
 8006890:	4013      	ands	r3, r2
 8006892:	d0f0      	beq.n	8006876 <HAL_RCCEx_PeriphCLKConfig+0x7a>
        }
      }
    }
    
    /* Reset the Backup domain only if the RTC Clock source selection is modified from reset value */ 
    temp_reg = (RCC->BDCR & RCC_BDCR_RTCSEL);
 8006894:	4b3a      	ldr	r3, [pc, #232]	; (8006980 <HAL_RCCEx_PeriphCLKConfig+0x184>)
 8006896:	6a1a      	ldr	r2, [r3, #32]
 8006898:	23c0      	movs	r3, #192	; 0xc0
 800689a:	009b      	lsls	r3, r3, #2
 800689c:	4013      	ands	r3, r2
 800689e:	60fb      	str	r3, [r7, #12]
    if((temp_reg != 0x00000000U) && (temp_reg != (PeriphClkInit->RTCClockSelection & RCC_BDCR_RTCSEL)))
 80068a0:	68fb      	ldr	r3, [r7, #12]
 80068a2:	2b00      	cmp	r3, #0
 80068a4:	d034      	beq.n	8006910 <HAL_RCCEx_PeriphCLKConfig+0x114>
 80068a6:	687b      	ldr	r3, [r7, #4]
 80068a8:	685a      	ldr	r2, [r3, #4]
 80068aa:	23c0      	movs	r3, #192	; 0xc0
 80068ac:	009b      	lsls	r3, r3, #2
 80068ae:	4013      	ands	r3, r2
 80068b0:	68fa      	ldr	r2, [r7, #12]
 80068b2:	429a      	cmp	r2, r3
 80068b4:	d02c      	beq.n	8006910 <HAL_RCCEx_PeriphCLKConfig+0x114>
    {
      /* Store the content of BDCR register before the reset of Backup Domain */
      temp_reg = (RCC->BDCR & ~(RCC_BDCR_RTCSEL));
 80068b6:	4b32      	ldr	r3, [pc, #200]	; (8006980 <HAL_RCCEx_PeriphCLKConfig+0x184>)
 80068b8:	6a1b      	ldr	r3, [r3, #32]
 80068ba:	4a33      	ldr	r2, [pc, #204]	; (8006988 <HAL_RCCEx_PeriphCLKConfig+0x18c>)
 80068bc:	4013      	ands	r3, r2
 80068be:	60fb      	str	r3, [r7, #12]
      /* RTC Clock selection can be changed only if the Backup Domain is reset */
      __HAL_RCC_BACKUPRESET_FORCE();
 80068c0:	4b2f      	ldr	r3, [pc, #188]	; (8006980 <HAL_RCCEx_PeriphCLKConfig+0x184>)
 80068c2:	6a1a      	ldr	r2, [r3, #32]
 80068c4:	4b2e      	ldr	r3, [pc, #184]	; (8006980 <HAL_RCCEx_PeriphCLKConfig+0x184>)
 80068c6:	2180      	movs	r1, #128	; 0x80
 80068c8:	0249      	lsls	r1, r1, #9
 80068ca:	430a      	orrs	r2, r1
 80068cc:	621a      	str	r2, [r3, #32]
      __HAL_RCC_BACKUPRESET_RELEASE();
 80068ce:	4b2c      	ldr	r3, [pc, #176]	; (8006980 <HAL_RCCEx_PeriphCLKConfig+0x184>)
 80068d0:	6a1a      	ldr	r2, [r3, #32]
 80068d2:	4b2b      	ldr	r3, [pc, #172]	; (8006980 <HAL_RCCEx_PeriphCLKConfig+0x184>)
 80068d4:	492d      	ldr	r1, [pc, #180]	; (800698c <HAL_RCCEx_PeriphCLKConfig+0x190>)
 80068d6:	400a      	ands	r2, r1
 80068d8:	621a      	str	r2, [r3, #32]
      /* Restore the Content of BDCR register */
      RCC->BDCR = temp_reg;
 80068da:	4b29      	ldr	r3, [pc, #164]	; (8006980 <HAL_RCCEx_PeriphCLKConfig+0x184>)
 80068dc:	68fa      	ldr	r2, [r7, #12]
 80068de:	621a      	str	r2, [r3, #32]
      
      /* Wait for LSERDY if LSE was enabled */
      if (HAL_IS_BIT_SET(temp_reg, RCC_BDCR_LSEON))
 80068e0:	68fb      	ldr	r3, [r7, #12]
 80068e2:	2201      	movs	r2, #1
 80068e4:	4013      	ands	r3, r2
 80068e6:	d013      	beq.n	8006910 <HAL_RCCEx_PeriphCLKConfig+0x114>
      {
        /* Get Start Tick */
        tickstart = HAL_GetTick();
 80068e8:	f7fd fe76 	bl	80045d8 <HAL_GetTick>
 80068ec:	0003      	movs	r3, r0
 80068ee:	613b      	str	r3, [r7, #16]
        
        /* Wait till LSE is ready */  
        while(__HAL_RCC_GET_FLAG(RCC_FLAG_LSERDY) == RESET)
 80068f0:	e009      	b.n	8006906 <HAL_RCCEx_PeriphCLKConfig+0x10a>
        {
          if((HAL_GetTick() - tickstart) > RCC_LSE_TIMEOUT_VALUE)
 80068f2:	f7fd fe71 	bl	80045d8 <HAL_GetTick>
 80068f6:	0002      	movs	r2, r0
 80068f8:	693b      	ldr	r3, [r7, #16]
 80068fa:	1ad3      	subs	r3, r2, r3
 80068fc:	4a24      	ldr	r2, [pc, #144]	; (8006990 <HAL_RCCEx_PeriphCLKConfig+0x194>)
 80068fe:	4293      	cmp	r3, r2
 8006900:	d901      	bls.n	8006906 <HAL_RCCEx_PeriphCLKConfig+0x10a>
          {
            return HAL_TIMEOUT;
 8006902:	2303      	movs	r3, #3
 8006904:	e038      	b.n	8006978 <HAL_RCCEx_PeriphCLKConfig+0x17c>
        while(__HAL_RCC_GET_FLAG(RCC_FLAG_LSERDY) == RESET)
 8006906:	4b1e      	ldr	r3, [pc, #120]	; (8006980 <HAL_RCCEx_PeriphCLKConfig+0x184>)
 8006908:	6a1b      	ldr	r3, [r3, #32]
 800690a:	2202      	movs	r2, #2
 800690c:	4013      	ands	r3, r2
 800690e:	d0f0      	beq.n	80068f2 <HAL_RCCEx_PeriphCLKConfig+0xf6>
          }
        }
      }
    }
    __HAL_RCC_RTC_CONFIG(PeriphClkInit->RTCClockSelection);
 8006910:	4b1b      	ldr	r3, [pc, #108]	; (8006980 <HAL_RCCEx_PeriphCLKConfig+0x184>)
 8006912:	6a1b      	ldr	r3, [r3, #32]
 8006914:	4a1c      	ldr	r2, [pc, #112]	; (8006988 <HAL_RCCEx_PeriphCLKConfig+0x18c>)
 8006916:	4013      	ands	r3, r2
 8006918:	0019      	movs	r1, r3
 800691a:	687b      	ldr	r3, [r7, #4]
 800691c:	685a      	ldr	r2, [r3, #4]
 800691e:	4b18      	ldr	r3, [pc, #96]	; (8006980 <HAL_RCCEx_PeriphCLKConfig+0x184>)
 8006920:	430a      	orrs	r2, r1
 8006922:	621a      	str	r2, [r3, #32]

    /* Require to disable power clock if necessary */
    if(pwrclkchanged == SET)
 8006924:	2317      	movs	r3, #23
 8006926:	18fb      	adds	r3, r7, r3
 8006928:	781b      	ldrb	r3, [r3, #0]
 800692a:	2b01      	cmp	r3, #1
 800692c:	d105      	bne.n	800693a <HAL_RCCEx_PeriphCLKConfig+0x13e>
    {
      __HAL_RCC_PWR_CLK_DISABLE();
 800692e:	4b14      	ldr	r3, [pc, #80]	; (8006980 <HAL_RCCEx_PeriphCLKConfig+0x184>)
 8006930:	69da      	ldr	r2, [r3, #28]
 8006932:	4b13      	ldr	r3, [pc, #76]	; (8006980 <HAL_RCCEx_PeriphCLKConfig+0x184>)
 8006934:	4917      	ldr	r1, [pc, #92]	; (8006994 <HAL_RCCEx_PeriphCLKConfig+0x198>)
 8006936:	400a      	ands	r2, r1
 8006938:	61da      	str	r2, [r3, #28]
    }
  }

  /*------------------------------- USART1 Configuration ------------------------*/ 
  if(((PeriphClkInit->PeriphClockSelection) & RCC_PERIPHCLK_USART1) == RCC_PERIPHCLK_USART1)
 800693a:	687b      	ldr	r3, [r7, #4]
 800693c:	681b      	ldr	r3, [r3, #0]
 800693e:	2201      	movs	r2, #1
 8006940:	4013      	ands	r3, r2
 8006942:	d009      	beq.n	8006958 <HAL_RCCEx_PeriphCLKConfig+0x15c>
  {
    /* Check the parameters */
    assert_param(IS_RCC_USART1CLKSOURCE(PeriphClkInit->Usart1ClockSelection));
    
    /* Configure the USART1 clock source */
    __HAL_RCC_USART1_CONFIG(PeriphClkInit->Usart1ClockSelection);
 8006944:	4b0e      	ldr	r3, [pc, #56]	; (8006980 <HAL_RCCEx_PeriphCLKConfig+0x184>)
 8006946:	6b1b      	ldr	r3, [r3, #48]	; 0x30
 8006948:	2203      	movs	r2, #3
 800694a:	4393      	bics	r3, r2
 800694c:	0019      	movs	r1, r3
 800694e:	687b      	ldr	r3, [r7, #4]
 8006950:	689a      	ldr	r2, [r3, #8]
 8006952:	4b0b      	ldr	r3, [pc, #44]	; (8006980 <HAL_RCCEx_PeriphCLKConfig+0x184>)
 8006954:	430a      	orrs	r2, r1
 8006956:	631a      	str	r2, [r3, #48]	; 0x30
    __HAL_RCC_USART3_CONFIG(PeriphClkInit->Usart3ClockSelection);
  }
#endif /* STM32F091xC || STM32F098xx */  

  /*------------------------------ I2C1 Configuration ------------------------*/ 
  if(((PeriphClkInit->PeriphClockSelection) & RCC_PERIPHCLK_I2C1) == RCC_PERIPHCLK_I2C1)
 8006958:	687b      	ldr	r3, [r7, #4]
 800695a:	681b      	ldr	r3, [r3, #0]
 800695c:	2220      	movs	r2, #32
 800695e:	4013      	ands	r3, r2
 8006960:	d009      	beq.n	8006976 <HAL_RCCEx_PeriphCLKConfig+0x17a>
  {
    /* Check the parameters */
    assert_param(IS_RCC_I2C1CLKSOURCE(PeriphClkInit->I2c1ClockSelection));
    
    /* Configure the I2C1 clock source */
    __HAL_RCC_I2C1_CONFIG(PeriphClkInit->I2c1ClockSelection);
 8006962:	4b07      	ldr	r3, [pc, #28]	; (8006980 <HAL_RCCEx_PeriphCLKConfig+0x184>)
 8006964:	6b1b      	ldr	r3, [r3, #48]	; 0x30
 8006966:	2210      	movs	r2, #16
 8006968:	4393      	bics	r3, r2
 800696a:	0019      	movs	r1, r3
 800696c:	687b      	ldr	r3, [r7, #4]
 800696e:	68da      	ldr	r2, [r3, #12]
 8006970:	4b03      	ldr	r3, [pc, #12]	; (8006980 <HAL_RCCEx_PeriphCLKConfig+0x184>)
 8006972:	430a      	orrs	r2, r1
 8006974:	631a      	str	r2, [r3, #48]	; 0x30
#endif /* STM32F042x6 || STM32F048xx ||                */
       /* STM32F051x8 || STM32F058xx ||                */
       /* STM32F071xB || STM32F072xB || STM32F078xx || */
       /* STM32F091xC || STM32F098xx */
  
  return HAL_OK;
 8006976:	2300      	movs	r3, #0
}
 8006978:	0018      	movs	r0, r3
 800697a:	46bd      	mov	sp, r7
 800697c:	b006      	add	sp, #24
 800697e:	bd80      	pop	{r7, pc}
 8006980:	40021000 	.word	0x40021000
 8006984:	40007000 	.word	0x40007000
 8006988:	fffffcff 	.word	0xfffffcff
 800698c:	fffeffff 	.word	0xfffeffff
 8006990:	00001388 	.word	0x00001388
 8006994:	efffffff 	.word	0xefffffff

08006998 <HAL_RTC_Init>:
  *         in the RTC_InitTypeDef structure and initialize the associated handle.
  * @param  hrtc RTC handle
  * @retval HAL status
  */
HAL_StatusTypeDef HAL_RTC_Init(RTC_HandleTypeDef *hrtc)
{
 8006998:	b580      	push	{r7, lr}
 800699a:	b082      	sub	sp, #8
 800699c:	af00      	add	r7, sp, #0
 800699e:	6078      	str	r0, [r7, #4]
  /* Check the RTC peripheral state */
  if (hrtc == NULL)
 80069a0:	687b      	ldr	r3, [r7, #4]
 80069a2:	2b00      	cmp	r3, #0
 80069a4:	d101      	bne.n	80069aa <HAL_RTC_Init+0x12>
  {
    return HAL_ERROR;
 80069a6:	2301      	movs	r3, #1
 80069a8:	e081      	b.n	8006aae <HAL_RTC_Init+0x116>
    {
      hrtc->MspDeInitCallback = HAL_RTC_MspDeInit;
    }
  }
#else
  if (hrtc->State == HAL_RTC_STATE_RESET)
 80069aa:	687b      	ldr	r3, [r7, #4]
 80069ac:	7f5b      	ldrb	r3, [r3, #29]
 80069ae:	b2db      	uxtb	r3, r3
 80069b0:	2b00      	cmp	r3, #0
 80069b2:	d106      	bne.n	80069c2 <HAL_RTC_Init+0x2a>
  {
    /* Allocate lock resource and initialize it */
    hrtc->Lock = HAL_UNLOCKED;
 80069b4:	687b      	ldr	r3, [r7, #4]
 80069b6:	2200      	movs	r2, #0
 80069b8:	771a      	strb	r2, [r3, #28]

    /* Initialize RTC MSP */
    HAL_RTC_MspInit(hrtc);
 80069ba:	687b      	ldr	r3, [r7, #4]
 80069bc:	0018      	movs	r0, r3
 80069be:	f7fb fa69 	bl	8001e94 <HAL_RTC_MspInit>
  }
#endif /* (USE_HAL_RTC_REGISTER_CALLBACKS) */

  /* Set RTC state */
  hrtc->State = HAL_RTC_STATE_BUSY;
 80069c2:	687b      	ldr	r3, [r7, #4]
 80069c4:	2202      	movs	r2, #2
 80069c6:	775a      	strb	r2, [r3, #29]

  /* Disable the write protection for RTC registers */
  __HAL_RTC_WRITEPROTECTION_DISABLE(hrtc);
 80069c8:	687b      	ldr	r3, [r7, #4]
 80069ca:	681b      	ldr	r3, [r3, #0]
 80069cc:	22ca      	movs	r2, #202	; 0xca
 80069ce:	625a      	str	r2, [r3, #36]	; 0x24
 80069d0:	687b      	ldr	r3, [r7, #4]
 80069d2:	681b      	ldr	r3, [r3, #0]
 80069d4:	2253      	movs	r2, #83	; 0x53
 80069d6:	625a      	str	r2, [r3, #36]	; 0x24

  /* Set Initialization mode */
  if (RTC_EnterInitMode(hrtc) != HAL_OK)
 80069d8:	687b      	ldr	r3, [r7, #4]
 80069da:	0018      	movs	r0, r3
 80069dc:	f000 f9fb 	bl	8006dd6 <RTC_EnterInitMode>
 80069e0:	1e03      	subs	r3, r0, #0
 80069e2:	d008      	beq.n	80069f6 <HAL_RTC_Init+0x5e>
  {
    /* Enable the write protection for RTC registers */
    __HAL_RTC_WRITEPROTECTION_ENABLE(hrtc);
 80069e4:	687b      	ldr	r3, [r7, #4]
 80069e6:	681b      	ldr	r3, [r3, #0]
 80069e8:	22ff      	movs	r2, #255	; 0xff
 80069ea:	625a      	str	r2, [r3, #36]	; 0x24

    /* Set RTC state */
    hrtc->State = HAL_RTC_STATE_ERROR;
 80069ec:	687b      	ldr	r3, [r7, #4]
 80069ee:	2204      	movs	r2, #4
 80069f0:	775a      	strb	r2, [r3, #29]

    return HAL_ERROR;
 80069f2:	2301      	movs	r3, #1
 80069f4:	e05b      	b.n	8006aae <HAL_RTC_Init+0x116>
  }
  else
  {
    /* Clear RTC_CR FMT, OSEL and POL Bits */
    hrtc->Instance->CR &= ((uint32_t)~(RTC_CR_FMT | RTC_CR_OSEL | RTC_CR_POL));
 80069f6:	687b      	ldr	r3, [r7, #4]
 80069f8:	681b      	ldr	r3, [r3, #0]
 80069fa:	689a      	ldr	r2, [r3, #8]
 80069fc:	687b      	ldr	r3, [r7, #4]
 80069fe:	681b      	ldr	r3, [r3, #0]
 8006a00:	492d      	ldr	r1, [pc, #180]	; (8006ab8 <HAL_RTC_Init+0x120>)
 8006a02:	400a      	ands	r2, r1
 8006a04:	609a      	str	r2, [r3, #8]
    /* Set RTC_CR register */
    hrtc->Instance->CR |= (uint32_t)(hrtc->Init.HourFormat | hrtc->Init.OutPut | hrtc->Init.OutPutPolarity);
 8006a06:	687b      	ldr	r3, [r7, #4]
 8006a08:	681b      	ldr	r3, [r3, #0]
 8006a0a:	6899      	ldr	r1, [r3, #8]
 8006a0c:	687b      	ldr	r3, [r7, #4]
 8006a0e:	685a      	ldr	r2, [r3, #4]
 8006a10:	687b      	ldr	r3, [r7, #4]
 8006a12:	691b      	ldr	r3, [r3, #16]
 8006a14:	431a      	orrs	r2, r3
 8006a16:	687b      	ldr	r3, [r7, #4]
 8006a18:	695b      	ldr	r3, [r3, #20]
 8006a1a:	431a      	orrs	r2, r3
 8006a1c:	687b      	ldr	r3, [r7, #4]
 8006a1e:	681b      	ldr	r3, [r3, #0]
 8006a20:	430a      	orrs	r2, r1
 8006a22:	609a      	str	r2, [r3, #8]

    /* Configure the RTC PRER */
    hrtc->Instance->PRER = (uint32_t)(hrtc->Init.SynchPrediv);
 8006a24:	687b      	ldr	r3, [r7, #4]
 8006a26:	681b      	ldr	r3, [r3, #0]
 8006a28:	687a      	ldr	r2, [r7, #4]
 8006a2a:	68d2      	ldr	r2, [r2, #12]
 8006a2c:	611a      	str	r2, [r3, #16]
    hrtc->Instance->PRER |= (uint32_t)(hrtc->Init.AsynchPrediv << 16U);
 8006a2e:	687b      	ldr	r3, [r7, #4]
 8006a30:	681b      	ldr	r3, [r3, #0]
 8006a32:	6919      	ldr	r1, [r3, #16]
 8006a34:	687b      	ldr	r3, [r7, #4]
 8006a36:	689b      	ldr	r3, [r3, #8]
 8006a38:	041a      	lsls	r2, r3, #16
 8006a3a:	687b      	ldr	r3, [r7, #4]
 8006a3c:	681b      	ldr	r3, [r3, #0]
 8006a3e:	430a      	orrs	r2, r1
 8006a40:	611a      	str	r2, [r3, #16]

    /* Exit Initialization mode */
    hrtc->Instance->ISR &= (uint32_t)~RTC_ISR_INIT;
 8006a42:	687b      	ldr	r3, [r7, #4]
 8006a44:	681b      	ldr	r3, [r3, #0]
 8006a46:	68da      	ldr	r2, [r3, #12]
 8006a48:	687b      	ldr	r3, [r7, #4]
 8006a4a:	681b      	ldr	r3, [r3, #0]
 8006a4c:	2180      	movs	r1, #128	; 0x80
 8006a4e:	438a      	bics	r2, r1
 8006a50:	60da      	str	r2, [r3, #12]

    /* If  CR_BYPSHAD bit = 0, wait for synchro else this check is not needed */
    if ((hrtc->Instance->CR & RTC_CR_BYPSHAD) == RESET)
 8006a52:	687b      	ldr	r3, [r7, #4]
 8006a54:	681b      	ldr	r3, [r3, #0]
 8006a56:	689b      	ldr	r3, [r3, #8]
 8006a58:	2220      	movs	r2, #32
 8006a5a:	4013      	ands	r3, r2
 8006a5c:	d10e      	bne.n	8006a7c <HAL_RTC_Init+0xe4>
    {
      if (HAL_RTC_WaitForSynchro(hrtc) != HAL_OK)
 8006a5e:	687b      	ldr	r3, [r7, #4]
 8006a60:	0018      	movs	r0, r3
 8006a62:	f000 f98f 	bl	8006d84 <HAL_RTC_WaitForSynchro>
 8006a66:	1e03      	subs	r3, r0, #0
 8006a68:	d008      	beq.n	8006a7c <HAL_RTC_Init+0xe4>
      {
        /* Enable the write protection for RTC registers */
        __HAL_RTC_WRITEPROTECTION_ENABLE(hrtc);
 8006a6a:	687b      	ldr	r3, [r7, #4]
 8006a6c:	681b      	ldr	r3, [r3, #0]
 8006a6e:	22ff      	movs	r2, #255	; 0xff
 8006a70:	625a      	str	r2, [r3, #36]	; 0x24

        hrtc->State = HAL_RTC_STATE_ERROR;
 8006a72:	687b      	ldr	r3, [r7, #4]
 8006a74:	2204      	movs	r2, #4
 8006a76:	775a      	strb	r2, [r3, #29]

        return HAL_ERROR;
 8006a78:	2301      	movs	r3, #1
 8006a7a:	e018      	b.n	8006aae <HAL_RTC_Init+0x116>
      }
    }

    hrtc->Instance->TAFCR &= (uint32_t)~RTC_TAFCR_ALARMOUTTYPE;
 8006a7c:	687b      	ldr	r3, [r7, #4]
 8006a7e:	681b      	ldr	r3, [r3, #0]
 8006a80:	6c1a      	ldr	r2, [r3, #64]	; 0x40
 8006a82:	687b      	ldr	r3, [r7, #4]
 8006a84:	681b      	ldr	r3, [r3, #0]
 8006a86:	490d      	ldr	r1, [pc, #52]	; (8006abc <HAL_RTC_Init+0x124>)
 8006a88:	400a      	ands	r2, r1
 8006a8a:	641a      	str	r2, [r3, #64]	; 0x40
    hrtc->Instance->TAFCR |= (uint32_t)(hrtc->Init.OutPutType);
 8006a8c:	687b      	ldr	r3, [r7, #4]
 8006a8e:	681b      	ldr	r3, [r3, #0]
 8006a90:	6c19      	ldr	r1, [r3, #64]	; 0x40
 8006a92:	687b      	ldr	r3, [r7, #4]
 8006a94:	699a      	ldr	r2, [r3, #24]
 8006a96:	687b      	ldr	r3, [r7, #4]
 8006a98:	681b      	ldr	r3, [r3, #0]
 8006a9a:	430a      	orrs	r2, r1
 8006a9c:	641a      	str	r2, [r3, #64]	; 0x40

    /* Enable the write protection for RTC registers */
    __HAL_RTC_WRITEPROTECTION_ENABLE(hrtc);
 8006a9e:	687b      	ldr	r3, [r7, #4]
 8006aa0:	681b      	ldr	r3, [r3, #0]
 8006aa2:	22ff      	movs	r2, #255	; 0xff
 8006aa4:	625a      	str	r2, [r3, #36]	; 0x24

    /* Set RTC state */
    hrtc->State = HAL_RTC_STATE_READY;
 8006aa6:	687b      	ldr	r3, [r7, #4]
 8006aa8:	2201      	movs	r2, #1
 8006aaa:	775a      	strb	r2, [r3, #29]

    return HAL_OK;
 8006aac:	2300      	movs	r3, #0
  }
}
 8006aae:	0018      	movs	r0, r3
 8006ab0:	46bd      	mov	sp, r7
 8006ab2:	b002      	add	sp, #8
 8006ab4:	bd80      	pop	{r7, pc}
 8006ab6:	46c0      	nop			; (mov r8, r8)
 8006ab8:	ff8fffbf 	.word	0xff8fffbf
 8006abc:	fffbffff 	.word	0xfffbffff

08006ac0 <HAL_RTC_SetTime>:
  *            @arg RTC_FORMAT_BIN: Binary data format
  *            @arg RTC_FORMAT_BCD: BCD data format
  * @retval HAL status
  */
HAL_StatusTypeDef HAL_RTC_SetTime(RTC_HandleTypeDef *hrtc, RTC_TimeTypeDef *sTime, uint32_t Format)
{
 8006ac0:	b590      	push	{r4, r7, lr}
 8006ac2:	b087      	sub	sp, #28
 8006ac4:	af00      	add	r7, sp, #0
 8006ac6:	60f8      	str	r0, [r7, #12]
 8006ac8:	60b9      	str	r1, [r7, #8]
 8006aca:	607a      	str	r2, [r7, #4]
  uint32_t tmpreg = 0U;
 8006acc:	2300      	movs	r3, #0
 8006ace:	617b      	str	r3, [r7, #20]
  assert_param(IS_RTC_FORMAT(Format));
  assert_param(IS_RTC_DAYLIGHT_SAVING(sTime->DayLightSaving));
  assert_param(IS_RTC_STORE_OPERATION(sTime->StoreOperation));

  /* Process Locked */
  __HAL_LOCK(hrtc);
 8006ad0:	68fb      	ldr	r3, [r7, #12]
 8006ad2:	7f1b      	ldrb	r3, [r3, #28]
 8006ad4:	2b01      	cmp	r3, #1
 8006ad6:	d101      	bne.n	8006adc <HAL_RTC_SetTime+0x1c>
 8006ad8:	2302      	movs	r3, #2
 8006ada:	e0a5      	b.n	8006c28 <HAL_RTC_SetTime+0x168>
 8006adc:	68fb      	ldr	r3, [r7, #12]
 8006ade:	2201      	movs	r2, #1
 8006ae0:	771a      	strb	r2, [r3, #28]

  hrtc->State = HAL_RTC_STATE_BUSY;
 8006ae2:	68fb      	ldr	r3, [r7, #12]
 8006ae4:	2202      	movs	r2, #2
 8006ae6:	775a      	strb	r2, [r3, #29]

  if (Format == RTC_FORMAT_BIN)
 8006ae8:	687b      	ldr	r3, [r7, #4]
 8006aea:	2b00      	cmp	r3, #0
 8006aec:	d125      	bne.n	8006b3a <HAL_RTC_SetTime+0x7a>
  {
    if ((hrtc->Instance->CR & RTC_CR_FMT) != (uint32_t)RESET)
 8006aee:	68fb      	ldr	r3, [r7, #12]
 8006af0:	681b      	ldr	r3, [r3, #0]
 8006af2:	689b      	ldr	r3, [r3, #8]
 8006af4:	2240      	movs	r2, #64	; 0x40
 8006af6:	4013      	ands	r3, r2
 8006af8:	d102      	bne.n	8006b00 <HAL_RTC_SetTime+0x40>
      assert_param(IS_RTC_HOUR12(sTime->Hours));
      assert_param(IS_RTC_HOURFORMAT12(sTime->TimeFormat));
    }
    else
    {
      sTime->TimeFormat = 0x00U;
 8006afa:	68bb      	ldr	r3, [r7, #8]
 8006afc:	2200      	movs	r2, #0
 8006afe:	70da      	strb	r2, [r3, #3]
      assert_param(IS_RTC_HOUR24(sTime->Hours));
    }
    assert_param(IS_RTC_MINUTES(sTime->Minutes));
    assert_param(IS_RTC_SECONDS(sTime->Seconds));

    tmpreg = (uint32_t)(((uint32_t)RTC_ByteToBcd2(sTime->Hours) << 16U) | \
 8006b00:	68bb      	ldr	r3, [r7, #8]
 8006b02:	781b      	ldrb	r3, [r3, #0]
 8006b04:	0018      	movs	r0, r3
 8006b06:	f000 f992 	bl	8006e2e <RTC_ByteToBcd2>
 8006b0a:	0003      	movs	r3, r0
 8006b0c:	041c      	lsls	r4, r3, #16
                        ((uint32_t)RTC_ByteToBcd2(sTime->Minutes) << 8U) | \
 8006b0e:	68bb      	ldr	r3, [r7, #8]
 8006b10:	785b      	ldrb	r3, [r3, #1]
 8006b12:	0018      	movs	r0, r3
 8006b14:	f000 f98b 	bl	8006e2e <RTC_ByteToBcd2>
 8006b18:	0003      	movs	r3, r0
 8006b1a:	021b      	lsls	r3, r3, #8
    tmpreg = (uint32_t)(((uint32_t)RTC_ByteToBcd2(sTime->Hours) << 16U) | \
 8006b1c:	431c      	orrs	r4, r3
                        ((uint32_t)RTC_ByteToBcd2(sTime->Seconds)) | \
 8006b1e:	68bb      	ldr	r3, [r7, #8]
 8006b20:	789b      	ldrb	r3, [r3, #2]
 8006b22:	0018      	movs	r0, r3
 8006b24:	f000 f983 	bl	8006e2e <RTC_ByteToBcd2>
 8006b28:	0003      	movs	r3, r0
                        ((uint32_t)RTC_ByteToBcd2(sTime->Minutes) << 8U) | \
 8006b2a:	0022      	movs	r2, r4
 8006b2c:	431a      	orrs	r2, r3
                        (((uint32_t)sTime->TimeFormat) << 16U));
 8006b2e:	68bb      	ldr	r3, [r7, #8]
 8006b30:	78db      	ldrb	r3, [r3, #3]
 8006b32:	041b      	lsls	r3, r3, #16
    tmpreg = (uint32_t)(((uint32_t)RTC_ByteToBcd2(sTime->Hours) << 16U) | \
 8006b34:	4313      	orrs	r3, r2
 8006b36:	617b      	str	r3, [r7, #20]
 8006b38:	e017      	b.n	8006b6a <HAL_RTC_SetTime+0xaa>
  }
  else
  {
    if ((hrtc->Instance->CR & RTC_CR_FMT) != (uint32_t)RESET)
 8006b3a:	68fb      	ldr	r3, [r7, #12]
 8006b3c:	681b      	ldr	r3, [r3, #0]
 8006b3e:	689b      	ldr	r3, [r3, #8]
 8006b40:	2240      	movs	r2, #64	; 0x40
 8006b42:	4013      	ands	r3, r2
 8006b44:	d102      	bne.n	8006b4c <HAL_RTC_SetTime+0x8c>
      assert_param(IS_RTC_HOUR12(RTC_Bcd2ToByte(sTime->Hours)));
      assert_param(IS_RTC_HOURFORMAT12(sTime->TimeFormat));
    }
    else
    {
      sTime->TimeFormat = 0x00U;
 8006b46:	68bb      	ldr	r3, [r7, #8]
 8006b48:	2200      	movs	r2, #0
 8006b4a:	70da      	strb	r2, [r3, #3]
      assert_param(IS_RTC_HOUR24(RTC_Bcd2ToByte(sTime->Hours)));
    }
    assert_param(IS_RTC_MINUTES(RTC_Bcd2ToByte(sTime->Minutes)));
    assert_param(IS_RTC_SECONDS(RTC_Bcd2ToByte(sTime->Seconds)));
    tmpreg = (((uint32_t)(sTime->Hours) << 16U) | \
 8006b4c:	68bb      	ldr	r3, [r7, #8]
 8006b4e:	781b      	ldrb	r3, [r3, #0]
 8006b50:	041a      	lsls	r2, r3, #16
              ((uint32_t)(sTime->Minutes) << 8U) | \
 8006b52:	68bb      	ldr	r3, [r7, #8]
 8006b54:	785b      	ldrb	r3, [r3, #1]
 8006b56:	021b      	lsls	r3, r3, #8
    tmpreg = (((uint32_t)(sTime->Hours) << 16U) | \
 8006b58:	4313      	orrs	r3, r2
              ((uint32_t)sTime->Seconds) | \
 8006b5a:	68ba      	ldr	r2, [r7, #8]
 8006b5c:	7892      	ldrb	r2, [r2, #2]
              ((uint32_t)(sTime->Minutes) << 8U) | \
 8006b5e:	431a      	orrs	r2, r3
              ((uint32_t)(sTime->TimeFormat) << 16U));
 8006b60:	68bb      	ldr	r3, [r7, #8]
 8006b62:	78db      	ldrb	r3, [r3, #3]
 8006b64:	041b      	lsls	r3, r3, #16
    tmpreg = (((uint32_t)(sTime->Hours) << 16U) | \
 8006b66:	4313      	orrs	r3, r2
 8006b68:	617b      	str	r3, [r7, #20]
  }

  /* Disable the write protection for RTC registers */
  __HAL_RTC_WRITEPROTECTION_DISABLE(hrtc);
 8006b6a:	68fb      	ldr	r3, [r7, #12]
 8006b6c:	681b      	ldr	r3, [r3, #0]
 8006b6e:	22ca      	movs	r2, #202	; 0xca
 8006b70:	625a      	str	r2, [r3, #36]	; 0x24
 8006b72:	68fb      	ldr	r3, [r7, #12]
 8006b74:	681b      	ldr	r3, [r3, #0]
 8006b76:	2253      	movs	r2, #83	; 0x53
 8006b78:	625a      	str	r2, [r3, #36]	; 0x24

  /* Set Initialization mode */
  if (RTC_EnterInitMode(hrtc) != HAL_OK)
 8006b7a:	68fb      	ldr	r3, [r7, #12]
 8006b7c:	0018      	movs	r0, r3
 8006b7e:	f000 f92a 	bl	8006dd6 <RTC_EnterInitMode>
 8006b82:	1e03      	subs	r3, r0, #0
 8006b84:	d00b      	beq.n	8006b9e <HAL_RTC_SetTime+0xde>
  {
    /* Enable the write protection for RTC registers */
    __HAL_RTC_WRITEPROTECTION_ENABLE(hrtc);
 8006b86:	68fb      	ldr	r3, [r7, #12]
 8006b88:	681b      	ldr	r3, [r3, #0]
 8006b8a:	22ff      	movs	r2, #255	; 0xff
 8006b8c:	625a      	str	r2, [r3, #36]	; 0x24

    /* Set RTC state */
    hrtc->State = HAL_RTC_STATE_ERROR;
 8006b8e:	68fb      	ldr	r3, [r7, #12]
 8006b90:	2204      	movs	r2, #4
 8006b92:	775a      	strb	r2, [r3, #29]

    /* Process Unlocked */
    __HAL_UNLOCK(hrtc);
 8006b94:	68fb      	ldr	r3, [r7, #12]
 8006b96:	2200      	movs	r2, #0
 8006b98:	771a      	strb	r2, [r3, #28]

    return HAL_ERROR;
 8006b9a:	2301      	movs	r3, #1
 8006b9c:	e044      	b.n	8006c28 <HAL_RTC_SetTime+0x168>
  }
  else
  {
    /* Set the RTC_TR register */
    hrtc->Instance->TR = (uint32_t)(tmpreg & RTC_TR_RESERVED_MASK);
 8006b9e:	68fb      	ldr	r3, [r7, #12]
 8006ba0:	681b      	ldr	r3, [r3, #0]
 8006ba2:	697a      	ldr	r2, [r7, #20]
 8006ba4:	4922      	ldr	r1, [pc, #136]	; (8006c30 <HAL_RTC_SetTime+0x170>)
 8006ba6:	400a      	ands	r2, r1
 8006ba8:	601a      	str	r2, [r3, #0]

    /* Clear the bits to be configured */
    hrtc->Instance->CR &= ((uint32_t)~RTC_CR_BKP);
 8006baa:	68fb      	ldr	r3, [r7, #12]
 8006bac:	681b      	ldr	r3, [r3, #0]
 8006bae:	689a      	ldr	r2, [r3, #8]
 8006bb0:	68fb      	ldr	r3, [r7, #12]
 8006bb2:	681b      	ldr	r3, [r3, #0]
 8006bb4:	491f      	ldr	r1, [pc, #124]	; (8006c34 <HAL_RTC_SetTime+0x174>)
 8006bb6:	400a      	ands	r2, r1
 8006bb8:	609a      	str	r2, [r3, #8]

    /* Configure the RTC_CR register */
    hrtc->Instance->CR |= (uint32_t)(sTime->DayLightSaving | sTime->StoreOperation);
 8006bba:	68fb      	ldr	r3, [r7, #12]
 8006bbc:	681b      	ldr	r3, [r3, #0]
 8006bbe:	6899      	ldr	r1, [r3, #8]
 8006bc0:	68bb      	ldr	r3, [r7, #8]
 8006bc2:	68da      	ldr	r2, [r3, #12]
 8006bc4:	68bb      	ldr	r3, [r7, #8]
 8006bc6:	691b      	ldr	r3, [r3, #16]
 8006bc8:	431a      	orrs	r2, r3
 8006bca:	68fb      	ldr	r3, [r7, #12]
 8006bcc:	681b      	ldr	r3, [r3, #0]
 8006bce:	430a      	orrs	r2, r1
 8006bd0:	609a      	str	r2, [r3, #8]

    /* Exit Initialization mode */
    hrtc->Instance->ISR &= ((uint32_t)~RTC_ISR_INIT);
 8006bd2:	68fb      	ldr	r3, [r7, #12]
 8006bd4:	681b      	ldr	r3, [r3, #0]
 8006bd6:	68da      	ldr	r2, [r3, #12]
 8006bd8:	68fb      	ldr	r3, [r7, #12]
 8006bda:	681b      	ldr	r3, [r3, #0]
 8006bdc:	2180      	movs	r1, #128	; 0x80
 8006bde:	438a      	bics	r2, r1
 8006be0:	60da      	str	r2, [r3, #12]

    /* If  CR_BYPSHAD bit = 0, wait for synchro else this check is not needed */
    if ((hrtc->Instance->CR & RTC_CR_BYPSHAD) == RESET)
 8006be2:	68fb      	ldr	r3, [r7, #12]
 8006be4:	681b      	ldr	r3, [r3, #0]
 8006be6:	689b      	ldr	r3, [r3, #8]
 8006be8:	2220      	movs	r2, #32
 8006bea:	4013      	ands	r3, r2
 8006bec:	d111      	bne.n	8006c12 <HAL_RTC_SetTime+0x152>
    {
      if (HAL_RTC_WaitForSynchro(hrtc) != HAL_OK)
 8006bee:	68fb      	ldr	r3, [r7, #12]
 8006bf0:	0018      	movs	r0, r3
 8006bf2:	f000 f8c7 	bl	8006d84 <HAL_RTC_WaitForSynchro>
 8006bf6:	1e03      	subs	r3, r0, #0
 8006bf8:	d00b      	beq.n	8006c12 <HAL_RTC_SetTime+0x152>
      {
        /* Enable the write protection for RTC registers */
        __HAL_RTC_WRITEPROTECTION_ENABLE(hrtc);
 8006bfa:	68fb      	ldr	r3, [r7, #12]
 8006bfc:	681b      	ldr	r3, [r3, #0]
 8006bfe:	22ff      	movs	r2, #255	; 0xff
 8006c00:	625a      	str	r2, [r3, #36]	; 0x24

        hrtc->State = HAL_RTC_STATE_ERROR;
 8006c02:	68fb      	ldr	r3, [r7, #12]
 8006c04:	2204      	movs	r2, #4
 8006c06:	775a      	strb	r2, [r3, #29]

        /* Process Unlocked */
        __HAL_UNLOCK(hrtc);
 8006c08:	68fb      	ldr	r3, [r7, #12]
 8006c0a:	2200      	movs	r2, #0
 8006c0c:	771a      	strb	r2, [r3, #28]

        return HAL_ERROR;
 8006c0e:	2301      	movs	r3, #1
 8006c10:	e00a      	b.n	8006c28 <HAL_RTC_SetTime+0x168>
      }
    }

    /* Enable the write protection for RTC registers */
    __HAL_RTC_WRITEPROTECTION_ENABLE(hrtc);
 8006c12:	68fb      	ldr	r3, [r7, #12]
 8006c14:	681b      	ldr	r3, [r3, #0]
 8006c16:	22ff      	movs	r2, #255	; 0xff
 8006c18:	625a      	str	r2, [r3, #36]	; 0x24

    hrtc->State = HAL_RTC_STATE_READY;
 8006c1a:	68fb      	ldr	r3, [r7, #12]
 8006c1c:	2201      	movs	r2, #1
 8006c1e:	775a      	strb	r2, [r3, #29]

    __HAL_UNLOCK(hrtc);
 8006c20:	68fb      	ldr	r3, [r7, #12]
 8006c22:	2200      	movs	r2, #0
 8006c24:	771a      	strb	r2, [r3, #28]

    return HAL_OK;
 8006c26:	2300      	movs	r3, #0
  }
}
 8006c28:	0018      	movs	r0, r3
 8006c2a:	46bd      	mov	sp, r7
 8006c2c:	b007      	add	sp, #28
 8006c2e:	bd90      	pop	{r4, r7, pc}
 8006c30:	007f7f7f 	.word	0x007f7f7f
 8006c34:	fffbffff 	.word	0xfffbffff

08006c38 <HAL_RTC_SetDate>:
  *            @arg RTC_FORMAT_BIN: Binary data format
  *            @arg RTC_FORMAT_BCD: BCD data format
  * @retval HAL status
  */
HAL_StatusTypeDef HAL_RTC_SetDate(RTC_HandleTypeDef *hrtc, RTC_DateTypeDef *sDate, uint32_t Format)
{
 8006c38:	b590      	push	{r4, r7, lr}
 8006c3a:	b087      	sub	sp, #28
 8006c3c:	af00      	add	r7, sp, #0
 8006c3e:	60f8      	str	r0, [r7, #12]
 8006c40:	60b9      	str	r1, [r7, #8]
 8006c42:	607a      	str	r2, [r7, #4]
  uint32_t datetmpreg = 0U;
 8006c44:	2300      	movs	r3, #0
 8006c46:	617b      	str	r3, [r7, #20]

  /* Check the parameters */
  assert_param(IS_RTC_FORMAT(Format));

  /* Process Locked */
  __HAL_LOCK(hrtc);
 8006c48:	68fb      	ldr	r3, [r7, #12]
 8006c4a:	7f1b      	ldrb	r3, [r3, #28]
 8006c4c:	2b01      	cmp	r3, #1
 8006c4e:	d101      	bne.n	8006c54 <HAL_RTC_SetDate+0x1c>
 8006c50:	2302      	movs	r3, #2
 8006c52:	e091      	b.n	8006d78 <HAL_RTC_SetDate+0x140>
 8006c54:	68fb      	ldr	r3, [r7, #12]
 8006c56:	2201      	movs	r2, #1
 8006c58:	771a      	strb	r2, [r3, #28]

  hrtc->State = HAL_RTC_STATE_BUSY;
 8006c5a:	68fb      	ldr	r3, [r7, #12]
 8006c5c:	2202      	movs	r2, #2
 8006c5e:	775a      	strb	r2, [r3, #29]

  if ((Format == RTC_FORMAT_BIN) && ((sDate->Month & 0x10U) == 0x10U))
 8006c60:	687b      	ldr	r3, [r7, #4]
 8006c62:	2b00      	cmp	r3, #0
 8006c64:	d10e      	bne.n	8006c84 <HAL_RTC_SetDate+0x4c>
 8006c66:	68bb      	ldr	r3, [r7, #8]
 8006c68:	785b      	ldrb	r3, [r3, #1]
 8006c6a:	001a      	movs	r2, r3
 8006c6c:	2310      	movs	r3, #16
 8006c6e:	4013      	ands	r3, r2
 8006c70:	d008      	beq.n	8006c84 <HAL_RTC_SetDate+0x4c>
  {
    sDate->Month = (uint8_t)((sDate->Month & (uint8_t)~(0x10U)) + (uint8_t)0x0AU);
 8006c72:	68bb      	ldr	r3, [r7, #8]
 8006c74:	785b      	ldrb	r3, [r3, #1]
 8006c76:	2210      	movs	r2, #16
 8006c78:	4393      	bics	r3, r2
 8006c7a:	b2db      	uxtb	r3, r3
 8006c7c:	330a      	adds	r3, #10
 8006c7e:	b2da      	uxtb	r2, r3
 8006c80:	68bb      	ldr	r3, [r7, #8]
 8006c82:	705a      	strb	r2, [r3, #1]
  }

  assert_param(IS_RTC_WEEKDAY(sDate->WeekDay));

  if (Format == RTC_FORMAT_BIN)
 8006c84:	687b      	ldr	r3, [r7, #4]
 8006c86:	2b00      	cmp	r3, #0
 8006c88:	d11c      	bne.n	8006cc4 <HAL_RTC_SetDate+0x8c>
  {
    assert_param(IS_RTC_YEAR(sDate->Year));
    assert_param(IS_RTC_MONTH(sDate->Month));
    assert_param(IS_RTC_DATE(sDate->Date));

    datetmpreg = (((uint32_t)RTC_ByteToBcd2(sDate->Year) << 16U) | \
 8006c8a:	68bb      	ldr	r3, [r7, #8]
 8006c8c:	78db      	ldrb	r3, [r3, #3]
 8006c8e:	0018      	movs	r0, r3
 8006c90:	f000 f8cd 	bl	8006e2e <RTC_ByteToBcd2>
 8006c94:	0003      	movs	r3, r0
 8006c96:	041c      	lsls	r4, r3, #16
                  ((uint32_t)RTC_ByteToBcd2(sDate->Month) << 8U) | \
 8006c98:	68bb      	ldr	r3, [r7, #8]
 8006c9a:	785b      	ldrb	r3, [r3, #1]
 8006c9c:	0018      	movs	r0, r3
 8006c9e:	f000 f8c6 	bl	8006e2e <RTC_ByteToBcd2>
 8006ca2:	0003      	movs	r3, r0
 8006ca4:	021b      	lsls	r3, r3, #8
    datetmpreg = (((uint32_t)RTC_ByteToBcd2(sDate->Year) << 16U) | \
 8006ca6:	431c      	orrs	r4, r3
                  ((uint32_t)RTC_ByteToBcd2(sDate->Date)) | \
 8006ca8:	68bb      	ldr	r3, [r7, #8]
 8006caa:	789b      	ldrb	r3, [r3, #2]
 8006cac:	0018      	movs	r0, r3
 8006cae:	f000 f8be 	bl	8006e2e <RTC_ByteToBcd2>
 8006cb2:	0003      	movs	r3, r0
                  ((uint32_t)RTC_ByteToBcd2(sDate->Month) << 8U) | \
 8006cb4:	0022      	movs	r2, r4
 8006cb6:	431a      	orrs	r2, r3
                  ((uint32_t)sDate->WeekDay << 13U));
 8006cb8:	68bb      	ldr	r3, [r7, #8]
 8006cba:	781b      	ldrb	r3, [r3, #0]
 8006cbc:	035b      	lsls	r3, r3, #13
    datetmpreg = (((uint32_t)RTC_ByteToBcd2(sDate->Year) << 16U) | \
 8006cbe:	4313      	orrs	r3, r2
 8006cc0:	617b      	str	r3, [r7, #20]
 8006cc2:	e00e      	b.n	8006ce2 <HAL_RTC_SetDate+0xaa>
  {
    assert_param(IS_RTC_YEAR(RTC_Bcd2ToByte(sDate->Year)));
    assert_param(IS_RTC_MONTH(RTC_Bcd2ToByte(sDate->Month)));
    assert_param(IS_RTC_DATE(RTC_Bcd2ToByte(sDate->Date)));

    datetmpreg = ((((uint32_t)sDate->Year) << 16U) | \
 8006cc4:	68bb      	ldr	r3, [r7, #8]
 8006cc6:	78db      	ldrb	r3, [r3, #3]
 8006cc8:	041a      	lsls	r2, r3, #16
                  (((uint32_t)sDate->Month) << 8U) | \
 8006cca:	68bb      	ldr	r3, [r7, #8]
 8006ccc:	785b      	ldrb	r3, [r3, #1]
 8006cce:	021b      	lsls	r3, r3, #8
    datetmpreg = ((((uint32_t)sDate->Year) << 16U) | \
 8006cd0:	4313      	orrs	r3, r2
                  ((uint32_t)sDate->Date) | \
 8006cd2:	68ba      	ldr	r2, [r7, #8]
 8006cd4:	7892      	ldrb	r2, [r2, #2]
                  (((uint32_t)sDate->Month) << 8U) | \
 8006cd6:	431a      	orrs	r2, r3
                  (((uint32_t)sDate->WeekDay) << 13U));
 8006cd8:	68bb      	ldr	r3, [r7, #8]
 8006cda:	781b      	ldrb	r3, [r3, #0]
 8006cdc:	035b      	lsls	r3, r3, #13
    datetmpreg = ((((uint32_t)sDate->Year) << 16U) | \
 8006cde:	4313      	orrs	r3, r2
 8006ce0:	617b      	str	r3, [r7, #20]
  }

  /* Disable the write protection for RTC registers */
  __HAL_RTC_WRITEPROTECTION_DISABLE(hrtc);
 8006ce2:	68fb      	ldr	r3, [r7, #12]
 8006ce4:	681b      	ldr	r3, [r3, #0]
 8006ce6:	22ca      	movs	r2, #202	; 0xca
 8006ce8:	625a      	str	r2, [r3, #36]	; 0x24
 8006cea:	68fb      	ldr	r3, [r7, #12]
 8006cec:	681b      	ldr	r3, [r3, #0]
 8006cee:	2253      	movs	r2, #83	; 0x53
 8006cf0:	625a      	str	r2, [r3, #36]	; 0x24

  /* Set Initialization mode */
  if (RTC_EnterInitMode(hrtc) != HAL_OK)
 8006cf2:	68fb      	ldr	r3, [r7, #12]
 8006cf4:	0018      	movs	r0, r3
 8006cf6:	f000 f86e 	bl	8006dd6 <RTC_EnterInitMode>
 8006cfa:	1e03      	subs	r3, r0, #0
 8006cfc:	d00b      	beq.n	8006d16 <HAL_RTC_SetDate+0xde>
  {
    /* Enable the write protection for RTC registers */
    __HAL_RTC_WRITEPROTECTION_ENABLE(hrtc);
 8006cfe:	68fb      	ldr	r3, [r7, #12]
 8006d00:	681b      	ldr	r3, [r3, #0]
 8006d02:	22ff      	movs	r2, #255	; 0xff
 8006d04:	625a      	str	r2, [r3, #36]	; 0x24

    /* Set RTC state*/
    hrtc->State = HAL_RTC_STATE_ERROR;
 8006d06:	68fb      	ldr	r3, [r7, #12]
 8006d08:	2204      	movs	r2, #4
 8006d0a:	775a      	strb	r2, [r3, #29]

    /* Process Unlocked */
    __HAL_UNLOCK(hrtc);
 8006d0c:	68fb      	ldr	r3, [r7, #12]
 8006d0e:	2200      	movs	r2, #0
 8006d10:	771a      	strb	r2, [r3, #28]

    return HAL_ERROR;
 8006d12:	2301      	movs	r3, #1
 8006d14:	e030      	b.n	8006d78 <HAL_RTC_SetDate+0x140>
  }
  else
  {
    /* Set the RTC_DR register */
    hrtc->Instance->DR = (uint32_t)(datetmpreg & RTC_DR_RESERVED_MASK);
 8006d16:	68fb      	ldr	r3, [r7, #12]
 8006d18:	681b      	ldr	r3, [r3, #0]
 8006d1a:	697a      	ldr	r2, [r7, #20]
 8006d1c:	4918      	ldr	r1, [pc, #96]	; (8006d80 <HAL_RTC_SetDate+0x148>)
 8006d1e:	400a      	ands	r2, r1
 8006d20:	605a      	str	r2, [r3, #4]

    /* Exit Initialization mode */
    hrtc->Instance->ISR &= ((uint32_t)~RTC_ISR_INIT);
 8006d22:	68fb      	ldr	r3, [r7, #12]
 8006d24:	681b      	ldr	r3, [r3, #0]
 8006d26:	68da      	ldr	r2, [r3, #12]
 8006d28:	68fb      	ldr	r3, [r7, #12]
 8006d2a:	681b      	ldr	r3, [r3, #0]
 8006d2c:	2180      	movs	r1, #128	; 0x80
 8006d2e:	438a      	bics	r2, r1
 8006d30:	60da      	str	r2, [r3, #12]

    /* If  CR_BYPSHAD bit = 0, wait for synchro else this check is not needed */
    if ((hrtc->Instance->CR & RTC_CR_BYPSHAD) == RESET)
 8006d32:	68fb      	ldr	r3, [r7, #12]
 8006d34:	681b      	ldr	r3, [r3, #0]
 8006d36:	689b      	ldr	r3, [r3, #8]
 8006d38:	2220      	movs	r2, #32
 8006d3a:	4013      	ands	r3, r2
 8006d3c:	d111      	bne.n	8006d62 <HAL_RTC_SetDate+0x12a>
    {
      if (HAL_RTC_WaitForSynchro(hrtc) != HAL_OK)
 8006d3e:	68fb      	ldr	r3, [r7, #12]
 8006d40:	0018      	movs	r0, r3
 8006d42:	f000 f81f 	bl	8006d84 <HAL_RTC_WaitForSynchro>
 8006d46:	1e03      	subs	r3, r0, #0
 8006d48:	d00b      	beq.n	8006d62 <HAL_RTC_SetDate+0x12a>
      {
        /* Enable the write protection for RTC registers */
        __HAL_RTC_WRITEPROTECTION_ENABLE(hrtc);
 8006d4a:	68fb      	ldr	r3, [r7, #12]
 8006d4c:	681b      	ldr	r3, [r3, #0]
 8006d4e:	22ff      	movs	r2, #255	; 0xff
 8006d50:	625a      	str	r2, [r3, #36]	; 0x24

        hrtc->State = HAL_RTC_STATE_ERROR;
 8006d52:	68fb      	ldr	r3, [r7, #12]
 8006d54:	2204      	movs	r2, #4
 8006d56:	775a      	strb	r2, [r3, #29]

        /* Process Unlocked */
        __HAL_UNLOCK(hrtc);
 8006d58:	68fb      	ldr	r3, [r7, #12]
 8006d5a:	2200      	movs	r2, #0
 8006d5c:	771a      	strb	r2, [r3, #28]

        return HAL_ERROR;
 8006d5e:	2301      	movs	r3, #1
 8006d60:	e00a      	b.n	8006d78 <HAL_RTC_SetDate+0x140>
      }
    }

    /* Enable the write protection for RTC registers */
    __HAL_RTC_WRITEPROTECTION_ENABLE(hrtc);
 8006d62:	68fb      	ldr	r3, [r7, #12]
 8006d64:	681b      	ldr	r3, [r3, #0]
 8006d66:	22ff      	movs	r2, #255	; 0xff
 8006d68:	625a      	str	r2, [r3, #36]	; 0x24

    hrtc->State = HAL_RTC_STATE_READY ;
 8006d6a:	68fb      	ldr	r3, [r7, #12]
 8006d6c:	2201      	movs	r2, #1
 8006d6e:	775a      	strb	r2, [r3, #29]

    /* Process Unlocked */
    __HAL_UNLOCK(hrtc);
 8006d70:	68fb      	ldr	r3, [r7, #12]
 8006d72:	2200      	movs	r2, #0
 8006d74:	771a      	strb	r2, [r3, #28]

    return HAL_OK;
 8006d76:	2300      	movs	r3, #0
  }
}
 8006d78:	0018      	movs	r0, r3
 8006d7a:	46bd      	mov	sp, r7
 8006d7c:	b007      	add	sp, #28
 8006d7e:	bd90      	pop	{r4, r7, pc}
 8006d80:	00ffff3f 	.word	0x00ffff3f

08006d84 <HAL_RTC_WaitForSynchro>:
  *         correctly copied into the RTC_TR and RTC_DR shadow registers.
  * @param  hrtc RTC handle
  * @retval HAL status
  */
HAL_StatusTypeDef HAL_RTC_WaitForSynchro(RTC_HandleTypeDef *hrtc)
{
 8006d84:	b580      	push	{r7, lr}
 8006d86:	b084      	sub	sp, #16
 8006d88:	af00      	add	r7, sp, #0
 8006d8a:	6078      	str	r0, [r7, #4]
  uint32_t tickstart = 0U;
 8006d8c:	2300      	movs	r3, #0
 8006d8e:	60fb      	str	r3, [r7, #12]

  /* Clear RSF flag */
  hrtc->Instance->ISR &= (uint32_t)RTC_RSF_MASK;
 8006d90:	687b      	ldr	r3, [r7, #4]
 8006d92:	681b      	ldr	r3, [r3, #0]
 8006d94:	68da      	ldr	r2, [r3, #12]
 8006d96:	687b      	ldr	r3, [r7, #4]
 8006d98:	681b      	ldr	r3, [r3, #0]
 8006d9a:	21a0      	movs	r1, #160	; 0xa0
 8006d9c:	438a      	bics	r2, r1
 8006d9e:	60da      	str	r2, [r3, #12]

  tickstart = HAL_GetTick();
 8006da0:	f7fd fc1a 	bl	80045d8 <HAL_GetTick>
 8006da4:	0003      	movs	r3, r0
 8006da6:	60fb      	str	r3, [r7, #12]

  /* Wait the registers to be synchronised */
  while ((hrtc->Instance->ISR & RTC_ISR_RSF) == (uint32_t)RESET)
 8006da8:	e00a      	b.n	8006dc0 <HAL_RTC_WaitForSynchro+0x3c>
  {
    if ((HAL_GetTick() - tickstart) > RTC_TIMEOUT_VALUE)
 8006daa:	f7fd fc15 	bl	80045d8 <HAL_GetTick>
 8006dae:	0002      	movs	r2, r0
 8006db0:	68fb      	ldr	r3, [r7, #12]
 8006db2:	1ad2      	subs	r2, r2, r3
 8006db4:	23fa      	movs	r3, #250	; 0xfa
 8006db6:	009b      	lsls	r3, r3, #2
 8006db8:	429a      	cmp	r2, r3
 8006dba:	d901      	bls.n	8006dc0 <HAL_RTC_WaitForSynchro+0x3c>
    {
      return HAL_TIMEOUT;
 8006dbc:	2303      	movs	r3, #3
 8006dbe:	e006      	b.n	8006dce <HAL_RTC_WaitForSynchro+0x4a>
  while ((hrtc->Instance->ISR & RTC_ISR_RSF) == (uint32_t)RESET)
 8006dc0:	687b      	ldr	r3, [r7, #4]
 8006dc2:	681b      	ldr	r3, [r3, #0]
 8006dc4:	68db      	ldr	r3, [r3, #12]
 8006dc6:	2220      	movs	r2, #32
 8006dc8:	4013      	ands	r3, r2
 8006dca:	d0ee      	beq.n	8006daa <HAL_RTC_WaitForSynchro+0x26>
    }
  }

  return HAL_OK;
 8006dcc:	2300      	movs	r3, #0
}
 8006dce:	0018      	movs	r0, r3
 8006dd0:	46bd      	mov	sp, r7
 8006dd2:	b004      	add	sp, #16
 8006dd4:	bd80      	pop	{r7, pc}

08006dd6 <RTC_EnterInitMode>:
  *         __HAL_RTC_WRITEPROTECTION_DISABLE() before calling this function.
  * @param  hrtc RTC handle
  * @retval HAL status
  */
HAL_StatusTypeDef RTC_EnterInitMode(RTC_HandleTypeDef *hrtc)
{
 8006dd6:	b580      	push	{r7, lr}
 8006dd8:	b084      	sub	sp, #16
 8006dda:	af00      	add	r7, sp, #0
 8006ddc:	6078      	str	r0, [r7, #4]
  uint32_t tickstart = 0U;
 8006dde:	2300      	movs	r3, #0
 8006de0:	60fb      	str	r3, [r7, #12]

  /* Check if the Initialization mode is set */
  if ((hrtc->Instance->ISR & RTC_ISR_INITF) == (uint32_t)RESET)
 8006de2:	687b      	ldr	r3, [r7, #4]
 8006de4:	681b      	ldr	r3, [r3, #0]
 8006de6:	68db      	ldr	r3, [r3, #12]
 8006de8:	2240      	movs	r2, #64	; 0x40
 8006dea:	4013      	ands	r3, r2
 8006dec:	d11a      	bne.n	8006e24 <RTC_EnterInitMode+0x4e>
  {
    /* Set the Initialization mode */
    hrtc->Instance->ISR = (uint32_t)RTC_INIT_MASK;
 8006dee:	687b      	ldr	r3, [r7, #4]
 8006df0:	681b      	ldr	r3, [r3, #0]
 8006df2:	2201      	movs	r2, #1
 8006df4:	4252      	negs	r2, r2
 8006df6:	60da      	str	r2, [r3, #12]

    tickstart = HAL_GetTick();
 8006df8:	f7fd fbee 	bl	80045d8 <HAL_GetTick>
 8006dfc:	0003      	movs	r3, r0
 8006dfe:	60fb      	str	r3, [r7, #12]

    /* Wait till RTC is in INIT state and if Time out is reached exit */
    while ((hrtc->Instance->ISR & RTC_ISR_INITF) == (uint32_t)RESET)
 8006e00:	e00a      	b.n	8006e18 <RTC_EnterInitMode+0x42>
    {
      if ((HAL_GetTick() - tickstart) > RTC_TIMEOUT_VALUE)
 8006e02:	f7fd fbe9 	bl	80045d8 <HAL_GetTick>
 8006e06:	0002      	movs	r2, r0
 8006e08:	68fb      	ldr	r3, [r7, #12]
 8006e0a:	1ad2      	subs	r2, r2, r3
 8006e0c:	23fa      	movs	r3, #250	; 0xfa
 8006e0e:	009b      	lsls	r3, r3, #2
 8006e10:	429a      	cmp	r2, r3
 8006e12:	d901      	bls.n	8006e18 <RTC_EnterInitMode+0x42>
      {
        return HAL_TIMEOUT;
 8006e14:	2303      	movs	r3, #3
 8006e16:	e006      	b.n	8006e26 <RTC_EnterInitMode+0x50>
    while ((hrtc->Instance->ISR & RTC_ISR_INITF) == (uint32_t)RESET)
 8006e18:	687b      	ldr	r3, [r7, #4]
 8006e1a:	681b      	ldr	r3, [r3, #0]
 8006e1c:	68db      	ldr	r3, [r3, #12]
 8006e1e:	2240      	movs	r2, #64	; 0x40
 8006e20:	4013      	ands	r3, r2
 8006e22:	d0ee      	beq.n	8006e02 <RTC_EnterInitMode+0x2c>
      }
    }
  }

  return HAL_OK;
 8006e24:	2300      	movs	r3, #0
}
 8006e26:	0018      	movs	r0, r3
 8006e28:	46bd      	mov	sp, r7
 8006e2a:	b004      	add	sp, #16
 8006e2c:	bd80      	pop	{r7, pc}

08006e2e <RTC_ByteToBcd2>:
  * @brief  Convert a 2 digit decimal to BCD format.
  * @param  Value Byte to be converted
  * @retval Converted byte
  */
uint8_t RTC_ByteToBcd2(uint8_t Value)
{
 8006e2e:	b580      	push	{r7, lr}
 8006e30:	b084      	sub	sp, #16
 8006e32:	af00      	add	r7, sp, #0
 8006e34:	0002      	movs	r2, r0
 8006e36:	1dfb      	adds	r3, r7, #7
 8006e38:	701a      	strb	r2, [r3, #0]
  uint32_t bcdhigh = 0U;
 8006e3a:	2300      	movs	r3, #0
 8006e3c:	60fb      	str	r3, [r7, #12]

  while (Value >= 10U)
 8006e3e:	e007      	b.n	8006e50 <RTC_ByteToBcd2+0x22>
  {
    bcdhigh++;
 8006e40:	68fb      	ldr	r3, [r7, #12]
 8006e42:	3301      	adds	r3, #1
 8006e44:	60fb      	str	r3, [r7, #12]
    Value -= 10U;
 8006e46:	1dfb      	adds	r3, r7, #7
 8006e48:	1dfa      	adds	r2, r7, #7
 8006e4a:	7812      	ldrb	r2, [r2, #0]
 8006e4c:	3a0a      	subs	r2, #10
 8006e4e:	701a      	strb	r2, [r3, #0]
  while (Value >= 10U)
 8006e50:	1dfb      	adds	r3, r7, #7
 8006e52:	781b      	ldrb	r3, [r3, #0]
 8006e54:	2b09      	cmp	r3, #9
 8006e56:	d8f3      	bhi.n	8006e40 <RTC_ByteToBcd2+0x12>
  }

  return ((uint8_t)(bcdhigh << 4U) | Value);
 8006e58:	68fb      	ldr	r3, [r7, #12]
 8006e5a:	b2db      	uxtb	r3, r3
 8006e5c:	011b      	lsls	r3, r3, #4
 8006e5e:	b2da      	uxtb	r2, r3
 8006e60:	1dfb      	adds	r3, r7, #7
 8006e62:	781b      	ldrb	r3, [r3, #0]
 8006e64:	4313      	orrs	r3, r2
 8006e66:	b2db      	uxtb	r3, r3
}
 8006e68:	0018      	movs	r0, r3
 8006e6a:	46bd      	mov	sp, r7
 8006e6c:	b004      	add	sp, #16
 8006e6e:	bd80      	pop	{r7, pc}

08006e70 <HAL_TIM_Base_Init>:
  *         Ex: call @ref HAL_TIM_Base_DeInit() before HAL_TIM_Base_Init()
  * @param  htim TIM Base handle
  * @retval HAL status
  */
HAL_StatusTypeDef HAL_TIM_Base_Init(TIM_HandleTypeDef *htim)
{
 8006e70:	b580      	push	{r7, lr}
 8006e72:	b082      	sub	sp, #8
 8006e74:	af00      	add	r7, sp, #0
 8006e76:	6078      	str	r0, [r7, #4]
  /* Check the TIM handle allocation */
  if (htim == NULL)
 8006e78:	687b      	ldr	r3, [r7, #4]
 8006e7a:	2b00      	cmp	r3, #0
 8006e7c:	d101      	bne.n	8006e82 <HAL_TIM_Base_Init+0x12>
  {
    return HAL_ERROR;
 8006e7e:	2301      	movs	r3, #1
 8006e80:	e01e      	b.n	8006ec0 <HAL_TIM_Base_Init+0x50>
  assert_param(IS_TIM_INSTANCE(htim->Instance));
  assert_param(IS_TIM_COUNTER_MODE(htim->Init.CounterMode));
  assert_param(IS_TIM_CLOCKDIVISION_DIV(htim->Init.ClockDivision));
  assert_param(IS_TIM_AUTORELOAD_PRELOAD(htim->Init.AutoReloadPreload));

  if (htim->State == HAL_TIM_STATE_RESET)
 8006e82:	687b      	ldr	r3, [r7, #4]
 8006e84:	223d      	movs	r2, #61	; 0x3d
 8006e86:	5c9b      	ldrb	r3, [r3, r2]
 8006e88:	b2db      	uxtb	r3, r3
 8006e8a:	2b00      	cmp	r3, #0
 8006e8c:	d107      	bne.n	8006e9e <HAL_TIM_Base_Init+0x2e>
  {
    /* Allocate lock resource and initialize it */
    htim->Lock = HAL_UNLOCKED;
 8006e8e:	687b      	ldr	r3, [r7, #4]
 8006e90:	223c      	movs	r2, #60	; 0x3c
 8006e92:	2100      	movs	r1, #0
 8006e94:	5499      	strb	r1, [r3, r2]
    }
    /* Init the low level hardware : GPIO, CLOCK, NVIC */
    htim->Base_MspInitCallback(htim);
#else
    /* Init the low level hardware : GPIO, CLOCK, NVIC */
    HAL_TIM_Base_MspInit(htim);
 8006e96:	687b      	ldr	r3, [r7, #4]
 8006e98:	0018      	movs	r0, r3
 8006e9a:	f7fd f9f3 	bl	8004284 <HAL_TIM_Base_MspInit>
#endif /* USE_HAL_TIM_REGISTER_CALLBACKS */
  }

  /* Set the TIM state */
  htim->State = HAL_TIM_STATE_BUSY;
 8006e9e:	687b      	ldr	r3, [r7, #4]
 8006ea0:	223d      	movs	r2, #61	; 0x3d
 8006ea2:	2102      	movs	r1, #2
 8006ea4:	5499      	strb	r1, [r3, r2]

  /* Set the Time Base configuration */
  TIM_Base_SetConfig(htim->Instance, &htim->Init);
 8006ea6:	687b      	ldr	r3, [r7, #4]
 8006ea8:	681a      	ldr	r2, [r3, #0]
 8006eaa:	687b      	ldr	r3, [r7, #4]
 8006eac:	3304      	adds	r3, #4
 8006eae:	0019      	movs	r1, r3
 8006eb0:	0010      	movs	r0, r2
 8006eb2:	f000 fb3d 	bl	8007530 <TIM_Base_SetConfig>

  /* Initialize the TIM state*/
  htim->State = HAL_TIM_STATE_READY;
 8006eb6:	687b      	ldr	r3, [r7, #4]
 8006eb8:	223d      	movs	r2, #61	; 0x3d
 8006eba:	2101      	movs	r1, #1
 8006ebc:	5499      	strb	r1, [r3, r2]

  return HAL_OK;
 8006ebe:	2300      	movs	r3, #0
}
 8006ec0:	0018      	movs	r0, r3
 8006ec2:	46bd      	mov	sp, r7
 8006ec4:	b002      	add	sp, #8
 8006ec6:	bd80      	pop	{r7, pc}

08006ec8 <HAL_TIM_PWM_Init>:
  *         Ex: call @ref HAL_TIM_PWM_DeInit() before HAL_TIM_PWM_Init()
  * @param  htim TIM PWM handle
  * @retval HAL status
  */
HAL_StatusTypeDef HAL_TIM_PWM_Init(TIM_HandleTypeDef *htim)
{
 8006ec8:	b580      	push	{r7, lr}
 8006eca:	b082      	sub	sp, #8
 8006ecc:	af00      	add	r7, sp, #0
 8006ece:	6078      	str	r0, [r7, #4]
  /* Check the TIM handle allocation */
  if (htim == NULL)
 8006ed0:	687b      	ldr	r3, [r7, #4]
 8006ed2:	2b00      	cmp	r3, #0
 8006ed4:	d101      	bne.n	8006eda <HAL_TIM_PWM_Init+0x12>
  {
    return HAL_ERROR;
 8006ed6:	2301      	movs	r3, #1
 8006ed8:	e01e      	b.n	8006f18 <HAL_TIM_PWM_Init+0x50>
  assert_param(IS_TIM_INSTANCE(htim->Instance));
  assert_param(IS_TIM_COUNTER_MODE(htim->Init.CounterMode));
  assert_param(IS_TIM_CLOCKDIVISION_DIV(htim->Init.ClockDivision));
  assert_param(IS_TIM_AUTORELOAD_PRELOAD(htim->Init.AutoReloadPreload));

  if (htim->State == HAL_TIM_STATE_RESET)
 8006eda:	687b      	ldr	r3, [r7, #4]
 8006edc:	223d      	movs	r2, #61	; 0x3d
 8006ede:	5c9b      	ldrb	r3, [r3, r2]
 8006ee0:	b2db      	uxtb	r3, r3
 8006ee2:	2b00      	cmp	r3, #0
 8006ee4:	d107      	bne.n	8006ef6 <HAL_TIM_PWM_Init+0x2e>
  {
    /* Allocate lock resource and initialize it */
    htim->Lock = HAL_UNLOCKED;
 8006ee6:	687b      	ldr	r3, [r7, #4]
 8006ee8:	223c      	movs	r2, #60	; 0x3c
 8006eea:	2100      	movs	r1, #0
 8006eec:	5499      	strb	r1, [r3, r2]
    }
    /* Init the low level hardware : GPIO, CLOCK, NVIC */
    htim->PWM_MspInitCallback(htim);
#else
    /* Init the low level hardware : GPIO, CLOCK, NVIC and DMA */
    HAL_TIM_PWM_MspInit(htim);
 8006eee:	687b      	ldr	r3, [r7, #4]
 8006ef0:	0018      	movs	r0, r3
 8006ef2:	f000 f815 	bl	8006f20 <HAL_TIM_PWM_MspInit>
#endif /* USE_HAL_TIM_REGISTER_CALLBACKS */
  }

  /* Set the TIM state */
  htim->State = HAL_TIM_STATE_BUSY;
 8006ef6:	687b      	ldr	r3, [r7, #4]
 8006ef8:	223d      	movs	r2, #61	; 0x3d
 8006efa:	2102      	movs	r1, #2
 8006efc:	5499      	strb	r1, [r3, r2]

  /* Init the base time for the PWM */
  TIM_Base_SetConfig(htim->Instance, &htim->Init);
 8006efe:	687b      	ldr	r3, [r7, #4]
 8006f00:	681a      	ldr	r2, [r3, #0]
 8006f02:	687b      	ldr	r3, [r7, #4]
 8006f04:	3304      	adds	r3, #4
 8006f06:	0019      	movs	r1, r3
 8006f08:	0010      	movs	r0, r2
 8006f0a:	f000 fb11 	bl	8007530 <TIM_Base_SetConfig>

  /* Initialize the TIM state*/
  htim->State = HAL_TIM_STATE_READY;
 8006f0e:	687b      	ldr	r3, [r7, #4]
 8006f10:	223d      	movs	r2, #61	; 0x3d
 8006f12:	2101      	movs	r1, #1
 8006f14:	5499      	strb	r1, [r3, r2]

  return HAL_OK;
 8006f16:	2300      	movs	r3, #0
}
 8006f18:	0018      	movs	r0, r3
 8006f1a:	46bd      	mov	sp, r7
 8006f1c:	b002      	add	sp, #8
 8006f1e:	bd80      	pop	{r7, pc}

08006f20 <HAL_TIM_PWM_MspInit>:
  * @brief  Initializes the TIM PWM MSP.
  * @param  htim TIM PWM handle
  * @retval None
  */
__weak void HAL_TIM_PWM_MspInit(TIM_HandleTypeDef *htim)
{
 8006f20:	b580      	push	{r7, lr}
 8006f22:	b082      	sub	sp, #8
 8006f24:	af00      	add	r7, sp, #0
 8006f26:	6078      	str	r0, [r7, #4]
  UNUSED(htim);

  /* NOTE : This function should not be modified, when the callback is needed,
            the HAL_TIM_PWM_MspInit could be implemented in the user file
   */
}
 8006f28:	46c0      	nop			; (mov r8, r8)
 8006f2a:	46bd      	mov	sp, r7
 8006f2c:	b002      	add	sp, #8
 8006f2e:	bd80      	pop	{r7, pc}

08006f30 <HAL_TIM_PWM_Start>:
  *            @arg TIM_CHANNEL_3: TIM Channel 3 selected
  *            @arg TIM_CHANNEL_4: TIM Channel 4 selected
  * @retval HAL status
  */
HAL_StatusTypeDef HAL_TIM_PWM_Start(TIM_HandleTypeDef *htim, uint32_t Channel)
{
 8006f30:	b580      	push	{r7, lr}
 8006f32:	b084      	sub	sp, #16
 8006f34:	af00      	add	r7, sp, #0
 8006f36:	6078      	str	r0, [r7, #4]
 8006f38:	6039      	str	r1, [r7, #0]

  /* Check the parameters */
  assert_param(IS_TIM_CCX_INSTANCE(htim->Instance, Channel));

  /* Enable the Capture compare channel */
  TIM_CCxChannelCmd(htim->Instance, Channel, TIM_CCx_ENABLE);
 8006f3a:	687b      	ldr	r3, [r7, #4]
 8006f3c:	681b      	ldr	r3, [r3, #0]
 8006f3e:	6839      	ldr	r1, [r7, #0]
 8006f40:	2201      	movs	r2, #1
 8006f42:	0018      	movs	r0, r3
 8006f44:	f000 fe00 	bl	8007b48 <TIM_CCxChannelCmd>

  if (IS_TIM_BREAK_INSTANCE(htim->Instance) != RESET)
 8006f48:	687b      	ldr	r3, [r7, #4]
 8006f4a:	681b      	ldr	r3, [r3, #0]
 8006f4c:	4a1a      	ldr	r2, [pc, #104]	; (8006fb8 <HAL_TIM_PWM_Start+0x88>)
 8006f4e:	4293      	cmp	r3, r2
 8006f50:	d00e      	beq.n	8006f70 <HAL_TIM_PWM_Start+0x40>
 8006f52:	687b      	ldr	r3, [r7, #4]
 8006f54:	681b      	ldr	r3, [r3, #0]
 8006f56:	4a19      	ldr	r2, [pc, #100]	; (8006fbc <HAL_TIM_PWM_Start+0x8c>)
 8006f58:	4293      	cmp	r3, r2
 8006f5a:	d009      	beq.n	8006f70 <HAL_TIM_PWM_Start+0x40>
 8006f5c:	687b      	ldr	r3, [r7, #4]
 8006f5e:	681b      	ldr	r3, [r3, #0]
 8006f60:	4a17      	ldr	r2, [pc, #92]	; (8006fc0 <HAL_TIM_PWM_Start+0x90>)
 8006f62:	4293      	cmp	r3, r2
 8006f64:	d004      	beq.n	8006f70 <HAL_TIM_PWM_Start+0x40>
 8006f66:	687b      	ldr	r3, [r7, #4]
 8006f68:	681b      	ldr	r3, [r3, #0]
 8006f6a:	4a16      	ldr	r2, [pc, #88]	; (8006fc4 <HAL_TIM_PWM_Start+0x94>)
 8006f6c:	4293      	cmp	r3, r2
 8006f6e:	d101      	bne.n	8006f74 <HAL_TIM_PWM_Start+0x44>
 8006f70:	2301      	movs	r3, #1
 8006f72:	e000      	b.n	8006f76 <HAL_TIM_PWM_Start+0x46>
 8006f74:	2300      	movs	r3, #0
 8006f76:	2b00      	cmp	r3, #0
 8006f78:	d008      	beq.n	8006f8c <HAL_TIM_PWM_Start+0x5c>
  {
    /* Enable the main output */
    __HAL_TIM_MOE_ENABLE(htim);
 8006f7a:	687b      	ldr	r3, [r7, #4]
 8006f7c:	681b      	ldr	r3, [r3, #0]
 8006f7e:	6c5a      	ldr	r2, [r3, #68]	; 0x44
 8006f80:	687b      	ldr	r3, [r7, #4]
 8006f82:	681b      	ldr	r3, [r3, #0]
 8006f84:	2180      	movs	r1, #128	; 0x80
 8006f86:	0209      	lsls	r1, r1, #8
 8006f88:	430a      	orrs	r2, r1
 8006f8a:	645a      	str	r2, [r3, #68]	; 0x44
  }

  /* Enable the Peripheral, except in trigger mode where enable is automatically done with trigger */
  tmpsmcr = htim->Instance->SMCR & TIM_SMCR_SMS;
 8006f8c:	687b      	ldr	r3, [r7, #4]
 8006f8e:	681b      	ldr	r3, [r3, #0]
 8006f90:	689b      	ldr	r3, [r3, #8]
 8006f92:	2207      	movs	r2, #7
 8006f94:	4013      	ands	r3, r2
 8006f96:	60fb      	str	r3, [r7, #12]
  if (!IS_TIM_SLAVEMODE_TRIGGER_ENABLED(tmpsmcr))
 8006f98:	68fb      	ldr	r3, [r7, #12]
 8006f9a:	2b06      	cmp	r3, #6
 8006f9c:	d007      	beq.n	8006fae <HAL_TIM_PWM_Start+0x7e>
  {
    __HAL_TIM_ENABLE(htim);
 8006f9e:	687b      	ldr	r3, [r7, #4]
 8006fa0:	681b      	ldr	r3, [r3, #0]
 8006fa2:	681a      	ldr	r2, [r3, #0]
 8006fa4:	687b      	ldr	r3, [r7, #4]
 8006fa6:	681b      	ldr	r3, [r3, #0]
 8006fa8:	2101      	movs	r1, #1
 8006faa:	430a      	orrs	r2, r1
 8006fac:	601a      	str	r2, [r3, #0]
  }

  /* Return function status */
  return HAL_OK;
 8006fae:	2300      	movs	r3, #0
}
 8006fb0:	0018      	movs	r0, r3
 8006fb2:	46bd      	mov	sp, r7
 8006fb4:	b004      	add	sp, #16
 8006fb6:	bd80      	pop	{r7, pc}
 8006fb8:	40012c00 	.word	0x40012c00
 8006fbc:	40014000 	.word	0x40014000
 8006fc0:	40014400 	.word	0x40014400
 8006fc4:	40014800 	.word	0x40014800

08006fc8 <HAL_TIM_IRQHandler>:
  * @brief  This function handles TIM interrupts requests.
  * @param  htim TIM  handle
  * @retval None
  */
void HAL_TIM_IRQHandler(TIM_HandleTypeDef *htim)
{
 8006fc8:	b580      	push	{r7, lr}
 8006fca:	b082      	sub	sp, #8
 8006fcc:	af00      	add	r7, sp, #0
 8006fce:	6078      	str	r0, [r7, #4]
  /* Capture compare 1 event */
  if (__HAL_TIM_GET_FLAG(htim, TIM_FLAG_CC1) != RESET)
 8006fd0:	687b      	ldr	r3, [r7, #4]
 8006fd2:	681b      	ldr	r3, [r3, #0]
 8006fd4:	691b      	ldr	r3, [r3, #16]
 8006fd6:	2202      	movs	r2, #2
 8006fd8:	4013      	ands	r3, r2
 8006fda:	2b02      	cmp	r3, #2
 8006fdc:	d124      	bne.n	8007028 <HAL_TIM_IRQHandler+0x60>
  {
    if (__HAL_TIM_GET_IT_SOURCE(htim, TIM_IT_CC1) != RESET)
 8006fde:	687b      	ldr	r3, [r7, #4]
 8006fe0:	681b      	ldr	r3, [r3, #0]
 8006fe2:	68db      	ldr	r3, [r3, #12]
 8006fe4:	2202      	movs	r2, #2
 8006fe6:	4013      	ands	r3, r2
 8006fe8:	2b02      	cmp	r3, #2
 8006fea:	d11d      	bne.n	8007028 <HAL_TIM_IRQHandler+0x60>
    {
      {
        __HAL_TIM_CLEAR_IT(htim, TIM_IT_CC1);
 8006fec:	687b      	ldr	r3, [r7, #4]
 8006fee:	681b      	ldr	r3, [r3, #0]
 8006ff0:	2203      	movs	r2, #3
 8006ff2:	4252      	negs	r2, r2
 8006ff4:	611a      	str	r2, [r3, #16]
        htim->Channel = HAL_TIM_ACTIVE_CHANNEL_1;
 8006ff6:	687b      	ldr	r3, [r7, #4]
 8006ff8:	2201      	movs	r2, #1
 8006ffa:	771a      	strb	r2, [r3, #28]

        /* Input capture event */
        if ((htim->Instance->CCMR1 & TIM_CCMR1_CC1S) != 0x00U)
 8006ffc:	687b      	ldr	r3, [r7, #4]
 8006ffe:	681b      	ldr	r3, [r3, #0]
 8007000:	699b      	ldr	r3, [r3, #24]
 8007002:	2203      	movs	r2, #3
 8007004:	4013      	ands	r3, r2
 8007006:	d004      	beq.n	8007012 <HAL_TIM_IRQHandler+0x4a>
        {
#if (USE_HAL_TIM_REGISTER_CALLBACKS == 1)
          htim->IC_CaptureCallback(htim);
#else
          HAL_TIM_IC_CaptureCallback(htim);
 8007008:	687b      	ldr	r3, [r7, #4]
 800700a:	0018      	movs	r0, r3
 800700c:	f000 fa78 	bl	8007500 <HAL_TIM_IC_CaptureCallback>
 8007010:	e007      	b.n	8007022 <HAL_TIM_IRQHandler+0x5a>
        {
#if (USE_HAL_TIM_REGISTER_CALLBACKS == 1)
          htim->OC_DelayElapsedCallback(htim);
          htim->PWM_PulseFinishedCallback(htim);
#else
          HAL_TIM_OC_DelayElapsedCallback(htim);
 8007012:	687b      	ldr	r3, [r7, #4]
 8007014:	0018      	movs	r0, r3
 8007016:	f000 fa6b 	bl	80074f0 <HAL_TIM_OC_DelayElapsedCallback>
          HAL_TIM_PWM_PulseFinishedCallback(htim);
 800701a:	687b      	ldr	r3, [r7, #4]
 800701c:	0018      	movs	r0, r3
 800701e:	f000 fa77 	bl	8007510 <HAL_TIM_PWM_PulseFinishedCallback>
#endif /* USE_HAL_TIM_REGISTER_CALLBACKS */
        }
        htim->Channel = HAL_TIM_ACTIVE_CHANNEL_CLEARED;
 8007022:	687b      	ldr	r3, [r7, #4]
 8007024:	2200      	movs	r2, #0
 8007026:	771a      	strb	r2, [r3, #28]
      }
    }
  }
  /* Capture compare 2 event */
  if (__HAL_TIM_GET_FLAG(htim, TIM_FLAG_CC2) != RESET)
 8007028:	687b      	ldr	r3, [r7, #4]
 800702a:	681b      	ldr	r3, [r3, #0]
 800702c:	691b      	ldr	r3, [r3, #16]
 800702e:	2204      	movs	r2, #4
 8007030:	4013      	ands	r3, r2
 8007032:	2b04      	cmp	r3, #4
 8007034:	d125      	bne.n	8007082 <HAL_TIM_IRQHandler+0xba>
  {
    if (__HAL_TIM_GET_IT_SOURCE(htim, TIM_IT_CC2) != RESET)
 8007036:	687b      	ldr	r3, [r7, #4]
 8007038:	681b      	ldr	r3, [r3, #0]
 800703a:	68db      	ldr	r3, [r3, #12]
 800703c:	2204      	movs	r2, #4
 800703e:	4013      	ands	r3, r2
 8007040:	2b04      	cmp	r3, #4
 8007042:	d11e      	bne.n	8007082 <HAL_TIM_IRQHandler+0xba>
    {
      __HAL_TIM_CLEAR_IT(htim, TIM_IT_CC2);
 8007044:	687b      	ldr	r3, [r7, #4]
 8007046:	681b      	ldr	r3, [r3, #0]
 8007048:	2205      	movs	r2, #5
 800704a:	4252      	negs	r2, r2
 800704c:	611a      	str	r2, [r3, #16]
      htim->Channel = HAL_TIM_ACTIVE_CHANNEL_2;
 800704e:	687b      	ldr	r3, [r7, #4]
 8007050:	2202      	movs	r2, #2
 8007052:	771a      	strb	r2, [r3, #28]
      /* Input capture event */
      if ((htim->Instance->CCMR1 & TIM_CCMR1_CC2S) != 0x00U)
 8007054:	687b      	ldr	r3, [r7, #4]
 8007056:	681b      	ldr	r3, [r3, #0]
 8007058:	699a      	ldr	r2, [r3, #24]
 800705a:	23c0      	movs	r3, #192	; 0xc0
 800705c:	009b      	lsls	r3, r3, #2
 800705e:	4013      	ands	r3, r2
 8007060:	d004      	beq.n	800706c <HAL_TIM_IRQHandler+0xa4>
      {
#if (USE_HAL_TIM_REGISTER_CALLBACKS == 1)
        htim->IC_CaptureCallback(htim);
#else
        HAL_TIM_IC_CaptureCallback(htim);
 8007062:	687b      	ldr	r3, [r7, #4]
 8007064:	0018      	movs	r0, r3
 8007066:	f000 fa4b 	bl	8007500 <HAL_TIM_IC_CaptureCallback>
 800706a:	e007      	b.n	800707c <HAL_TIM_IRQHandler+0xb4>
      {
#if (USE_HAL_TIM_REGISTER_CALLBACKS == 1)
        htim->OC_DelayElapsedCallback(htim);
        htim->PWM_PulseFinishedCallback(htim);
#else
        HAL_TIM_OC_DelayElapsedCallback(htim);
 800706c:	687b      	ldr	r3, [r7, #4]
 800706e:	0018      	movs	r0, r3
 8007070:	f000 fa3e 	bl	80074f0 <HAL_TIM_OC_DelayElapsedCallback>
        HAL_TIM_PWM_PulseFinishedCallback(htim);
 8007074:	687b      	ldr	r3, [r7, #4]
 8007076:	0018      	movs	r0, r3
 8007078:	f000 fa4a 	bl	8007510 <HAL_TIM_PWM_PulseFinishedCallback>
#endif /* USE_HAL_TIM_REGISTER_CALLBACKS */
      }
      htim->Channel = HAL_TIM_ACTIVE_CHANNEL_CLEARED;
 800707c:	687b      	ldr	r3, [r7, #4]
 800707e:	2200      	movs	r2, #0
 8007080:	771a      	strb	r2, [r3, #28]
    }
  }
  /* Capture compare 3 event */
  if (__HAL_TIM_GET_FLAG(htim, TIM_FLAG_CC3) != RESET)
 8007082:	687b      	ldr	r3, [r7, #4]
 8007084:	681b      	ldr	r3, [r3, #0]
 8007086:	691b      	ldr	r3, [r3, #16]
 8007088:	2208      	movs	r2, #8
 800708a:	4013      	ands	r3, r2
 800708c:	2b08      	cmp	r3, #8
 800708e:	d124      	bne.n	80070da <HAL_TIM_IRQHandler+0x112>
  {
    if (__HAL_TIM_GET_IT_SOURCE(htim, TIM_IT_CC3) != RESET)
 8007090:	687b      	ldr	r3, [r7, #4]
 8007092:	681b      	ldr	r3, [r3, #0]
 8007094:	68db      	ldr	r3, [r3, #12]
 8007096:	2208      	movs	r2, #8
 8007098:	4013      	ands	r3, r2
 800709a:	2b08      	cmp	r3, #8
 800709c:	d11d      	bne.n	80070da <HAL_TIM_IRQHandler+0x112>
    {
      __HAL_TIM_CLEAR_IT(htim, TIM_IT_CC3);
 800709e:	687b      	ldr	r3, [r7, #4]
 80070a0:	681b      	ldr	r3, [r3, #0]
 80070a2:	2209      	movs	r2, #9
 80070a4:	4252      	negs	r2, r2
 80070a6:	611a      	str	r2, [r3, #16]
      htim->Channel = HAL_TIM_ACTIVE_CHANNEL_3;
 80070a8:	687b      	ldr	r3, [r7, #4]
 80070aa:	2204      	movs	r2, #4
 80070ac:	771a      	strb	r2, [r3, #28]
      /* Input capture event */
      if ((htim->Instance->CCMR2 & TIM_CCMR2_CC3S) != 0x00U)
 80070ae:	687b      	ldr	r3, [r7, #4]
 80070b0:	681b      	ldr	r3, [r3, #0]
 80070b2:	69db      	ldr	r3, [r3, #28]
 80070b4:	2203      	movs	r2, #3
 80070b6:	4013      	ands	r3, r2
 80070b8:	d004      	beq.n	80070c4 <HAL_TIM_IRQHandler+0xfc>
      {
#if (USE_HAL_TIM_REGISTER_CALLBACKS == 1)
        htim->IC_CaptureCallback(htim);
#else
        HAL_TIM_IC_CaptureCallback(htim);
 80070ba:	687b      	ldr	r3, [r7, #4]
 80070bc:	0018      	movs	r0, r3
 80070be:	f000 fa1f 	bl	8007500 <HAL_TIM_IC_CaptureCallback>
 80070c2:	e007      	b.n	80070d4 <HAL_TIM_IRQHandler+0x10c>
      {
#if (USE_HAL_TIM_REGISTER_CALLBACKS == 1)
        htim->OC_DelayElapsedCallback(htim);
        htim->PWM_PulseFinishedCallback(htim);
#else
        HAL_TIM_OC_DelayElapsedCallback(htim);
 80070c4:	687b      	ldr	r3, [r7, #4]
 80070c6:	0018      	movs	r0, r3
 80070c8:	f000 fa12 	bl	80074f0 <HAL_TIM_OC_DelayElapsedCallback>
        HAL_TIM_PWM_PulseFinishedCallback(htim);
 80070cc:	687b      	ldr	r3, [r7, #4]
 80070ce:	0018      	movs	r0, r3
 80070d0:	f000 fa1e 	bl	8007510 <HAL_TIM_PWM_PulseFinishedCallback>
#endif /* USE_HAL_TIM_REGISTER_CALLBACKS */
      }
      htim->Channel = HAL_TIM_ACTIVE_CHANNEL_CLEARED;
 80070d4:	687b      	ldr	r3, [r7, #4]
 80070d6:	2200      	movs	r2, #0
 80070d8:	771a      	strb	r2, [r3, #28]
    }
  }
  /* Capture compare 4 event */
  if (__HAL_TIM_GET_FLAG(htim, TIM_FLAG_CC4) != RESET)
 80070da:	687b      	ldr	r3, [r7, #4]
 80070dc:	681b      	ldr	r3, [r3, #0]
 80070de:	691b      	ldr	r3, [r3, #16]
 80070e0:	2210      	movs	r2, #16
 80070e2:	4013      	ands	r3, r2
 80070e4:	2b10      	cmp	r3, #16
 80070e6:	d125      	bne.n	8007134 <HAL_TIM_IRQHandler+0x16c>
  {
    if (__HAL_TIM_GET_IT_SOURCE(htim, TIM_IT_CC4) != RESET)
 80070e8:	687b      	ldr	r3, [r7, #4]
 80070ea:	681b      	ldr	r3, [r3, #0]
 80070ec:	68db      	ldr	r3, [r3, #12]
 80070ee:	2210      	movs	r2, #16
 80070f0:	4013      	ands	r3, r2
 80070f2:	2b10      	cmp	r3, #16
 80070f4:	d11e      	bne.n	8007134 <HAL_TIM_IRQHandler+0x16c>
    {
      __HAL_TIM_CLEAR_IT(htim, TIM_IT_CC4);
 80070f6:	687b      	ldr	r3, [r7, #4]
 80070f8:	681b      	ldr	r3, [r3, #0]
 80070fa:	2211      	movs	r2, #17
 80070fc:	4252      	negs	r2, r2
 80070fe:	611a      	str	r2, [r3, #16]
      htim->Channel = HAL_TIM_ACTIVE_CHANNEL_4;
 8007100:	687b      	ldr	r3, [r7, #4]
 8007102:	2208      	movs	r2, #8
 8007104:	771a      	strb	r2, [r3, #28]
      /* Input capture event */
      if ((htim->Instance->CCMR2 & TIM_CCMR2_CC4S) != 0x00U)
 8007106:	687b      	ldr	r3, [r7, #4]
 8007108:	681b      	ldr	r3, [r3, #0]
 800710a:	69da      	ldr	r2, [r3, #28]
 800710c:	23c0      	movs	r3, #192	; 0xc0
 800710e:	009b      	lsls	r3, r3, #2
 8007110:	4013      	ands	r3, r2
 8007112:	d004      	beq.n	800711e <HAL_TIM_IRQHandler+0x156>
      {
#if (USE_HAL_TIM_REGISTER_CALLBACKS == 1)
        htim->IC_CaptureCallback(htim);
#else
        HAL_TIM_IC_CaptureCallback(htim);
 8007114:	687b      	ldr	r3, [r7, #4]
 8007116:	0018      	movs	r0, r3
 8007118:	f000 f9f2 	bl	8007500 <HAL_TIM_IC_CaptureCallback>
 800711c:	e007      	b.n	800712e <HAL_TIM_IRQHandler+0x166>
      {
#if (USE_HAL_TIM_REGISTER_CALLBACKS == 1)
        htim->OC_DelayElapsedCallback(htim);
        htim->PWM_PulseFinishedCallback(htim);
#else
        HAL_TIM_OC_DelayElapsedCallback(htim);
 800711e:	687b      	ldr	r3, [r7, #4]
 8007120:	0018      	movs	r0, r3
 8007122:	f000 f9e5 	bl	80074f0 <HAL_TIM_OC_DelayElapsedCallback>
        HAL_TIM_PWM_PulseFinishedCallback(htim);
 8007126:	687b      	ldr	r3, [r7, #4]
 8007128:	0018      	movs	r0, r3
 800712a:	f000 f9f1 	bl	8007510 <HAL_TIM_PWM_PulseFinishedCallback>
#endif /* USE_HAL_TIM_REGISTER_CALLBACKS */
      }
      htim->Channel = HAL_TIM_ACTIVE_CHANNEL_CLEARED;
 800712e:	687b      	ldr	r3, [r7, #4]
 8007130:	2200      	movs	r2, #0
 8007132:	771a      	strb	r2, [r3, #28]
    }
  }
  /* TIM Update event */
  if (__HAL_TIM_GET_FLAG(htim, TIM_FLAG_UPDATE) != RESET)
 8007134:	687b      	ldr	r3, [r7, #4]
 8007136:	681b      	ldr	r3, [r3, #0]
 8007138:	691b      	ldr	r3, [r3, #16]
 800713a:	2201      	movs	r2, #1
 800713c:	4013      	ands	r3, r2
 800713e:	2b01      	cmp	r3, #1
 8007140:	d10f      	bne.n	8007162 <HAL_TIM_IRQHandler+0x19a>
  {
    if (__HAL_TIM_GET_IT_SOURCE(htim, TIM_IT_UPDATE) != RESET)
 8007142:	687b      	ldr	r3, [r7, #4]
 8007144:	681b      	ldr	r3, [r3, #0]
 8007146:	68db      	ldr	r3, [r3, #12]
 8007148:	2201      	movs	r2, #1
 800714a:	4013      	ands	r3, r2
 800714c:	2b01      	cmp	r3, #1
 800714e:	d108      	bne.n	8007162 <HAL_TIM_IRQHandler+0x19a>
    {
      __HAL_TIM_CLEAR_IT(htim, TIM_IT_UPDATE);
 8007150:	687b      	ldr	r3, [r7, #4]
 8007152:	681b      	ldr	r3, [r3, #0]
 8007154:	2202      	movs	r2, #2
 8007156:	4252      	negs	r2, r2
 8007158:	611a      	str	r2, [r3, #16]
#if (USE_HAL_TIM_REGISTER_CALLBACKS == 1)
      htim->PeriodElapsedCallback(htim);
#else
      HAL_TIM_PeriodElapsedCallback(htim);
 800715a:	687b      	ldr	r3, [r7, #4]
 800715c:	0018      	movs	r0, r3
 800715e:	f000 f9bf 	bl	80074e0 <HAL_TIM_PeriodElapsedCallback>
#endif /* USE_HAL_TIM_REGISTER_CALLBACKS */
    }
  }
  /* TIM Break input event */
  if (__HAL_TIM_GET_FLAG(htim, TIM_FLAG_BREAK) != RESET)
 8007162:	687b      	ldr	r3, [r7, #4]
 8007164:	681b      	ldr	r3, [r3, #0]
 8007166:	691b      	ldr	r3, [r3, #16]
 8007168:	2280      	movs	r2, #128	; 0x80
 800716a:	4013      	ands	r3, r2
 800716c:	2b80      	cmp	r3, #128	; 0x80
 800716e:	d10f      	bne.n	8007190 <HAL_TIM_IRQHandler+0x1c8>
  {
    if (__HAL_TIM_GET_IT_SOURCE(htim, TIM_IT_BREAK) != RESET)
 8007170:	687b      	ldr	r3, [r7, #4]
 8007172:	681b      	ldr	r3, [r3, #0]
 8007174:	68db      	ldr	r3, [r3, #12]
 8007176:	2280      	movs	r2, #128	; 0x80
 8007178:	4013      	ands	r3, r2
 800717a:	2b80      	cmp	r3, #128	; 0x80
 800717c:	d108      	bne.n	8007190 <HAL_TIM_IRQHandler+0x1c8>
    {
      __HAL_TIM_CLEAR_IT(htim, TIM_IT_BREAK);
 800717e:	687b      	ldr	r3, [r7, #4]
 8007180:	681b      	ldr	r3, [r3, #0]
 8007182:	2281      	movs	r2, #129	; 0x81
 8007184:	4252      	negs	r2, r2
 8007186:	611a      	str	r2, [r3, #16]
#if (USE_HAL_TIM_REGISTER_CALLBACKS == 1)
      htim->BreakCallback(htim);
#else
      HAL_TIMEx_BreakCallback(htim);
 8007188:	687b      	ldr	r3, [r7, #4]
 800718a:	0018      	movs	r0, r3
 800718c:	f000 fdbe 	bl	8007d0c <HAL_TIMEx_BreakCallback>
#endif /* USE_HAL_TIM_REGISTER_CALLBACKS */
    }
  }
  /* TIM Trigger detection event */
  if (__HAL_TIM_GET_FLAG(htim, TIM_FLAG_TRIGGER) != RESET)
 8007190:	687b      	ldr	r3, [r7, #4]
 8007192:	681b      	ldr	r3, [r3, #0]
 8007194:	691b      	ldr	r3, [r3, #16]
 8007196:	2240      	movs	r2, #64	; 0x40
 8007198:	4013      	ands	r3, r2
 800719a:	2b40      	cmp	r3, #64	; 0x40
 800719c:	d10f      	bne.n	80071be <HAL_TIM_IRQHandler+0x1f6>
  {
    if (__HAL_TIM_GET_IT_SOURCE(htim, TIM_IT_TRIGGER) != RESET)
 800719e:	687b      	ldr	r3, [r7, #4]
 80071a0:	681b      	ldr	r3, [r3, #0]
 80071a2:	68db      	ldr	r3, [r3, #12]
 80071a4:	2240      	movs	r2, #64	; 0x40
 80071a6:	4013      	ands	r3, r2
 80071a8:	2b40      	cmp	r3, #64	; 0x40
 80071aa:	d108      	bne.n	80071be <HAL_TIM_IRQHandler+0x1f6>
    {
      __HAL_TIM_CLEAR_IT(htim, TIM_IT_TRIGGER);
 80071ac:	687b      	ldr	r3, [r7, #4]
 80071ae:	681b      	ldr	r3, [r3, #0]
 80071b0:	2241      	movs	r2, #65	; 0x41
 80071b2:	4252      	negs	r2, r2
 80071b4:	611a      	str	r2, [r3, #16]
#if (USE_HAL_TIM_REGISTER_CALLBACKS == 1)
      htim->TriggerCallback(htim);
#else
      HAL_TIM_TriggerCallback(htim);
 80071b6:	687b      	ldr	r3, [r7, #4]
 80071b8:	0018      	movs	r0, r3
 80071ba:	f000 f9b1 	bl	8007520 <HAL_TIM_TriggerCallback>
#endif /* USE_HAL_TIM_REGISTER_CALLBACKS */
    }
  }
  /* TIM commutation event */
  if (__HAL_TIM_GET_FLAG(htim, TIM_FLAG_COM) != RESET)
 80071be:	687b      	ldr	r3, [r7, #4]
 80071c0:	681b      	ldr	r3, [r3, #0]
 80071c2:	691b      	ldr	r3, [r3, #16]
 80071c4:	2220      	movs	r2, #32
 80071c6:	4013      	ands	r3, r2
 80071c8:	2b20      	cmp	r3, #32
 80071ca:	d10f      	bne.n	80071ec <HAL_TIM_IRQHandler+0x224>
  {
    if (__HAL_TIM_GET_IT_SOURCE(htim, TIM_IT_COM) != RESET)
 80071cc:	687b      	ldr	r3, [r7, #4]
 80071ce:	681b      	ldr	r3, [r3, #0]
 80071d0:	68db      	ldr	r3, [r3, #12]
 80071d2:	2220      	movs	r2, #32
 80071d4:	4013      	ands	r3, r2
 80071d6:	2b20      	cmp	r3, #32
 80071d8:	d108      	bne.n	80071ec <HAL_TIM_IRQHandler+0x224>
    {
      __HAL_TIM_CLEAR_IT(htim, TIM_FLAG_COM);
 80071da:	687b      	ldr	r3, [r7, #4]
 80071dc:	681b      	ldr	r3, [r3, #0]
 80071de:	2221      	movs	r2, #33	; 0x21
 80071e0:	4252      	negs	r2, r2
 80071e2:	611a      	str	r2, [r3, #16]
#if (USE_HAL_TIM_REGISTER_CALLBACKS == 1)
      htim->CommutationCallback(htim);
#else
      HAL_TIMEx_CommutCallback(htim);
 80071e4:	687b      	ldr	r3, [r7, #4]
 80071e6:	0018      	movs	r0, r3
 80071e8:	f000 fd88 	bl	8007cfc <HAL_TIMEx_CommutCallback>
#endif /* USE_HAL_TIM_REGISTER_CALLBACKS */
    }
  }
}
 80071ec:	46c0      	nop			; (mov r8, r8)
 80071ee:	46bd      	mov	sp, r7
 80071f0:	b002      	add	sp, #8
 80071f2:	bd80      	pop	{r7, pc}

080071f4 <HAL_TIM_PWM_ConfigChannel>:
  * @retval HAL status
  */
HAL_StatusTypeDef HAL_TIM_PWM_ConfigChannel(TIM_HandleTypeDef *htim,
                                            TIM_OC_InitTypeDef *sConfig,
                                            uint32_t Channel)
{
 80071f4:	b580      	push	{r7, lr}
 80071f6:	b084      	sub	sp, #16
 80071f8:	af00      	add	r7, sp, #0
 80071fa:	60f8      	str	r0, [r7, #12]
 80071fc:	60b9      	str	r1, [r7, #8]
 80071fe:	607a      	str	r2, [r7, #4]
  assert_param(IS_TIM_PWM_MODE(sConfig->OCMode));
  assert_param(IS_TIM_OC_POLARITY(sConfig->OCPolarity));
  assert_param(IS_TIM_FAST_STATE(sConfig->OCFastMode));

  /* Process Locked */
  __HAL_LOCK(htim);
 8007200:	68fb      	ldr	r3, [r7, #12]
 8007202:	223c      	movs	r2, #60	; 0x3c
 8007204:	5c9b      	ldrb	r3, [r3, r2]
 8007206:	2b01      	cmp	r3, #1
 8007208:	d101      	bne.n	800720e <HAL_TIM_PWM_ConfigChannel+0x1a>
 800720a:	2302      	movs	r3, #2
 800720c:	e0a4      	b.n	8007358 <HAL_TIM_PWM_ConfigChannel+0x164>
 800720e:	68fb      	ldr	r3, [r7, #12]
 8007210:	223c      	movs	r2, #60	; 0x3c
 8007212:	2101      	movs	r1, #1
 8007214:	5499      	strb	r1, [r3, r2]

  htim->State = HAL_TIM_STATE_BUSY;
 8007216:	68fb      	ldr	r3, [r7, #12]
 8007218:	223d      	movs	r2, #61	; 0x3d
 800721a:	2102      	movs	r1, #2
 800721c:	5499      	strb	r1, [r3, r2]

  switch (Channel)
 800721e:	687b      	ldr	r3, [r7, #4]
 8007220:	2b04      	cmp	r3, #4
 8007222:	d029      	beq.n	8007278 <HAL_TIM_PWM_ConfigChannel+0x84>
 8007224:	d802      	bhi.n	800722c <HAL_TIM_PWM_ConfigChannel+0x38>
 8007226:	2b00      	cmp	r3, #0
 8007228:	d005      	beq.n	8007236 <HAL_TIM_PWM_ConfigChannel+0x42>
      htim->Instance->CCMR2 |= sConfig->OCFastMode << 8U;
      break;
    }

    default:
      break;
 800722a:	e08c      	b.n	8007346 <HAL_TIM_PWM_ConfigChannel+0x152>
  switch (Channel)
 800722c:	2b08      	cmp	r3, #8
 800722e:	d046      	beq.n	80072be <HAL_TIM_PWM_ConfigChannel+0xca>
 8007230:	2b0c      	cmp	r3, #12
 8007232:	d065      	beq.n	8007300 <HAL_TIM_PWM_ConfigChannel+0x10c>
      break;
 8007234:	e087      	b.n	8007346 <HAL_TIM_PWM_ConfigChannel+0x152>
      TIM_OC1_SetConfig(htim->Instance, sConfig);
 8007236:	68fb      	ldr	r3, [r7, #12]
 8007238:	681b      	ldr	r3, [r3, #0]
 800723a:	68ba      	ldr	r2, [r7, #8]
 800723c:	0011      	movs	r1, r2
 800723e:	0018      	movs	r0, r3
 8007240:	f000 f9ec 	bl	800761c <TIM_OC1_SetConfig>
      htim->Instance->CCMR1 |= TIM_CCMR1_OC1PE;
 8007244:	68fb      	ldr	r3, [r7, #12]
 8007246:	681b      	ldr	r3, [r3, #0]
 8007248:	699a      	ldr	r2, [r3, #24]
 800724a:	68fb      	ldr	r3, [r7, #12]
 800724c:	681b      	ldr	r3, [r3, #0]
 800724e:	2108      	movs	r1, #8
 8007250:	430a      	orrs	r2, r1
 8007252:	619a      	str	r2, [r3, #24]
      htim->Instance->CCMR1 &= ~TIM_CCMR1_OC1FE;
 8007254:	68fb      	ldr	r3, [r7, #12]
 8007256:	681b      	ldr	r3, [r3, #0]
 8007258:	699a      	ldr	r2, [r3, #24]
 800725a:	68fb      	ldr	r3, [r7, #12]
 800725c:	681b      	ldr	r3, [r3, #0]
 800725e:	2104      	movs	r1, #4
 8007260:	438a      	bics	r2, r1
 8007262:	619a      	str	r2, [r3, #24]
      htim->Instance->CCMR1 |= sConfig->OCFastMode;
 8007264:	68fb      	ldr	r3, [r7, #12]
 8007266:	681b      	ldr	r3, [r3, #0]
 8007268:	6999      	ldr	r1, [r3, #24]
 800726a:	68bb      	ldr	r3, [r7, #8]
 800726c:	691a      	ldr	r2, [r3, #16]
 800726e:	68fb      	ldr	r3, [r7, #12]
 8007270:	681b      	ldr	r3, [r3, #0]
 8007272:	430a      	orrs	r2, r1
 8007274:	619a      	str	r2, [r3, #24]
      break;
 8007276:	e066      	b.n	8007346 <HAL_TIM_PWM_ConfigChannel+0x152>
      TIM_OC2_SetConfig(htim->Instance, sConfig);
 8007278:	68fb      	ldr	r3, [r7, #12]
 800727a:	681b      	ldr	r3, [r3, #0]
 800727c:	68ba      	ldr	r2, [r7, #8]
 800727e:	0011      	movs	r1, r2
 8007280:	0018      	movs	r0, r3
 8007282:	f000 fa53 	bl	800772c <TIM_OC2_SetConfig>
      htim->Instance->CCMR1 |= TIM_CCMR1_OC2PE;
 8007286:	68fb      	ldr	r3, [r7, #12]
 8007288:	681b      	ldr	r3, [r3, #0]
 800728a:	699a      	ldr	r2, [r3, #24]
 800728c:	68fb      	ldr	r3, [r7, #12]
 800728e:	681b      	ldr	r3, [r3, #0]
 8007290:	2180      	movs	r1, #128	; 0x80
 8007292:	0109      	lsls	r1, r1, #4
 8007294:	430a      	orrs	r2, r1
 8007296:	619a      	str	r2, [r3, #24]
      htim->Instance->CCMR1 &= ~TIM_CCMR1_OC2FE;
 8007298:	68fb      	ldr	r3, [r7, #12]
 800729a:	681b      	ldr	r3, [r3, #0]
 800729c:	699a      	ldr	r2, [r3, #24]
 800729e:	68fb      	ldr	r3, [r7, #12]
 80072a0:	681b      	ldr	r3, [r3, #0]
 80072a2:	492f      	ldr	r1, [pc, #188]	; (8007360 <HAL_TIM_PWM_ConfigChannel+0x16c>)
 80072a4:	400a      	ands	r2, r1
 80072a6:	619a      	str	r2, [r3, #24]
      htim->Instance->CCMR1 |= sConfig->OCFastMode << 8U;
 80072a8:	68fb      	ldr	r3, [r7, #12]
 80072aa:	681b      	ldr	r3, [r3, #0]
 80072ac:	6999      	ldr	r1, [r3, #24]
 80072ae:	68bb      	ldr	r3, [r7, #8]
 80072b0:	691b      	ldr	r3, [r3, #16]
 80072b2:	021a      	lsls	r2, r3, #8
 80072b4:	68fb      	ldr	r3, [r7, #12]
 80072b6:	681b      	ldr	r3, [r3, #0]
 80072b8:	430a      	orrs	r2, r1
 80072ba:	619a      	str	r2, [r3, #24]
      break;
 80072bc:	e043      	b.n	8007346 <HAL_TIM_PWM_ConfigChannel+0x152>
      TIM_OC3_SetConfig(htim->Instance, sConfig);
 80072be:	68fb      	ldr	r3, [r7, #12]
 80072c0:	681b      	ldr	r3, [r3, #0]
 80072c2:	68ba      	ldr	r2, [r7, #8]
 80072c4:	0011      	movs	r1, r2
 80072c6:	0018      	movs	r0, r3
 80072c8:	f000 fab4 	bl	8007834 <TIM_OC3_SetConfig>
      htim->Instance->CCMR2 |= TIM_CCMR2_OC3PE;
 80072cc:	68fb      	ldr	r3, [r7, #12]
 80072ce:	681b      	ldr	r3, [r3, #0]
 80072d0:	69da      	ldr	r2, [r3, #28]
 80072d2:	68fb      	ldr	r3, [r7, #12]
 80072d4:	681b      	ldr	r3, [r3, #0]
 80072d6:	2108      	movs	r1, #8
 80072d8:	430a      	orrs	r2, r1
 80072da:	61da      	str	r2, [r3, #28]
      htim->Instance->CCMR2 &= ~TIM_CCMR2_OC3FE;
 80072dc:	68fb      	ldr	r3, [r7, #12]
 80072de:	681b      	ldr	r3, [r3, #0]
 80072e0:	69da      	ldr	r2, [r3, #28]
 80072e2:	68fb      	ldr	r3, [r7, #12]
 80072e4:	681b      	ldr	r3, [r3, #0]
 80072e6:	2104      	movs	r1, #4
 80072e8:	438a      	bics	r2, r1
 80072ea:	61da      	str	r2, [r3, #28]
      htim->Instance->CCMR2 |= sConfig->OCFastMode;
 80072ec:	68fb      	ldr	r3, [r7, #12]
 80072ee:	681b      	ldr	r3, [r3, #0]
 80072f0:	69d9      	ldr	r1, [r3, #28]
 80072f2:	68bb      	ldr	r3, [r7, #8]
 80072f4:	691a      	ldr	r2, [r3, #16]
 80072f6:	68fb      	ldr	r3, [r7, #12]
 80072f8:	681b      	ldr	r3, [r3, #0]
 80072fa:	430a      	orrs	r2, r1
 80072fc:	61da      	str	r2, [r3, #28]
      break;
 80072fe:	e022      	b.n	8007346 <HAL_TIM_PWM_ConfigChannel+0x152>
      TIM_OC4_SetConfig(htim->Instance, sConfig);
 8007300:	68fb      	ldr	r3, [r7, #12]
 8007302:	681b      	ldr	r3, [r3, #0]
 8007304:	68ba      	ldr	r2, [r7, #8]
 8007306:	0011      	movs	r1, r2
 8007308:	0018      	movs	r0, r3
 800730a:	f000 fb19 	bl	8007940 <TIM_OC4_SetConfig>
      htim->Instance->CCMR2 |= TIM_CCMR2_OC4PE;
 800730e:	68fb      	ldr	r3, [r7, #12]
 8007310:	681b      	ldr	r3, [r3, #0]
 8007312:	69da      	ldr	r2, [r3, #28]
 8007314:	68fb      	ldr	r3, [r7, #12]
 8007316:	681b      	ldr	r3, [r3, #0]
 8007318:	2180      	movs	r1, #128	; 0x80
 800731a:	0109      	lsls	r1, r1, #4
 800731c:	430a      	orrs	r2, r1
 800731e:	61da      	str	r2, [r3, #28]
      htim->Instance->CCMR2 &= ~TIM_CCMR2_OC4FE;
 8007320:	68fb      	ldr	r3, [r7, #12]
 8007322:	681b      	ldr	r3, [r3, #0]
 8007324:	69da      	ldr	r2, [r3, #28]
 8007326:	68fb      	ldr	r3, [r7, #12]
 8007328:	681b      	ldr	r3, [r3, #0]
 800732a:	490d      	ldr	r1, [pc, #52]	; (8007360 <HAL_TIM_PWM_ConfigChannel+0x16c>)
 800732c:	400a      	ands	r2, r1
 800732e:	61da      	str	r2, [r3, #28]
      htim->Instance->CCMR2 |= sConfig->OCFastMode << 8U;
 8007330:	68fb      	ldr	r3, [r7, #12]
 8007332:	681b      	ldr	r3, [r3, #0]
 8007334:	69d9      	ldr	r1, [r3, #28]
 8007336:	68bb      	ldr	r3, [r7, #8]
 8007338:	691b      	ldr	r3, [r3, #16]
 800733a:	021a      	lsls	r2, r3, #8
 800733c:	68fb      	ldr	r3, [r7, #12]
 800733e:	681b      	ldr	r3, [r3, #0]
 8007340:	430a      	orrs	r2, r1
 8007342:	61da      	str	r2, [r3, #28]
      break;
 8007344:	46c0      	nop			; (mov r8, r8)
  }

  htim->State = HAL_TIM_STATE_READY;
 8007346:	68fb      	ldr	r3, [r7, #12]
 8007348:	223d      	movs	r2, #61	; 0x3d
 800734a:	2101      	movs	r1, #1
 800734c:	5499      	strb	r1, [r3, r2]

  __HAL_UNLOCK(htim);
 800734e:	68fb      	ldr	r3, [r7, #12]
 8007350:	223c      	movs	r2, #60	; 0x3c
 8007352:	2100      	movs	r1, #0
 8007354:	5499      	strb	r1, [r3, r2]

  return HAL_OK;
 8007356:	2300      	movs	r3, #0
}
 8007358:	0018      	movs	r0, r3
 800735a:	46bd      	mov	sp, r7
 800735c:	b004      	add	sp, #16
 800735e:	bd80      	pop	{r7, pc}
 8007360:	fffffbff 	.word	0xfffffbff

08007364 <HAL_TIM_ConfigClockSource>:
  * @param  sClockSourceConfig pointer to a TIM_ClockConfigTypeDef structure that
  *         contains the clock source information for the TIM peripheral.
  * @retval HAL status
  */
HAL_StatusTypeDef HAL_TIM_ConfigClockSource(TIM_HandleTypeDef *htim, TIM_ClockConfigTypeDef *sClockSourceConfig)
{
 8007364:	b580      	push	{r7, lr}
 8007366:	b084      	sub	sp, #16
 8007368:	af00      	add	r7, sp, #0
 800736a:	6078      	str	r0, [r7, #4]
 800736c:	6039      	str	r1, [r7, #0]
  uint32_t tmpsmcr;

  /* Process Locked */
  __HAL_LOCK(htim);
 800736e:	687b      	ldr	r3, [r7, #4]
 8007370:	223c      	movs	r2, #60	; 0x3c
 8007372:	5c9b      	ldrb	r3, [r3, r2]
 8007374:	2b01      	cmp	r3, #1
 8007376:	d101      	bne.n	800737c <HAL_TIM_ConfigClockSource+0x18>
 8007378:	2302      	movs	r3, #2
 800737a:	e0ab      	b.n	80074d4 <HAL_TIM_ConfigClockSource+0x170>
 800737c:	687b      	ldr	r3, [r7, #4]
 800737e:	223c      	movs	r2, #60	; 0x3c
 8007380:	2101      	movs	r1, #1
 8007382:	5499      	strb	r1, [r3, r2]

  htim->State = HAL_TIM_STATE_BUSY;
 8007384:	687b      	ldr	r3, [r7, #4]
 8007386:	223d      	movs	r2, #61	; 0x3d
 8007388:	2102      	movs	r1, #2
 800738a:	5499      	strb	r1, [r3, r2]

  /* Check the parameters */
  assert_param(IS_TIM_CLOCKSOURCE(sClockSourceConfig->ClockSource));

  /* Reset the SMS, TS, ECE, ETPS and ETRF bits */
  tmpsmcr = htim->Instance->SMCR;
 800738c:	687b      	ldr	r3, [r7, #4]
 800738e:	681b      	ldr	r3, [r3, #0]
 8007390:	689b      	ldr	r3, [r3, #8]
 8007392:	60fb      	str	r3, [r7, #12]
  tmpsmcr &= ~(TIM_SMCR_SMS | TIM_SMCR_TS);
 8007394:	68fb      	ldr	r3, [r7, #12]
 8007396:	2277      	movs	r2, #119	; 0x77
 8007398:	4393      	bics	r3, r2
 800739a:	60fb      	str	r3, [r7, #12]
  tmpsmcr &= ~(TIM_SMCR_ETF | TIM_SMCR_ETPS | TIM_SMCR_ECE | TIM_SMCR_ETP);
 800739c:	68fb      	ldr	r3, [r7, #12]
 800739e:	4a4f      	ldr	r2, [pc, #316]	; (80074dc <HAL_TIM_ConfigClockSource+0x178>)
 80073a0:	4013      	ands	r3, r2
 80073a2:	60fb      	str	r3, [r7, #12]
  htim->Instance->SMCR = tmpsmcr;
 80073a4:	687b      	ldr	r3, [r7, #4]
 80073a6:	681b      	ldr	r3, [r3, #0]
 80073a8:	68fa      	ldr	r2, [r7, #12]
 80073aa:	609a      	str	r2, [r3, #8]

  switch (sClockSourceConfig->ClockSource)
 80073ac:	683b      	ldr	r3, [r7, #0]
 80073ae:	681b      	ldr	r3, [r3, #0]
 80073b0:	2b40      	cmp	r3, #64	; 0x40
 80073b2:	d100      	bne.n	80073b6 <HAL_TIM_ConfigClockSource+0x52>
 80073b4:	e06b      	b.n	800748e <HAL_TIM_ConfigClockSource+0x12a>
 80073b6:	d80e      	bhi.n	80073d6 <HAL_TIM_ConfigClockSource+0x72>
 80073b8:	2b10      	cmp	r3, #16
 80073ba:	d100      	bne.n	80073be <HAL_TIM_ConfigClockSource+0x5a>
 80073bc:	e077      	b.n	80074ae <HAL_TIM_ConfigClockSource+0x14a>
 80073be:	d803      	bhi.n	80073c8 <HAL_TIM_ConfigClockSource+0x64>
 80073c0:	2b00      	cmp	r3, #0
 80073c2:	d100      	bne.n	80073c6 <HAL_TIM_ConfigClockSource+0x62>
 80073c4:	e073      	b.n	80074ae <HAL_TIM_ConfigClockSource+0x14a>
      TIM_ITRx_SetConfig(htim->Instance, sClockSourceConfig->ClockSource);
      break;
    }

    default:
      break;
 80073c6:	e07c      	b.n	80074c2 <HAL_TIM_ConfigClockSource+0x15e>
  switch (sClockSourceConfig->ClockSource)
 80073c8:	2b20      	cmp	r3, #32
 80073ca:	d100      	bne.n	80073ce <HAL_TIM_ConfigClockSource+0x6a>
 80073cc:	e06f      	b.n	80074ae <HAL_TIM_ConfigClockSource+0x14a>
 80073ce:	2b30      	cmp	r3, #48	; 0x30
 80073d0:	d100      	bne.n	80073d4 <HAL_TIM_ConfigClockSource+0x70>
 80073d2:	e06c      	b.n	80074ae <HAL_TIM_ConfigClockSource+0x14a>
      break;
 80073d4:	e075      	b.n	80074c2 <HAL_TIM_ConfigClockSource+0x15e>
  switch (sClockSourceConfig->ClockSource)
 80073d6:	2b70      	cmp	r3, #112	; 0x70
 80073d8:	d00e      	beq.n	80073f8 <HAL_TIM_ConfigClockSource+0x94>
 80073da:	d804      	bhi.n	80073e6 <HAL_TIM_ConfigClockSource+0x82>
 80073dc:	2b50      	cmp	r3, #80	; 0x50
 80073de:	d036      	beq.n	800744e <HAL_TIM_ConfigClockSource+0xea>
 80073e0:	2b60      	cmp	r3, #96	; 0x60
 80073e2:	d044      	beq.n	800746e <HAL_TIM_ConfigClockSource+0x10a>
      break;
 80073e4:	e06d      	b.n	80074c2 <HAL_TIM_ConfigClockSource+0x15e>
  switch (sClockSourceConfig->ClockSource)
 80073e6:	2280      	movs	r2, #128	; 0x80
 80073e8:	0152      	lsls	r2, r2, #5
 80073ea:	4293      	cmp	r3, r2
 80073ec:	d068      	beq.n	80074c0 <HAL_TIM_ConfigClockSource+0x15c>
 80073ee:	2280      	movs	r2, #128	; 0x80
 80073f0:	0192      	lsls	r2, r2, #6
 80073f2:	4293      	cmp	r3, r2
 80073f4:	d017      	beq.n	8007426 <HAL_TIM_ConfigClockSource+0xc2>
      break;
 80073f6:	e064      	b.n	80074c2 <HAL_TIM_ConfigClockSource+0x15e>
      TIM_ETR_SetConfig(htim->Instance,
 80073f8:	687b      	ldr	r3, [r7, #4]
 80073fa:	6818      	ldr	r0, [r3, #0]
 80073fc:	683b      	ldr	r3, [r7, #0]
 80073fe:	6899      	ldr	r1, [r3, #8]
 8007400:	683b      	ldr	r3, [r7, #0]
 8007402:	685a      	ldr	r2, [r3, #4]
 8007404:	683b      	ldr	r3, [r7, #0]
 8007406:	68db      	ldr	r3, [r3, #12]
 8007408:	f000 fb7e 	bl	8007b08 <TIM_ETR_SetConfig>
      tmpsmcr = htim->Instance->SMCR;
 800740c:	687b      	ldr	r3, [r7, #4]
 800740e:	681b      	ldr	r3, [r3, #0]
 8007410:	689b      	ldr	r3, [r3, #8]
 8007412:	60fb      	str	r3, [r7, #12]
      tmpsmcr |= (TIM_SLAVEMODE_EXTERNAL1 | TIM_CLOCKSOURCE_ETRMODE1);
 8007414:	68fb      	ldr	r3, [r7, #12]
 8007416:	2277      	movs	r2, #119	; 0x77
 8007418:	4313      	orrs	r3, r2
 800741a:	60fb      	str	r3, [r7, #12]
      htim->Instance->SMCR = tmpsmcr;
 800741c:	687b      	ldr	r3, [r7, #4]
 800741e:	681b      	ldr	r3, [r3, #0]
 8007420:	68fa      	ldr	r2, [r7, #12]
 8007422:	609a      	str	r2, [r3, #8]
      break;
 8007424:	e04d      	b.n	80074c2 <HAL_TIM_ConfigClockSource+0x15e>
      TIM_ETR_SetConfig(htim->Instance,
 8007426:	687b      	ldr	r3, [r7, #4]
 8007428:	6818      	ldr	r0, [r3, #0]
 800742a:	683b      	ldr	r3, [r7, #0]
 800742c:	6899      	ldr	r1, [r3, #8]
 800742e:	683b      	ldr	r3, [r7, #0]
 8007430:	685a      	ldr	r2, [r3, #4]
 8007432:	683b      	ldr	r3, [r7, #0]
 8007434:	68db      	ldr	r3, [r3, #12]
 8007436:	f000 fb67 	bl	8007b08 <TIM_ETR_SetConfig>
      htim->Instance->SMCR |= TIM_SMCR_ECE;
 800743a:	687b      	ldr	r3, [r7, #4]
 800743c:	681b      	ldr	r3, [r3, #0]
 800743e:	689a      	ldr	r2, [r3, #8]
 8007440:	687b      	ldr	r3, [r7, #4]
 8007442:	681b      	ldr	r3, [r3, #0]
 8007444:	2180      	movs	r1, #128	; 0x80
 8007446:	01c9      	lsls	r1, r1, #7
 8007448:	430a      	orrs	r2, r1
 800744a:	609a      	str	r2, [r3, #8]
      break;
 800744c:	e039      	b.n	80074c2 <HAL_TIM_ConfigClockSource+0x15e>
      TIM_TI1_ConfigInputStage(htim->Instance,
 800744e:	687b      	ldr	r3, [r7, #4]
 8007450:	6818      	ldr	r0, [r3, #0]
 8007452:	683b      	ldr	r3, [r7, #0]
 8007454:	6859      	ldr	r1, [r3, #4]
 8007456:	683b      	ldr	r3, [r7, #0]
 8007458:	68db      	ldr	r3, [r3, #12]
 800745a:	001a      	movs	r2, r3
 800745c:	f000 fada 	bl	8007a14 <TIM_TI1_ConfigInputStage>
      TIM_ITRx_SetConfig(htim->Instance, TIM_CLOCKSOURCE_TI1);
 8007460:	687b      	ldr	r3, [r7, #4]
 8007462:	681b      	ldr	r3, [r3, #0]
 8007464:	2150      	movs	r1, #80	; 0x50
 8007466:	0018      	movs	r0, r3
 8007468:	f000 fb34 	bl	8007ad4 <TIM_ITRx_SetConfig>
      break;
 800746c:	e029      	b.n	80074c2 <HAL_TIM_ConfigClockSource+0x15e>
      TIM_TI2_ConfigInputStage(htim->Instance,
 800746e:	687b      	ldr	r3, [r7, #4]
 8007470:	6818      	ldr	r0, [r3, #0]
 8007472:	683b      	ldr	r3, [r7, #0]
 8007474:	6859      	ldr	r1, [r3, #4]
 8007476:	683b      	ldr	r3, [r7, #0]
 8007478:	68db      	ldr	r3, [r3, #12]
 800747a:	001a      	movs	r2, r3
 800747c:	f000 faf8 	bl	8007a70 <TIM_TI2_ConfigInputStage>
      TIM_ITRx_SetConfig(htim->Instance, TIM_CLOCKSOURCE_TI2);
 8007480:	687b      	ldr	r3, [r7, #4]
 8007482:	681b      	ldr	r3, [r3, #0]
 8007484:	2160      	movs	r1, #96	; 0x60
 8007486:	0018      	movs	r0, r3
 8007488:	f000 fb24 	bl	8007ad4 <TIM_ITRx_SetConfig>
      break;
 800748c:	e019      	b.n	80074c2 <HAL_TIM_ConfigClockSource+0x15e>
      TIM_TI1_ConfigInputStage(htim->Instance,
 800748e:	687b      	ldr	r3, [r7, #4]
 8007490:	6818      	ldr	r0, [r3, #0]
 8007492:	683b      	ldr	r3, [r7, #0]
 8007494:	6859      	ldr	r1, [r3, #4]
 8007496:	683b      	ldr	r3, [r7, #0]
 8007498:	68db      	ldr	r3, [r3, #12]
 800749a:	001a      	movs	r2, r3
 800749c:	f000 faba 	bl	8007a14 <TIM_TI1_ConfigInputStage>
      TIM_ITRx_SetConfig(htim->Instance, TIM_CLOCKSOURCE_TI1ED);
 80074a0:	687b      	ldr	r3, [r7, #4]
 80074a2:	681b      	ldr	r3, [r3, #0]
 80074a4:	2140      	movs	r1, #64	; 0x40
 80074a6:	0018      	movs	r0, r3
 80074a8:	f000 fb14 	bl	8007ad4 <TIM_ITRx_SetConfig>
      break;
 80074ac:	e009      	b.n	80074c2 <HAL_TIM_ConfigClockSource+0x15e>
      TIM_ITRx_SetConfig(htim->Instance, sClockSourceConfig->ClockSource);
 80074ae:	687b      	ldr	r3, [r7, #4]
 80074b0:	681a      	ldr	r2, [r3, #0]
 80074b2:	683b      	ldr	r3, [r7, #0]
 80074b4:	681b      	ldr	r3, [r3, #0]
 80074b6:	0019      	movs	r1, r3
 80074b8:	0010      	movs	r0, r2
 80074ba:	f000 fb0b 	bl	8007ad4 <TIM_ITRx_SetConfig>
      break;
 80074be:	e000      	b.n	80074c2 <HAL_TIM_ConfigClockSource+0x15e>
      break;
 80074c0:	46c0      	nop			; (mov r8, r8)
  }
  htim->State = HAL_TIM_STATE_READY;
 80074c2:	687b      	ldr	r3, [r7, #4]
 80074c4:	223d      	movs	r2, #61	; 0x3d
 80074c6:	2101      	movs	r1, #1
 80074c8:	5499      	strb	r1, [r3, r2]

  __HAL_UNLOCK(htim);
 80074ca:	687b      	ldr	r3, [r7, #4]
 80074cc:	223c      	movs	r2, #60	; 0x3c
 80074ce:	2100      	movs	r1, #0
 80074d0:	5499      	strb	r1, [r3, r2]

  return HAL_OK;
 80074d2:	2300      	movs	r3, #0
}
 80074d4:	0018      	movs	r0, r3
 80074d6:	46bd      	mov	sp, r7
 80074d8:	b004      	add	sp, #16
 80074da:	bd80      	pop	{r7, pc}
 80074dc:	ffff00ff 	.word	0xffff00ff

080074e0 <HAL_TIM_PeriodElapsedCallback>:
  * @brief  Period elapsed callback in non-blocking mode
  * @param  htim TIM handle
  * @retval None
  */
__weak void HAL_TIM_PeriodElapsedCallback(TIM_HandleTypeDef *htim)
{
 80074e0:	b580      	push	{r7, lr}
 80074e2:	b082      	sub	sp, #8
 80074e4:	af00      	add	r7, sp, #0
 80074e6:	6078      	str	r0, [r7, #4]
  UNUSED(htim);

  /* NOTE : This function should not be modified, when the callback is needed,
            the HAL_TIM_PeriodElapsedCallback could be implemented in the user file
   */
}
 80074e8:	46c0      	nop			; (mov r8, r8)
 80074ea:	46bd      	mov	sp, r7
 80074ec:	b002      	add	sp, #8
 80074ee:	bd80      	pop	{r7, pc}

080074f0 <HAL_TIM_OC_DelayElapsedCallback>:
  * @brief  Output Compare callback in non-blocking mode
  * @param  htim TIM OC handle
  * @retval None
  */
__weak void HAL_TIM_OC_DelayElapsedCallback(TIM_HandleTypeDef *htim)
{
 80074f0:	b580      	push	{r7, lr}
 80074f2:	b082      	sub	sp, #8
 80074f4:	af00      	add	r7, sp, #0
 80074f6:	6078      	str	r0, [r7, #4]
  UNUSED(htim);

  /* NOTE : This function should not be modified, when the callback is needed,
            the HAL_TIM_OC_DelayElapsedCallback could be implemented in the user file
   */
}
 80074f8:	46c0      	nop			; (mov r8, r8)
 80074fa:	46bd      	mov	sp, r7
 80074fc:	b002      	add	sp, #8
 80074fe:	bd80      	pop	{r7, pc}

08007500 <HAL_TIM_IC_CaptureCallback>:
  * @brief  Input Capture callback in non-blocking mode
  * @param  htim TIM IC handle
  * @retval None
  */
__weak void HAL_TIM_IC_CaptureCallback(TIM_HandleTypeDef *htim)
{
 8007500:	b580      	push	{r7, lr}
 8007502:	b082      	sub	sp, #8
 8007504:	af00      	add	r7, sp, #0
 8007506:	6078      	str	r0, [r7, #4]
  UNUSED(htim);

  /* NOTE : This function should not be modified, when the callback is needed,
            the HAL_TIM_IC_CaptureCallback could be implemented in the user file
   */
}
 8007508:	46c0      	nop			; (mov r8, r8)
 800750a:	46bd      	mov	sp, r7
 800750c:	b002      	add	sp, #8
 800750e:	bd80      	pop	{r7, pc}

08007510 <HAL_TIM_PWM_PulseFinishedCallback>:
  * @brief  PWM Pulse finished callback in non-blocking mode
  * @param  htim TIM handle
  * @retval None
  */
__weak void HAL_TIM_PWM_PulseFinishedCallback(TIM_HandleTypeDef *htim)
{
 8007510:	b580      	push	{r7, lr}
 8007512:	b082      	sub	sp, #8
 8007514:	af00      	add	r7, sp, #0
 8007516:	6078      	str	r0, [r7, #4]
  UNUSED(htim);

  /* NOTE : This function should not be modified, when the callback is needed,
            the HAL_TIM_PWM_PulseFinishedCallback could be implemented in the user file
   */
}
 8007518:	46c0      	nop			; (mov r8, r8)
 800751a:	46bd      	mov	sp, r7
 800751c:	b002      	add	sp, #8
 800751e:	bd80      	pop	{r7, pc}

08007520 <HAL_TIM_TriggerCallback>:
  * @brief  Hall Trigger detection callback in non-blocking mode
  * @param  htim TIM handle
  * @retval None
  */
__weak void HAL_TIM_TriggerCallback(TIM_HandleTypeDef *htim)
{
 8007520:	b580      	push	{r7, lr}
 8007522:	b082      	sub	sp, #8
 8007524:	af00      	add	r7, sp, #0
 8007526:	6078      	str	r0, [r7, #4]
  UNUSED(htim);

  /* NOTE : This function should not be modified, when the callback is needed,
            the HAL_TIM_TriggerCallback could be implemented in the user file
   */
}
 8007528:	46c0      	nop			; (mov r8, r8)
 800752a:	46bd      	mov	sp, r7
 800752c:	b002      	add	sp, #8
 800752e:	bd80      	pop	{r7, pc}

08007530 <TIM_Base_SetConfig>:
  * @param  TIMx TIM peripheral
  * @param  Structure TIM Base configuration structure
  * @retval None
  */
void TIM_Base_SetConfig(TIM_TypeDef *TIMx, TIM_Base_InitTypeDef *Structure)
{
 8007530:	b580      	push	{r7, lr}
 8007532:	b084      	sub	sp, #16
 8007534:	af00      	add	r7, sp, #0
 8007536:	6078      	str	r0, [r7, #4]
 8007538:	6039      	str	r1, [r7, #0]
  uint32_t tmpcr1;
  tmpcr1 = TIMx->CR1;
 800753a:	687b      	ldr	r3, [r7, #4]
 800753c:	681b      	ldr	r3, [r3, #0]
 800753e:	60fb      	str	r3, [r7, #12]

  /* Set TIM Time Base Unit parameters ---------------------------------------*/
  if (IS_TIM_COUNTER_MODE_SELECT_INSTANCE(TIMx))
 8007540:	687b      	ldr	r3, [r7, #4]
 8007542:	4a2f      	ldr	r2, [pc, #188]	; (8007600 <TIM_Base_SetConfig+0xd0>)
 8007544:	4293      	cmp	r3, r2
 8007546:	d003      	beq.n	8007550 <TIM_Base_SetConfig+0x20>
 8007548:	687b      	ldr	r3, [r7, #4]
 800754a:	4a2e      	ldr	r2, [pc, #184]	; (8007604 <TIM_Base_SetConfig+0xd4>)
 800754c:	4293      	cmp	r3, r2
 800754e:	d108      	bne.n	8007562 <TIM_Base_SetConfig+0x32>
  {
    /* Select the Counter Mode */
    tmpcr1 &= ~(TIM_CR1_DIR | TIM_CR1_CMS);
 8007550:	68fb      	ldr	r3, [r7, #12]
 8007552:	2270      	movs	r2, #112	; 0x70
 8007554:	4393      	bics	r3, r2
 8007556:	60fb      	str	r3, [r7, #12]
    tmpcr1 |= Structure->CounterMode;
 8007558:	683b      	ldr	r3, [r7, #0]
 800755a:	685b      	ldr	r3, [r3, #4]
 800755c:	68fa      	ldr	r2, [r7, #12]
 800755e:	4313      	orrs	r3, r2
 8007560:	60fb      	str	r3, [r7, #12]
  }

  if (IS_TIM_CLOCK_DIVISION_INSTANCE(TIMx))
 8007562:	687b      	ldr	r3, [r7, #4]
 8007564:	4a26      	ldr	r2, [pc, #152]	; (8007600 <TIM_Base_SetConfig+0xd0>)
 8007566:	4293      	cmp	r3, r2
 8007568:	d013      	beq.n	8007592 <TIM_Base_SetConfig+0x62>
 800756a:	687b      	ldr	r3, [r7, #4]
 800756c:	4a25      	ldr	r2, [pc, #148]	; (8007604 <TIM_Base_SetConfig+0xd4>)
 800756e:	4293      	cmp	r3, r2
 8007570:	d00f      	beq.n	8007592 <TIM_Base_SetConfig+0x62>
 8007572:	687b      	ldr	r3, [r7, #4]
 8007574:	4a24      	ldr	r2, [pc, #144]	; (8007608 <TIM_Base_SetConfig+0xd8>)
 8007576:	4293      	cmp	r3, r2
 8007578:	d00b      	beq.n	8007592 <TIM_Base_SetConfig+0x62>
 800757a:	687b      	ldr	r3, [r7, #4]
 800757c:	4a23      	ldr	r2, [pc, #140]	; (800760c <TIM_Base_SetConfig+0xdc>)
 800757e:	4293      	cmp	r3, r2
 8007580:	d007      	beq.n	8007592 <TIM_Base_SetConfig+0x62>
 8007582:	687b      	ldr	r3, [r7, #4]
 8007584:	4a22      	ldr	r2, [pc, #136]	; (8007610 <TIM_Base_SetConfig+0xe0>)
 8007586:	4293      	cmp	r3, r2
 8007588:	d003      	beq.n	8007592 <TIM_Base_SetConfig+0x62>
 800758a:	687b      	ldr	r3, [r7, #4]
 800758c:	4a21      	ldr	r2, [pc, #132]	; (8007614 <TIM_Base_SetConfig+0xe4>)
 800758e:	4293      	cmp	r3, r2
 8007590:	d108      	bne.n	80075a4 <TIM_Base_SetConfig+0x74>
  {
    /* Set the clock division */
    tmpcr1 &= ~TIM_CR1_CKD;
 8007592:	68fb      	ldr	r3, [r7, #12]
 8007594:	4a20      	ldr	r2, [pc, #128]	; (8007618 <TIM_Base_SetConfig+0xe8>)
 8007596:	4013      	ands	r3, r2
 8007598:	60fb      	str	r3, [r7, #12]
    tmpcr1 |= (uint32_t)Structure->ClockDivision;
 800759a:	683b      	ldr	r3, [r7, #0]
 800759c:	68db      	ldr	r3, [r3, #12]
 800759e:	68fa      	ldr	r2, [r7, #12]
 80075a0:	4313      	orrs	r3, r2
 80075a2:	60fb      	str	r3, [r7, #12]
  }

  /* Set the auto-reload preload */
  MODIFY_REG(tmpcr1, TIM_CR1_ARPE, Structure->AutoReloadPreload);
 80075a4:	68fb      	ldr	r3, [r7, #12]
 80075a6:	2280      	movs	r2, #128	; 0x80
 80075a8:	4393      	bics	r3, r2
 80075aa:	001a      	movs	r2, r3
 80075ac:	683b      	ldr	r3, [r7, #0]
 80075ae:	695b      	ldr	r3, [r3, #20]
 80075b0:	4313      	orrs	r3, r2
 80075b2:	60fb      	str	r3, [r7, #12]

  TIMx->CR1 = tmpcr1;
 80075b4:	687b      	ldr	r3, [r7, #4]
 80075b6:	68fa      	ldr	r2, [r7, #12]
 80075b8:	601a      	str	r2, [r3, #0]

  /* Set the Autoreload value */
  TIMx->ARR = (uint32_t)Structure->Period ;
 80075ba:	683b      	ldr	r3, [r7, #0]
 80075bc:	689a      	ldr	r2, [r3, #8]
 80075be:	687b      	ldr	r3, [r7, #4]
 80075c0:	62da      	str	r2, [r3, #44]	; 0x2c

  /* Set the Prescaler value */
  TIMx->PSC = Structure->Prescaler;
 80075c2:	683b      	ldr	r3, [r7, #0]
 80075c4:	681a      	ldr	r2, [r3, #0]
 80075c6:	687b      	ldr	r3, [r7, #4]
 80075c8:	629a      	str	r2, [r3, #40]	; 0x28

  if (IS_TIM_REPETITION_COUNTER_INSTANCE(TIMx))
 80075ca:	687b      	ldr	r3, [r7, #4]
 80075cc:	4a0c      	ldr	r2, [pc, #48]	; (8007600 <TIM_Base_SetConfig+0xd0>)
 80075ce:	4293      	cmp	r3, r2
 80075d0:	d00b      	beq.n	80075ea <TIM_Base_SetConfig+0xba>
 80075d2:	687b      	ldr	r3, [r7, #4]
 80075d4:	4a0d      	ldr	r2, [pc, #52]	; (800760c <TIM_Base_SetConfig+0xdc>)
 80075d6:	4293      	cmp	r3, r2
 80075d8:	d007      	beq.n	80075ea <TIM_Base_SetConfig+0xba>
 80075da:	687b      	ldr	r3, [r7, #4]
 80075dc:	4a0c      	ldr	r2, [pc, #48]	; (8007610 <TIM_Base_SetConfig+0xe0>)
 80075de:	4293      	cmp	r3, r2
 80075e0:	d003      	beq.n	80075ea <TIM_Base_SetConfig+0xba>
 80075e2:	687b      	ldr	r3, [r7, #4]
 80075e4:	4a0b      	ldr	r2, [pc, #44]	; (8007614 <TIM_Base_SetConfig+0xe4>)
 80075e6:	4293      	cmp	r3, r2
 80075e8:	d103      	bne.n	80075f2 <TIM_Base_SetConfig+0xc2>
  {
    /* Set the Repetition Counter value */
    TIMx->RCR = Structure->RepetitionCounter;
 80075ea:	683b      	ldr	r3, [r7, #0]
 80075ec:	691a      	ldr	r2, [r3, #16]
 80075ee:	687b      	ldr	r3, [r7, #4]
 80075f0:	631a      	str	r2, [r3, #48]	; 0x30
  }

  /* Generate an update event to reload the Prescaler
     and the repetition counter (only for advanced timer) value immediately */
  TIMx->EGR = TIM_EGR_UG;
 80075f2:	687b      	ldr	r3, [r7, #4]
 80075f4:	2201      	movs	r2, #1
 80075f6:	615a      	str	r2, [r3, #20]
}
 80075f8:	46c0      	nop			; (mov r8, r8)
 80075fa:	46bd      	mov	sp, r7
 80075fc:	b004      	add	sp, #16
 80075fe:	bd80      	pop	{r7, pc}
 8007600:	40012c00 	.word	0x40012c00
 8007604:	40000400 	.word	0x40000400
 8007608:	40002000 	.word	0x40002000
 800760c:	40014000 	.word	0x40014000
 8007610:	40014400 	.word	0x40014400
 8007614:	40014800 	.word	0x40014800
 8007618:	fffffcff 	.word	0xfffffcff

0800761c <TIM_OC1_SetConfig>:
  * @param  TIMx to select the TIM peripheral
  * @param  OC_Config The ouput configuration structure
  * @retval None
  */
static void TIM_OC1_SetConfig(TIM_TypeDef *TIMx, TIM_OC_InitTypeDef *OC_Config)
{
 800761c:	b580      	push	{r7, lr}
 800761e:	b086      	sub	sp, #24
 8007620:	af00      	add	r7, sp, #0
 8007622:	6078      	str	r0, [r7, #4]
 8007624:	6039      	str	r1, [r7, #0]
  uint32_t tmpccmrx;
  uint32_t tmpccer;
  uint32_t tmpcr2;

  /* Disable the Channel 1: Reset the CC1E Bit */
  TIMx->CCER &= ~TIM_CCER_CC1E;
 8007626:	687b      	ldr	r3, [r7, #4]
 8007628:	6a1b      	ldr	r3, [r3, #32]
 800762a:	2201      	movs	r2, #1
 800762c:	4393      	bics	r3, r2
 800762e:	001a      	movs	r2, r3
 8007630:	687b      	ldr	r3, [r7, #4]
 8007632:	621a      	str	r2, [r3, #32]

  /* Get the TIMx CCER register value */
  tmpccer = TIMx->CCER;
 8007634:	687b      	ldr	r3, [r7, #4]
 8007636:	6a1b      	ldr	r3, [r3, #32]
 8007638:	617b      	str	r3, [r7, #20]
  /* Get the TIMx CR2 register value */
  tmpcr2 =  TIMx->CR2;
 800763a:	687b      	ldr	r3, [r7, #4]
 800763c:	685b      	ldr	r3, [r3, #4]
 800763e:	613b      	str	r3, [r7, #16]

  /* Get the TIMx CCMR1 register value */
  tmpccmrx = TIMx->CCMR1;
 8007640:	687b      	ldr	r3, [r7, #4]
 8007642:	699b      	ldr	r3, [r3, #24]
 8007644:	60fb      	str	r3, [r7, #12]

  /* Reset the Output Compare Mode Bits */
  tmpccmrx &= ~TIM_CCMR1_OC1M;
 8007646:	68fb      	ldr	r3, [r7, #12]
 8007648:	2270      	movs	r2, #112	; 0x70
 800764a:	4393      	bics	r3, r2
 800764c:	60fb      	str	r3, [r7, #12]
  tmpccmrx &= ~TIM_CCMR1_CC1S;
 800764e:	68fb      	ldr	r3, [r7, #12]
 8007650:	2203      	movs	r2, #3
 8007652:	4393      	bics	r3, r2
 8007654:	60fb      	str	r3, [r7, #12]
  /* Select the Output Compare Mode */
  tmpccmrx |= OC_Config->OCMode;
 8007656:	683b      	ldr	r3, [r7, #0]
 8007658:	681b      	ldr	r3, [r3, #0]
 800765a:	68fa      	ldr	r2, [r7, #12]
 800765c:	4313      	orrs	r3, r2
 800765e:	60fb      	str	r3, [r7, #12]

  /* Reset the Output Polarity level */
  tmpccer &= ~TIM_CCER_CC1P;
 8007660:	697b      	ldr	r3, [r7, #20]
 8007662:	2202      	movs	r2, #2
 8007664:	4393      	bics	r3, r2
 8007666:	617b      	str	r3, [r7, #20]
  /* Set the Output Compare Polarity */
  tmpccer |= OC_Config->OCPolarity;
 8007668:	683b      	ldr	r3, [r7, #0]
 800766a:	689b      	ldr	r3, [r3, #8]
 800766c:	697a      	ldr	r2, [r7, #20]
 800766e:	4313      	orrs	r3, r2
 8007670:	617b      	str	r3, [r7, #20]

  if (IS_TIM_CCXN_INSTANCE(TIMx, TIM_CHANNEL_1))
 8007672:	687b      	ldr	r3, [r7, #4]
 8007674:	4a27      	ldr	r2, [pc, #156]	; (8007714 <TIM_OC1_SetConfig+0xf8>)
 8007676:	4293      	cmp	r3, r2
 8007678:	d00b      	beq.n	8007692 <TIM_OC1_SetConfig+0x76>
 800767a:	687b      	ldr	r3, [r7, #4]
 800767c:	4a26      	ldr	r2, [pc, #152]	; (8007718 <TIM_OC1_SetConfig+0xfc>)
 800767e:	4293      	cmp	r3, r2
 8007680:	d007      	beq.n	8007692 <TIM_OC1_SetConfig+0x76>
 8007682:	687b      	ldr	r3, [r7, #4]
 8007684:	4a25      	ldr	r2, [pc, #148]	; (800771c <TIM_OC1_SetConfig+0x100>)
 8007686:	4293      	cmp	r3, r2
 8007688:	d003      	beq.n	8007692 <TIM_OC1_SetConfig+0x76>
 800768a:	687b      	ldr	r3, [r7, #4]
 800768c:	4a24      	ldr	r2, [pc, #144]	; (8007720 <TIM_OC1_SetConfig+0x104>)
 800768e:	4293      	cmp	r3, r2
 8007690:	d10c      	bne.n	80076ac <TIM_OC1_SetConfig+0x90>
  {
    /* Check parameters */
    assert_param(IS_TIM_OCN_POLARITY(OC_Config->OCNPolarity));

    /* Reset the Output N Polarity level */
    tmpccer &= ~TIM_CCER_CC1NP;
 8007692:	697b      	ldr	r3, [r7, #20]
 8007694:	2208      	movs	r2, #8
 8007696:	4393      	bics	r3, r2
 8007698:	617b      	str	r3, [r7, #20]
    /* Set the Output N Polarity */
    tmpccer |= OC_Config->OCNPolarity;
 800769a:	683b      	ldr	r3, [r7, #0]
 800769c:	68db      	ldr	r3, [r3, #12]
 800769e:	697a      	ldr	r2, [r7, #20]
 80076a0:	4313      	orrs	r3, r2
 80076a2:	617b      	str	r3, [r7, #20]
    /* Reset the Output N State */
    tmpccer &= ~TIM_CCER_CC1NE;
 80076a4:	697b      	ldr	r3, [r7, #20]
 80076a6:	2204      	movs	r2, #4
 80076a8:	4393      	bics	r3, r2
 80076aa:	617b      	str	r3, [r7, #20]
  }

  if (IS_TIM_BREAK_INSTANCE(TIMx))
 80076ac:	687b      	ldr	r3, [r7, #4]
 80076ae:	4a19      	ldr	r2, [pc, #100]	; (8007714 <TIM_OC1_SetConfig+0xf8>)
 80076b0:	4293      	cmp	r3, r2
 80076b2:	d00b      	beq.n	80076cc <TIM_OC1_SetConfig+0xb0>
 80076b4:	687b      	ldr	r3, [r7, #4]
 80076b6:	4a18      	ldr	r2, [pc, #96]	; (8007718 <TIM_OC1_SetConfig+0xfc>)
 80076b8:	4293      	cmp	r3, r2
 80076ba:	d007      	beq.n	80076cc <TIM_OC1_SetConfig+0xb0>
 80076bc:	687b      	ldr	r3, [r7, #4]
 80076be:	4a17      	ldr	r2, [pc, #92]	; (800771c <TIM_OC1_SetConfig+0x100>)
 80076c0:	4293      	cmp	r3, r2
 80076c2:	d003      	beq.n	80076cc <TIM_OC1_SetConfig+0xb0>
 80076c4:	687b      	ldr	r3, [r7, #4]
 80076c6:	4a16      	ldr	r2, [pc, #88]	; (8007720 <TIM_OC1_SetConfig+0x104>)
 80076c8:	4293      	cmp	r3, r2
 80076ca:	d111      	bne.n	80076f0 <TIM_OC1_SetConfig+0xd4>
    /* Check parameters */
    assert_param(IS_TIM_OCNIDLE_STATE(OC_Config->OCNIdleState));
    assert_param(IS_TIM_OCIDLE_STATE(OC_Config->OCIdleState));

    /* Reset the Output Compare and Output Compare N IDLE State */
    tmpcr2 &= ~TIM_CR2_OIS1;
 80076cc:	693b      	ldr	r3, [r7, #16]
 80076ce:	4a15      	ldr	r2, [pc, #84]	; (8007724 <TIM_OC1_SetConfig+0x108>)
 80076d0:	4013      	ands	r3, r2
 80076d2:	613b      	str	r3, [r7, #16]
    tmpcr2 &= ~TIM_CR2_OIS1N;
 80076d4:	693b      	ldr	r3, [r7, #16]
 80076d6:	4a14      	ldr	r2, [pc, #80]	; (8007728 <TIM_OC1_SetConfig+0x10c>)
 80076d8:	4013      	ands	r3, r2
 80076da:	613b      	str	r3, [r7, #16]
    /* Set the Output Idle state */
    tmpcr2 |= OC_Config->OCIdleState;
 80076dc:	683b      	ldr	r3, [r7, #0]
 80076de:	695b      	ldr	r3, [r3, #20]
 80076e0:	693a      	ldr	r2, [r7, #16]
 80076e2:	4313      	orrs	r3, r2
 80076e4:	613b      	str	r3, [r7, #16]
    /* Set the Output N Idle state */
    tmpcr2 |= OC_Config->OCNIdleState;
 80076e6:	683b      	ldr	r3, [r7, #0]
 80076e8:	699b      	ldr	r3, [r3, #24]
 80076ea:	693a      	ldr	r2, [r7, #16]
 80076ec:	4313      	orrs	r3, r2
 80076ee:	613b      	str	r3, [r7, #16]
  }

  /* Write to TIMx CR2 */
  TIMx->CR2 = tmpcr2;
 80076f0:	687b      	ldr	r3, [r7, #4]
 80076f2:	693a      	ldr	r2, [r7, #16]
 80076f4:	605a      	str	r2, [r3, #4]

  /* Write to TIMx CCMR1 */
  TIMx->CCMR1 = tmpccmrx;
 80076f6:	687b      	ldr	r3, [r7, #4]
 80076f8:	68fa      	ldr	r2, [r7, #12]
 80076fa:	619a      	str	r2, [r3, #24]

  /* Set the Capture Compare Register value */
  TIMx->CCR1 = OC_Config->Pulse;
 80076fc:	683b      	ldr	r3, [r7, #0]
 80076fe:	685a      	ldr	r2, [r3, #4]
 8007700:	687b      	ldr	r3, [r7, #4]
 8007702:	635a      	str	r2, [r3, #52]	; 0x34

  /* Write to TIMx CCER */
  TIMx->CCER = tmpccer;
 8007704:	687b      	ldr	r3, [r7, #4]
 8007706:	697a      	ldr	r2, [r7, #20]
 8007708:	621a      	str	r2, [r3, #32]
}
 800770a:	46c0      	nop			; (mov r8, r8)
 800770c:	46bd      	mov	sp, r7
 800770e:	b006      	add	sp, #24
 8007710:	bd80      	pop	{r7, pc}
 8007712:	46c0      	nop			; (mov r8, r8)
 8007714:	40012c00 	.word	0x40012c00
 8007718:	40014000 	.word	0x40014000
 800771c:	40014400 	.word	0x40014400
 8007720:	40014800 	.word	0x40014800
 8007724:	fffffeff 	.word	0xfffffeff
 8007728:	fffffdff 	.word	0xfffffdff

0800772c <TIM_OC2_SetConfig>:
  * @param  TIMx to select the TIM peripheral
  * @param  OC_Config The ouput configuration structure
  * @retval None
  */
void TIM_OC2_SetConfig(TIM_TypeDef *TIMx, TIM_OC_InitTypeDef *OC_Config)
{
 800772c:	b580      	push	{r7, lr}
 800772e:	b086      	sub	sp, #24
 8007730:	af00      	add	r7, sp, #0
 8007732:	6078      	str	r0, [r7, #4]
 8007734:	6039      	str	r1, [r7, #0]
  uint32_t tmpccmrx;
  uint32_t tmpccer;
  uint32_t tmpcr2;

  /* Disable the Channel 2: Reset the CC2E Bit */
  TIMx->CCER &= ~TIM_CCER_CC2E;
 8007736:	687b      	ldr	r3, [r7, #4]
 8007738:	6a1b      	ldr	r3, [r3, #32]
 800773a:	2210      	movs	r2, #16
 800773c:	4393      	bics	r3, r2
 800773e:	001a      	movs	r2, r3
 8007740:	687b      	ldr	r3, [r7, #4]
 8007742:	621a      	str	r2, [r3, #32]

  /* Get the TIMx CCER register value */
  tmpccer = TIMx->CCER;
 8007744:	687b      	ldr	r3, [r7, #4]
 8007746:	6a1b      	ldr	r3, [r3, #32]
 8007748:	617b      	str	r3, [r7, #20]
  /* Get the TIMx CR2 register value */
  tmpcr2 =  TIMx->CR2;
 800774a:	687b      	ldr	r3, [r7, #4]
 800774c:	685b      	ldr	r3, [r3, #4]
 800774e:	613b      	str	r3, [r7, #16]

  /* Get the TIMx CCMR1 register value */
  tmpccmrx = TIMx->CCMR1;
 8007750:	687b      	ldr	r3, [r7, #4]
 8007752:	699b      	ldr	r3, [r3, #24]
 8007754:	60fb      	str	r3, [r7, #12]

  /* Reset the Output Compare mode and Capture/Compare selection Bits */
  tmpccmrx &= ~TIM_CCMR1_OC2M;
 8007756:	68fb      	ldr	r3, [r7, #12]
 8007758:	4a2e      	ldr	r2, [pc, #184]	; (8007814 <TIM_OC2_SetConfig+0xe8>)
 800775a:	4013      	ands	r3, r2
 800775c:	60fb      	str	r3, [r7, #12]
  tmpccmrx &= ~TIM_CCMR1_CC2S;
 800775e:	68fb      	ldr	r3, [r7, #12]
 8007760:	4a2d      	ldr	r2, [pc, #180]	; (8007818 <TIM_OC2_SetConfig+0xec>)
 8007762:	4013      	ands	r3, r2
 8007764:	60fb      	str	r3, [r7, #12]

  /* Select the Output Compare Mode */
  tmpccmrx |= (OC_Config->OCMode << 8U);
 8007766:	683b      	ldr	r3, [r7, #0]
 8007768:	681b      	ldr	r3, [r3, #0]
 800776a:	021b      	lsls	r3, r3, #8
 800776c:	68fa      	ldr	r2, [r7, #12]
 800776e:	4313      	orrs	r3, r2
 8007770:	60fb      	str	r3, [r7, #12]

  /* Reset the Output Polarity level */
  tmpccer &= ~TIM_CCER_CC2P;
 8007772:	697b      	ldr	r3, [r7, #20]
 8007774:	2220      	movs	r2, #32
 8007776:	4393      	bics	r3, r2
 8007778:	617b      	str	r3, [r7, #20]
  /* Set the Output Compare Polarity */
  tmpccer |= (OC_Config->OCPolarity << 4U);
 800777a:	683b      	ldr	r3, [r7, #0]
 800777c:	689b      	ldr	r3, [r3, #8]
 800777e:	011b      	lsls	r3, r3, #4
 8007780:	697a      	ldr	r2, [r7, #20]
 8007782:	4313      	orrs	r3, r2
 8007784:	617b      	str	r3, [r7, #20]

  if (IS_TIM_CCXN_INSTANCE(TIMx, TIM_CHANNEL_2))
 8007786:	687b      	ldr	r3, [r7, #4]
 8007788:	4a24      	ldr	r2, [pc, #144]	; (800781c <TIM_OC2_SetConfig+0xf0>)
 800778a:	4293      	cmp	r3, r2
 800778c:	d10d      	bne.n	80077aa <TIM_OC2_SetConfig+0x7e>
  {
    assert_param(IS_TIM_OCN_POLARITY(OC_Config->OCNPolarity));

    /* Reset the Output N Polarity level */
    tmpccer &= ~TIM_CCER_CC2NP;
 800778e:	697b      	ldr	r3, [r7, #20]
 8007790:	2280      	movs	r2, #128	; 0x80
 8007792:	4393      	bics	r3, r2
 8007794:	617b      	str	r3, [r7, #20]
    /* Set the Output N Polarity */
    tmpccer |= (OC_Config->OCNPolarity << 4U);
 8007796:	683b      	ldr	r3, [r7, #0]
 8007798:	68db      	ldr	r3, [r3, #12]
 800779a:	011b      	lsls	r3, r3, #4
 800779c:	697a      	ldr	r2, [r7, #20]
 800779e:	4313      	orrs	r3, r2
 80077a0:	617b      	str	r3, [r7, #20]
    /* Reset the Output N State */
    tmpccer &= ~TIM_CCER_CC2NE;
 80077a2:	697b      	ldr	r3, [r7, #20]
 80077a4:	2240      	movs	r2, #64	; 0x40
 80077a6:	4393      	bics	r3, r2
 80077a8:	617b      	str	r3, [r7, #20]

  }

  if (IS_TIM_BREAK_INSTANCE(TIMx))
 80077aa:	687b      	ldr	r3, [r7, #4]
 80077ac:	4a1b      	ldr	r2, [pc, #108]	; (800781c <TIM_OC2_SetConfig+0xf0>)
 80077ae:	4293      	cmp	r3, r2
 80077b0:	d00b      	beq.n	80077ca <TIM_OC2_SetConfig+0x9e>
 80077b2:	687b      	ldr	r3, [r7, #4]
 80077b4:	4a1a      	ldr	r2, [pc, #104]	; (8007820 <TIM_OC2_SetConfig+0xf4>)
 80077b6:	4293      	cmp	r3, r2
 80077b8:	d007      	beq.n	80077ca <TIM_OC2_SetConfig+0x9e>
 80077ba:	687b      	ldr	r3, [r7, #4]
 80077bc:	4a19      	ldr	r2, [pc, #100]	; (8007824 <TIM_OC2_SetConfig+0xf8>)
 80077be:	4293      	cmp	r3, r2
 80077c0:	d003      	beq.n	80077ca <TIM_OC2_SetConfig+0x9e>
 80077c2:	687b      	ldr	r3, [r7, #4]
 80077c4:	4a18      	ldr	r2, [pc, #96]	; (8007828 <TIM_OC2_SetConfig+0xfc>)
 80077c6:	4293      	cmp	r3, r2
 80077c8:	d113      	bne.n	80077f2 <TIM_OC2_SetConfig+0xc6>
    /* Check parameters */
    assert_param(IS_TIM_OCNIDLE_STATE(OC_Config->OCNIdleState));
    assert_param(IS_TIM_OCIDLE_STATE(OC_Config->OCIdleState));

    /* Reset the Output Compare and Output Compare N IDLE State */
    tmpcr2 &= ~TIM_CR2_OIS2;
 80077ca:	693b      	ldr	r3, [r7, #16]
 80077cc:	4a17      	ldr	r2, [pc, #92]	; (800782c <TIM_OC2_SetConfig+0x100>)
 80077ce:	4013      	ands	r3, r2
 80077d0:	613b      	str	r3, [r7, #16]
    tmpcr2 &= ~TIM_CR2_OIS2N;
 80077d2:	693b      	ldr	r3, [r7, #16]
 80077d4:	4a16      	ldr	r2, [pc, #88]	; (8007830 <TIM_OC2_SetConfig+0x104>)
 80077d6:	4013      	ands	r3, r2
 80077d8:	613b      	str	r3, [r7, #16]
    /* Set the Output Idle state */
    tmpcr2 |= (OC_Config->OCIdleState << 2U);
 80077da:	683b      	ldr	r3, [r7, #0]
 80077dc:	695b      	ldr	r3, [r3, #20]
 80077de:	009b      	lsls	r3, r3, #2
 80077e0:	693a      	ldr	r2, [r7, #16]
 80077e2:	4313      	orrs	r3, r2
 80077e4:	613b      	str	r3, [r7, #16]
    /* Set the Output N Idle state */
    tmpcr2 |= (OC_Config->OCNIdleState << 2U);
 80077e6:	683b      	ldr	r3, [r7, #0]
 80077e8:	699b      	ldr	r3, [r3, #24]
 80077ea:	009b      	lsls	r3, r3, #2
 80077ec:	693a      	ldr	r2, [r7, #16]
 80077ee:	4313      	orrs	r3, r2
 80077f0:	613b      	str	r3, [r7, #16]
  }

  /* Write to TIMx CR2 */
  TIMx->CR2 = tmpcr2;
 80077f2:	687b      	ldr	r3, [r7, #4]
 80077f4:	693a      	ldr	r2, [r7, #16]
 80077f6:	605a      	str	r2, [r3, #4]

  /* Write to TIMx CCMR1 */
  TIMx->CCMR1 = tmpccmrx;
 80077f8:	687b      	ldr	r3, [r7, #4]
 80077fa:	68fa      	ldr	r2, [r7, #12]
 80077fc:	619a      	str	r2, [r3, #24]

  /* Set the Capture Compare Register value */
  TIMx->CCR2 = OC_Config->Pulse;
 80077fe:	683b      	ldr	r3, [r7, #0]
 8007800:	685a      	ldr	r2, [r3, #4]
 8007802:	687b      	ldr	r3, [r7, #4]
 8007804:	639a      	str	r2, [r3, #56]	; 0x38

  /* Write to TIMx CCER */
  TIMx->CCER = tmpccer;
 8007806:	687b      	ldr	r3, [r7, #4]
 8007808:	697a      	ldr	r2, [r7, #20]
 800780a:	621a      	str	r2, [r3, #32]
}
 800780c:	46c0      	nop			; (mov r8, r8)
 800780e:	46bd      	mov	sp, r7
 8007810:	b006      	add	sp, #24
 8007812:	bd80      	pop	{r7, pc}
 8007814:	ffff8fff 	.word	0xffff8fff
 8007818:	fffffcff 	.word	0xfffffcff
 800781c:	40012c00 	.word	0x40012c00
 8007820:	40014000 	.word	0x40014000
 8007824:	40014400 	.word	0x40014400
 8007828:	40014800 	.word	0x40014800
 800782c:	fffffbff 	.word	0xfffffbff
 8007830:	fffff7ff 	.word	0xfffff7ff

08007834 <TIM_OC3_SetConfig>:
  * @param  TIMx to select the TIM peripheral
  * @param  OC_Config The ouput configuration structure
  * @retval None
  */
static void TIM_OC3_SetConfig(TIM_TypeDef *TIMx, TIM_OC_InitTypeDef *OC_Config)
{
 8007834:	b580      	push	{r7, lr}
 8007836:	b086      	sub	sp, #24
 8007838:	af00      	add	r7, sp, #0
 800783a:	6078      	str	r0, [r7, #4]
 800783c:	6039      	str	r1, [r7, #0]
  uint32_t tmpccmrx;
  uint32_t tmpccer;
  uint32_t tmpcr2;

  /* Disable the Channel 3: Reset the CC2E Bit */
  TIMx->CCER &= ~TIM_CCER_CC3E;
 800783e:	687b      	ldr	r3, [r7, #4]
 8007840:	6a1b      	ldr	r3, [r3, #32]
 8007842:	4a35      	ldr	r2, [pc, #212]	; (8007918 <TIM_OC3_SetConfig+0xe4>)
 8007844:	401a      	ands	r2, r3
 8007846:	687b      	ldr	r3, [r7, #4]
 8007848:	621a      	str	r2, [r3, #32]

  /* Get the TIMx CCER register value */
  tmpccer = TIMx->CCER;
 800784a:	687b      	ldr	r3, [r7, #4]
 800784c:	6a1b      	ldr	r3, [r3, #32]
 800784e:	617b      	str	r3, [r7, #20]
  /* Get the TIMx CR2 register value */
  tmpcr2 =  TIMx->CR2;
 8007850:	687b      	ldr	r3, [r7, #4]
 8007852:	685b      	ldr	r3, [r3, #4]
 8007854:	613b      	str	r3, [r7, #16]

  /* Get the TIMx CCMR2 register value */
  tmpccmrx = TIMx->CCMR2;
 8007856:	687b      	ldr	r3, [r7, #4]
 8007858:	69db      	ldr	r3, [r3, #28]
 800785a:	60fb      	str	r3, [r7, #12]

  /* Reset the Output Compare mode and Capture/Compare selection Bits */
  tmpccmrx &= ~TIM_CCMR2_OC3M;
 800785c:	68fb      	ldr	r3, [r7, #12]
 800785e:	2270      	movs	r2, #112	; 0x70
 8007860:	4393      	bics	r3, r2
 8007862:	60fb      	str	r3, [r7, #12]
  tmpccmrx &= ~TIM_CCMR2_CC3S;
 8007864:	68fb      	ldr	r3, [r7, #12]
 8007866:	2203      	movs	r2, #3
 8007868:	4393      	bics	r3, r2
 800786a:	60fb      	str	r3, [r7, #12]
  /* Select the Output Compare Mode */
  tmpccmrx |= OC_Config->OCMode;
 800786c:	683b      	ldr	r3, [r7, #0]
 800786e:	681b      	ldr	r3, [r3, #0]
 8007870:	68fa      	ldr	r2, [r7, #12]
 8007872:	4313      	orrs	r3, r2
 8007874:	60fb      	str	r3, [r7, #12]

  /* Reset the Output Polarity level */
  tmpccer &= ~TIM_CCER_CC3P;
 8007876:	697b      	ldr	r3, [r7, #20]
 8007878:	4a28      	ldr	r2, [pc, #160]	; (800791c <TIM_OC3_SetConfig+0xe8>)
 800787a:	4013      	ands	r3, r2
 800787c:	617b      	str	r3, [r7, #20]
  /* Set the Output Compare Polarity */
  tmpccer |= (OC_Config->OCPolarity << 8U);
 800787e:	683b      	ldr	r3, [r7, #0]
 8007880:	689b      	ldr	r3, [r3, #8]
 8007882:	021b      	lsls	r3, r3, #8
 8007884:	697a      	ldr	r2, [r7, #20]
 8007886:	4313      	orrs	r3, r2
 8007888:	617b      	str	r3, [r7, #20]

  if (IS_TIM_CCXN_INSTANCE(TIMx, TIM_CHANNEL_3))
 800788a:	687b      	ldr	r3, [r7, #4]
 800788c:	4a24      	ldr	r2, [pc, #144]	; (8007920 <TIM_OC3_SetConfig+0xec>)
 800788e:	4293      	cmp	r3, r2
 8007890:	d10d      	bne.n	80078ae <TIM_OC3_SetConfig+0x7a>
  {
    assert_param(IS_TIM_OCN_POLARITY(OC_Config->OCNPolarity));

    /* Reset the Output N Polarity level */
    tmpccer &= ~TIM_CCER_CC3NP;
 8007892:	697b      	ldr	r3, [r7, #20]
 8007894:	4a23      	ldr	r2, [pc, #140]	; (8007924 <TIM_OC3_SetConfig+0xf0>)
 8007896:	4013      	ands	r3, r2
 8007898:	617b      	str	r3, [r7, #20]
    /* Set the Output N Polarity */
    tmpccer |= (OC_Config->OCNPolarity << 8U);
 800789a:	683b      	ldr	r3, [r7, #0]
 800789c:	68db      	ldr	r3, [r3, #12]
 800789e:	021b      	lsls	r3, r3, #8
 80078a0:	697a      	ldr	r2, [r7, #20]
 80078a2:	4313      	orrs	r3, r2
 80078a4:	617b      	str	r3, [r7, #20]
    /* Reset the Output N State */
    tmpccer &= ~TIM_CCER_CC3NE;
 80078a6:	697b      	ldr	r3, [r7, #20]
 80078a8:	4a1f      	ldr	r2, [pc, #124]	; (8007928 <TIM_OC3_SetConfig+0xf4>)
 80078aa:	4013      	ands	r3, r2
 80078ac:	617b      	str	r3, [r7, #20]
  }

  if (IS_TIM_BREAK_INSTANCE(TIMx))
 80078ae:	687b      	ldr	r3, [r7, #4]
 80078b0:	4a1b      	ldr	r2, [pc, #108]	; (8007920 <TIM_OC3_SetConfig+0xec>)
 80078b2:	4293      	cmp	r3, r2
 80078b4:	d00b      	beq.n	80078ce <TIM_OC3_SetConfig+0x9a>
 80078b6:	687b      	ldr	r3, [r7, #4]
 80078b8:	4a1c      	ldr	r2, [pc, #112]	; (800792c <TIM_OC3_SetConfig+0xf8>)
 80078ba:	4293      	cmp	r3, r2
 80078bc:	d007      	beq.n	80078ce <TIM_OC3_SetConfig+0x9a>
 80078be:	687b      	ldr	r3, [r7, #4]
 80078c0:	4a1b      	ldr	r2, [pc, #108]	; (8007930 <TIM_OC3_SetConfig+0xfc>)
 80078c2:	4293      	cmp	r3, r2
 80078c4:	d003      	beq.n	80078ce <TIM_OC3_SetConfig+0x9a>
 80078c6:	687b      	ldr	r3, [r7, #4]
 80078c8:	4a1a      	ldr	r2, [pc, #104]	; (8007934 <TIM_OC3_SetConfig+0x100>)
 80078ca:	4293      	cmp	r3, r2
 80078cc:	d113      	bne.n	80078f6 <TIM_OC3_SetConfig+0xc2>
    /* Check parameters */
    assert_param(IS_TIM_OCNIDLE_STATE(OC_Config->OCNIdleState));
    assert_param(IS_TIM_OCIDLE_STATE(OC_Config->OCIdleState));

    /* Reset the Output Compare and Output Compare N IDLE State */
    tmpcr2 &= ~TIM_CR2_OIS3;
 80078ce:	693b      	ldr	r3, [r7, #16]
 80078d0:	4a19      	ldr	r2, [pc, #100]	; (8007938 <TIM_OC3_SetConfig+0x104>)
 80078d2:	4013      	ands	r3, r2
 80078d4:	613b      	str	r3, [r7, #16]
    tmpcr2 &= ~TIM_CR2_OIS3N;
 80078d6:	693b      	ldr	r3, [r7, #16]
 80078d8:	4a18      	ldr	r2, [pc, #96]	; (800793c <TIM_OC3_SetConfig+0x108>)
 80078da:	4013      	ands	r3, r2
 80078dc:	613b      	str	r3, [r7, #16]
    /* Set the Output Idle state */
    tmpcr2 |= (OC_Config->OCIdleState << 4U);
 80078de:	683b      	ldr	r3, [r7, #0]
 80078e0:	695b      	ldr	r3, [r3, #20]
 80078e2:	011b      	lsls	r3, r3, #4
 80078e4:	693a      	ldr	r2, [r7, #16]
 80078e6:	4313      	orrs	r3, r2
 80078e8:	613b      	str	r3, [r7, #16]
    /* Set the Output N Idle state */
    tmpcr2 |= (OC_Config->OCNIdleState << 4U);
 80078ea:	683b      	ldr	r3, [r7, #0]
 80078ec:	699b      	ldr	r3, [r3, #24]
 80078ee:	011b      	lsls	r3, r3, #4
 80078f0:	693a      	ldr	r2, [r7, #16]
 80078f2:	4313      	orrs	r3, r2
 80078f4:	613b      	str	r3, [r7, #16]
  }

  /* Write to TIMx CR2 */
  TIMx->CR2 = tmpcr2;
 80078f6:	687b      	ldr	r3, [r7, #4]
 80078f8:	693a      	ldr	r2, [r7, #16]
 80078fa:	605a      	str	r2, [r3, #4]

  /* Write to TIMx CCMR2 */
  TIMx->CCMR2 = tmpccmrx;
 80078fc:	687b      	ldr	r3, [r7, #4]
 80078fe:	68fa      	ldr	r2, [r7, #12]
 8007900:	61da      	str	r2, [r3, #28]

  /* Set the Capture Compare Register value */
  TIMx->CCR3 = OC_Config->Pulse;
 8007902:	683b      	ldr	r3, [r7, #0]
 8007904:	685a      	ldr	r2, [r3, #4]
 8007906:	687b      	ldr	r3, [r7, #4]
 8007908:	63da      	str	r2, [r3, #60]	; 0x3c

  /* Write to TIMx CCER */
  TIMx->CCER = tmpccer;
 800790a:	687b      	ldr	r3, [r7, #4]
 800790c:	697a      	ldr	r2, [r7, #20]
 800790e:	621a      	str	r2, [r3, #32]
}
 8007910:	46c0      	nop			; (mov r8, r8)
 8007912:	46bd      	mov	sp, r7
 8007914:	b006      	add	sp, #24
 8007916:	bd80      	pop	{r7, pc}
 8007918:	fffffeff 	.word	0xfffffeff
 800791c:	fffffdff 	.word	0xfffffdff
 8007920:	40012c00 	.word	0x40012c00
 8007924:	fffff7ff 	.word	0xfffff7ff
 8007928:	fffffbff 	.word	0xfffffbff
 800792c:	40014000 	.word	0x40014000
 8007930:	40014400 	.word	0x40014400
 8007934:	40014800 	.word	0x40014800
 8007938:	ffffefff 	.word	0xffffefff
 800793c:	ffffdfff 	.word	0xffffdfff

08007940 <TIM_OC4_SetConfig>:
  * @param  TIMx to select the TIM peripheral
  * @param  OC_Config The ouput configuration structure
  * @retval None
  */
static void TIM_OC4_SetConfig(TIM_TypeDef *TIMx, TIM_OC_InitTypeDef *OC_Config)
{
 8007940:	b580      	push	{r7, lr}
 8007942:	b086      	sub	sp, #24
 8007944:	af00      	add	r7, sp, #0
 8007946:	6078      	str	r0, [r7, #4]
 8007948:	6039      	str	r1, [r7, #0]
  uint32_t tmpccmrx;
  uint32_t tmpccer;
  uint32_t tmpcr2;

  /* Disable the Channel 4: Reset the CC4E Bit */
  TIMx->CCER &= ~TIM_CCER_CC4E;
 800794a:	687b      	ldr	r3, [r7, #4]
 800794c:	6a1b      	ldr	r3, [r3, #32]
 800794e:	4a28      	ldr	r2, [pc, #160]	; (80079f0 <TIM_OC4_SetConfig+0xb0>)
 8007950:	401a      	ands	r2, r3
 8007952:	687b      	ldr	r3, [r7, #4]
 8007954:	621a      	str	r2, [r3, #32]

  /* Get the TIMx CCER register value */
  tmpccer = TIMx->CCER;
 8007956:	687b      	ldr	r3, [r7, #4]
 8007958:	6a1b      	ldr	r3, [r3, #32]
 800795a:	613b      	str	r3, [r7, #16]
  /* Get the TIMx CR2 register value */
  tmpcr2 =  TIMx->CR2;
 800795c:	687b      	ldr	r3, [r7, #4]
 800795e:	685b      	ldr	r3, [r3, #4]
 8007960:	617b      	str	r3, [r7, #20]

  /* Get the TIMx CCMR2 register value */
  tmpccmrx = TIMx->CCMR2;
 8007962:	687b      	ldr	r3, [r7, #4]
 8007964:	69db      	ldr	r3, [r3, #28]
 8007966:	60fb      	str	r3, [r7, #12]

  /* Reset the Output Compare mode and Capture/Compare selection Bits */
  tmpccmrx &= ~TIM_CCMR2_OC4M;
 8007968:	68fb      	ldr	r3, [r7, #12]
 800796a:	4a22      	ldr	r2, [pc, #136]	; (80079f4 <TIM_OC4_SetConfig+0xb4>)
 800796c:	4013      	ands	r3, r2
 800796e:	60fb      	str	r3, [r7, #12]
  tmpccmrx &= ~TIM_CCMR2_CC4S;
 8007970:	68fb      	ldr	r3, [r7, #12]
 8007972:	4a21      	ldr	r2, [pc, #132]	; (80079f8 <TIM_OC4_SetConfig+0xb8>)
 8007974:	4013      	ands	r3, r2
 8007976:	60fb      	str	r3, [r7, #12]

  /* Select the Output Compare Mode */
  tmpccmrx |= (OC_Config->OCMode << 8U);
 8007978:	683b      	ldr	r3, [r7, #0]
 800797a:	681b      	ldr	r3, [r3, #0]
 800797c:	021b      	lsls	r3, r3, #8
 800797e:	68fa      	ldr	r2, [r7, #12]
 8007980:	4313      	orrs	r3, r2
 8007982:	60fb      	str	r3, [r7, #12]

  /* Reset the Output Polarity level */
  tmpccer &= ~TIM_CCER_CC4P;
 8007984:	693b      	ldr	r3, [r7, #16]
 8007986:	4a1d      	ldr	r2, [pc, #116]	; (80079fc <TIM_OC4_SetConfig+0xbc>)
 8007988:	4013      	ands	r3, r2
 800798a:	613b      	str	r3, [r7, #16]
  /* Set the Output Compare Polarity */
  tmpccer |= (OC_Config->OCPolarity << 12U);
 800798c:	683b      	ldr	r3, [r7, #0]
 800798e:	689b      	ldr	r3, [r3, #8]
 8007990:	031b      	lsls	r3, r3, #12
 8007992:	693a      	ldr	r2, [r7, #16]
 8007994:	4313      	orrs	r3, r2
 8007996:	613b      	str	r3, [r7, #16]

  if (IS_TIM_BREAK_INSTANCE(TIMx))
 8007998:	687b      	ldr	r3, [r7, #4]
 800799a:	4a19      	ldr	r2, [pc, #100]	; (8007a00 <TIM_OC4_SetConfig+0xc0>)
 800799c:	4293      	cmp	r3, r2
 800799e:	d00b      	beq.n	80079b8 <TIM_OC4_SetConfig+0x78>
 80079a0:	687b      	ldr	r3, [r7, #4]
 80079a2:	4a18      	ldr	r2, [pc, #96]	; (8007a04 <TIM_OC4_SetConfig+0xc4>)
 80079a4:	4293      	cmp	r3, r2
 80079a6:	d007      	beq.n	80079b8 <TIM_OC4_SetConfig+0x78>
 80079a8:	687b      	ldr	r3, [r7, #4]
 80079aa:	4a17      	ldr	r2, [pc, #92]	; (8007a08 <TIM_OC4_SetConfig+0xc8>)
 80079ac:	4293      	cmp	r3, r2
 80079ae:	d003      	beq.n	80079b8 <TIM_OC4_SetConfig+0x78>
 80079b0:	687b      	ldr	r3, [r7, #4]
 80079b2:	4a16      	ldr	r2, [pc, #88]	; (8007a0c <TIM_OC4_SetConfig+0xcc>)
 80079b4:	4293      	cmp	r3, r2
 80079b6:	d109      	bne.n	80079cc <TIM_OC4_SetConfig+0x8c>
  {
    /* Check parameters */
    assert_param(IS_TIM_OCIDLE_STATE(OC_Config->OCIdleState));

    /* Reset the Output Compare IDLE State */
    tmpcr2 &= ~TIM_CR2_OIS4;
 80079b8:	697b      	ldr	r3, [r7, #20]
 80079ba:	4a15      	ldr	r2, [pc, #84]	; (8007a10 <TIM_OC4_SetConfig+0xd0>)
 80079bc:	4013      	ands	r3, r2
 80079be:	617b      	str	r3, [r7, #20]

    /* Set the Output Idle state */
    tmpcr2 |= (OC_Config->OCIdleState << 6U);
 80079c0:	683b      	ldr	r3, [r7, #0]
 80079c2:	695b      	ldr	r3, [r3, #20]
 80079c4:	019b      	lsls	r3, r3, #6
 80079c6:	697a      	ldr	r2, [r7, #20]
 80079c8:	4313      	orrs	r3, r2
 80079ca:	617b      	str	r3, [r7, #20]
  }

  /* Write to TIMx CR2 */
  TIMx->CR2 = tmpcr2;
 80079cc:	687b      	ldr	r3, [r7, #4]
 80079ce:	697a      	ldr	r2, [r7, #20]
 80079d0:	605a      	str	r2, [r3, #4]

  /* Write to TIMx CCMR2 */
  TIMx->CCMR2 = tmpccmrx;
 80079d2:	687b      	ldr	r3, [r7, #4]
 80079d4:	68fa      	ldr	r2, [r7, #12]
 80079d6:	61da      	str	r2, [r3, #28]

  /* Set the Capture Compare Register value */
  TIMx->CCR4 = OC_Config->Pulse;
 80079d8:	683b      	ldr	r3, [r7, #0]
 80079da:	685a      	ldr	r2, [r3, #4]
 80079dc:	687b      	ldr	r3, [r7, #4]
 80079de:	641a      	str	r2, [r3, #64]	; 0x40

  /* Write to TIMx CCER */
  TIMx->CCER = tmpccer;
 80079e0:	687b      	ldr	r3, [r7, #4]
 80079e2:	693a      	ldr	r2, [r7, #16]
 80079e4:	621a      	str	r2, [r3, #32]
}
 80079e6:	46c0      	nop			; (mov r8, r8)
 80079e8:	46bd      	mov	sp, r7
 80079ea:	b006      	add	sp, #24
 80079ec:	bd80      	pop	{r7, pc}
 80079ee:	46c0      	nop			; (mov r8, r8)
 80079f0:	ffffefff 	.word	0xffffefff
 80079f4:	ffff8fff 	.word	0xffff8fff
 80079f8:	fffffcff 	.word	0xfffffcff
 80079fc:	ffffdfff 	.word	0xffffdfff
 8007a00:	40012c00 	.word	0x40012c00
 8007a04:	40014000 	.word	0x40014000
 8007a08:	40014400 	.word	0x40014400
 8007a0c:	40014800 	.word	0x40014800
 8007a10:	ffffbfff 	.word	0xffffbfff

08007a14 <TIM_TI1_ConfigInputStage>:
  * @param  TIM_ICFilter Specifies the Input Capture Filter.
  *          This parameter must be a value between 0x00 and 0x0F.
  * @retval None
  */
static void TIM_TI1_ConfigInputStage(TIM_TypeDef *TIMx, uint32_t TIM_ICPolarity, uint32_t TIM_ICFilter)
{
 8007a14:	b580      	push	{r7, lr}
 8007a16:	b086      	sub	sp, #24
 8007a18:	af00      	add	r7, sp, #0
 8007a1a:	60f8      	str	r0, [r7, #12]
 8007a1c:	60b9      	str	r1, [r7, #8]
 8007a1e:	607a      	str	r2, [r7, #4]
  uint32_t tmpccmr1;
  uint32_t tmpccer;

  /* Disable the Channel 1: Reset the CC1E Bit */
  tmpccer = TIMx->CCER;
 8007a20:	68fb      	ldr	r3, [r7, #12]
 8007a22:	6a1b      	ldr	r3, [r3, #32]
 8007a24:	617b      	str	r3, [r7, #20]
  TIMx->CCER &= ~TIM_CCER_CC1E;
 8007a26:	68fb      	ldr	r3, [r7, #12]
 8007a28:	6a1b      	ldr	r3, [r3, #32]
 8007a2a:	2201      	movs	r2, #1
 8007a2c:	4393      	bics	r3, r2
 8007a2e:	001a      	movs	r2, r3
 8007a30:	68fb      	ldr	r3, [r7, #12]
 8007a32:	621a      	str	r2, [r3, #32]
  tmpccmr1 = TIMx->CCMR1;
 8007a34:	68fb      	ldr	r3, [r7, #12]
 8007a36:	699b      	ldr	r3, [r3, #24]
 8007a38:	613b      	str	r3, [r7, #16]

  /* Set the filter */
  tmpccmr1 &= ~TIM_CCMR1_IC1F;
 8007a3a:	693b      	ldr	r3, [r7, #16]
 8007a3c:	22f0      	movs	r2, #240	; 0xf0
 8007a3e:	4393      	bics	r3, r2
 8007a40:	613b      	str	r3, [r7, #16]
  tmpccmr1 |= (TIM_ICFilter << 4U);
 8007a42:	687b      	ldr	r3, [r7, #4]
 8007a44:	011b      	lsls	r3, r3, #4
 8007a46:	693a      	ldr	r2, [r7, #16]
 8007a48:	4313      	orrs	r3, r2
 8007a4a:	613b      	str	r3, [r7, #16]

  /* Select the Polarity and set the CC1E Bit */
  tmpccer &= ~(TIM_CCER_CC1P | TIM_CCER_CC1NP);
 8007a4c:	697b      	ldr	r3, [r7, #20]
 8007a4e:	220a      	movs	r2, #10
 8007a50:	4393      	bics	r3, r2
 8007a52:	617b      	str	r3, [r7, #20]
  tmpccer |= TIM_ICPolarity;
 8007a54:	697a      	ldr	r2, [r7, #20]
 8007a56:	68bb      	ldr	r3, [r7, #8]
 8007a58:	4313      	orrs	r3, r2
 8007a5a:	617b      	str	r3, [r7, #20]

  /* Write to TIMx CCMR1 and CCER registers */
  TIMx->CCMR1 = tmpccmr1;
 8007a5c:	68fb      	ldr	r3, [r7, #12]
 8007a5e:	693a      	ldr	r2, [r7, #16]
 8007a60:	619a      	str	r2, [r3, #24]
  TIMx->CCER = tmpccer;
 8007a62:	68fb      	ldr	r3, [r7, #12]
 8007a64:	697a      	ldr	r2, [r7, #20]
 8007a66:	621a      	str	r2, [r3, #32]
}
 8007a68:	46c0      	nop			; (mov r8, r8)
 8007a6a:	46bd      	mov	sp, r7
 8007a6c:	b006      	add	sp, #24
 8007a6e:	bd80      	pop	{r7, pc}

08007a70 <TIM_TI2_ConfigInputStage>:
  * @param  TIM_ICFilter Specifies the Input Capture Filter.
  *          This parameter must be a value between 0x00 and 0x0F.
  * @retval None
  */
static void TIM_TI2_ConfigInputStage(TIM_TypeDef *TIMx, uint32_t TIM_ICPolarity, uint32_t TIM_ICFilter)
{
 8007a70:	b580      	push	{r7, lr}
 8007a72:	b086      	sub	sp, #24
 8007a74:	af00      	add	r7, sp, #0
 8007a76:	60f8      	str	r0, [r7, #12]
 8007a78:	60b9      	str	r1, [r7, #8]
 8007a7a:	607a      	str	r2, [r7, #4]
  uint32_t tmpccmr1;
  uint32_t tmpccer;

  /* Disable the Channel 2: Reset the CC2E Bit */
  TIMx->CCER &= ~TIM_CCER_CC2E;
 8007a7c:	68fb      	ldr	r3, [r7, #12]
 8007a7e:	6a1b      	ldr	r3, [r3, #32]
 8007a80:	2210      	movs	r2, #16
 8007a82:	4393      	bics	r3, r2
 8007a84:	001a      	movs	r2, r3
 8007a86:	68fb      	ldr	r3, [r7, #12]
 8007a88:	621a      	str	r2, [r3, #32]
  tmpccmr1 = TIMx->CCMR1;
 8007a8a:	68fb      	ldr	r3, [r7, #12]
 8007a8c:	699b      	ldr	r3, [r3, #24]
 8007a8e:	617b      	str	r3, [r7, #20]
  tmpccer = TIMx->CCER;
 8007a90:	68fb      	ldr	r3, [r7, #12]
 8007a92:	6a1b      	ldr	r3, [r3, #32]
 8007a94:	613b      	str	r3, [r7, #16]

  /* Set the filter */
  tmpccmr1 &= ~TIM_CCMR1_IC2F;
 8007a96:	697b      	ldr	r3, [r7, #20]
 8007a98:	4a0d      	ldr	r2, [pc, #52]	; (8007ad0 <TIM_TI2_ConfigInputStage+0x60>)
 8007a9a:	4013      	ands	r3, r2
 8007a9c:	617b      	str	r3, [r7, #20]
  tmpccmr1 |= (TIM_ICFilter << 12U);
 8007a9e:	687b      	ldr	r3, [r7, #4]
 8007aa0:	031b      	lsls	r3, r3, #12
 8007aa2:	697a      	ldr	r2, [r7, #20]
 8007aa4:	4313      	orrs	r3, r2
 8007aa6:	617b      	str	r3, [r7, #20]

  /* Select the Polarity and set the CC2E Bit */
  tmpccer &= ~(TIM_CCER_CC2P | TIM_CCER_CC2NP);
 8007aa8:	693b      	ldr	r3, [r7, #16]
 8007aaa:	22a0      	movs	r2, #160	; 0xa0
 8007aac:	4393      	bics	r3, r2
 8007aae:	613b      	str	r3, [r7, #16]
  tmpccer |= (TIM_ICPolarity << 4U);
 8007ab0:	68bb      	ldr	r3, [r7, #8]
 8007ab2:	011b      	lsls	r3, r3, #4
 8007ab4:	693a      	ldr	r2, [r7, #16]
 8007ab6:	4313      	orrs	r3, r2
 8007ab8:	613b      	str	r3, [r7, #16]

  /* Write to TIMx CCMR1 and CCER registers */
  TIMx->CCMR1 = tmpccmr1 ;
 8007aba:	68fb      	ldr	r3, [r7, #12]
 8007abc:	697a      	ldr	r2, [r7, #20]
 8007abe:	619a      	str	r2, [r3, #24]
  TIMx->CCER = tmpccer;
 8007ac0:	68fb      	ldr	r3, [r7, #12]
 8007ac2:	693a      	ldr	r2, [r7, #16]
 8007ac4:	621a      	str	r2, [r3, #32]
}
 8007ac6:	46c0      	nop			; (mov r8, r8)
 8007ac8:	46bd      	mov	sp, r7
 8007aca:	b006      	add	sp, #24
 8007acc:	bd80      	pop	{r7, pc}
 8007ace:	46c0      	nop			; (mov r8, r8)
 8007ad0:	ffff0fff 	.word	0xffff0fff

08007ad4 <TIM_ITRx_SetConfig>:
  *            @arg TIM_TS_TI2FP2: Filtered Timer Input 2
  *            @arg TIM_TS_ETRF: External Trigger input
  * @retval None
  */
static void TIM_ITRx_SetConfig(TIM_TypeDef *TIMx, uint32_t InputTriggerSource)
{
 8007ad4:	b580      	push	{r7, lr}
 8007ad6:	b084      	sub	sp, #16
 8007ad8:	af00      	add	r7, sp, #0
 8007ada:	6078      	str	r0, [r7, #4]
 8007adc:	6039      	str	r1, [r7, #0]
  uint32_t tmpsmcr;

  /* Get the TIMx SMCR register value */
  tmpsmcr = TIMx->SMCR;
 8007ade:	687b      	ldr	r3, [r7, #4]
 8007ae0:	689b      	ldr	r3, [r3, #8]
 8007ae2:	60fb      	str	r3, [r7, #12]
  /* Reset the TS Bits */
  tmpsmcr &= ~TIM_SMCR_TS;
 8007ae4:	68fb      	ldr	r3, [r7, #12]
 8007ae6:	2270      	movs	r2, #112	; 0x70
 8007ae8:	4393      	bics	r3, r2
 8007aea:	60fb      	str	r3, [r7, #12]
  /* Set the Input Trigger source and the slave mode*/
  tmpsmcr |= (InputTriggerSource | TIM_SLAVEMODE_EXTERNAL1);
 8007aec:	683a      	ldr	r2, [r7, #0]
 8007aee:	68fb      	ldr	r3, [r7, #12]
 8007af0:	4313      	orrs	r3, r2
 8007af2:	2207      	movs	r2, #7
 8007af4:	4313      	orrs	r3, r2
 8007af6:	60fb      	str	r3, [r7, #12]
  /* Write to TIMx SMCR */
  TIMx->SMCR = tmpsmcr;
 8007af8:	687b      	ldr	r3, [r7, #4]
 8007afa:	68fa      	ldr	r2, [r7, #12]
 8007afc:	609a      	str	r2, [r3, #8]
}
 8007afe:	46c0      	nop			; (mov r8, r8)
 8007b00:	46bd      	mov	sp, r7
 8007b02:	b004      	add	sp, #16
 8007b04:	bd80      	pop	{r7, pc}
	...

08007b08 <TIM_ETR_SetConfig>:
  *          This parameter must be a value between 0x00 and 0x0F
  * @retval None
  */
void TIM_ETR_SetConfig(TIM_TypeDef *TIMx, uint32_t TIM_ExtTRGPrescaler,
                       uint32_t TIM_ExtTRGPolarity, uint32_t ExtTRGFilter)
{
 8007b08:	b580      	push	{r7, lr}
 8007b0a:	b086      	sub	sp, #24
 8007b0c:	af00      	add	r7, sp, #0
 8007b0e:	60f8      	str	r0, [r7, #12]
 8007b10:	60b9      	str	r1, [r7, #8]
 8007b12:	607a      	str	r2, [r7, #4]
 8007b14:	603b      	str	r3, [r7, #0]
  uint32_t tmpsmcr;

  tmpsmcr = TIMx->SMCR;
 8007b16:	68fb      	ldr	r3, [r7, #12]
 8007b18:	689b      	ldr	r3, [r3, #8]
 8007b1a:	617b      	str	r3, [r7, #20]

  /* Reset the ETR Bits */
  tmpsmcr &= ~(TIM_SMCR_ETF | TIM_SMCR_ETPS | TIM_SMCR_ECE | TIM_SMCR_ETP);
 8007b1c:	697b      	ldr	r3, [r7, #20]
 8007b1e:	4a09      	ldr	r2, [pc, #36]	; (8007b44 <TIM_ETR_SetConfig+0x3c>)
 8007b20:	4013      	ands	r3, r2
 8007b22:	617b      	str	r3, [r7, #20]

  /* Set the Prescaler, the Filter value and the Polarity */
  tmpsmcr |= (uint32_t)(TIM_ExtTRGPrescaler | (TIM_ExtTRGPolarity | (ExtTRGFilter << 8U)));
 8007b24:	683b      	ldr	r3, [r7, #0]
 8007b26:	021a      	lsls	r2, r3, #8
 8007b28:	687b      	ldr	r3, [r7, #4]
 8007b2a:	431a      	orrs	r2, r3
 8007b2c:	68bb      	ldr	r3, [r7, #8]
 8007b2e:	4313      	orrs	r3, r2
 8007b30:	697a      	ldr	r2, [r7, #20]
 8007b32:	4313      	orrs	r3, r2
 8007b34:	617b      	str	r3, [r7, #20]

  /* Write to TIMx SMCR */
  TIMx->SMCR = tmpsmcr;
 8007b36:	68fb      	ldr	r3, [r7, #12]
 8007b38:	697a      	ldr	r2, [r7, #20]
 8007b3a:	609a      	str	r2, [r3, #8]
}
 8007b3c:	46c0      	nop			; (mov r8, r8)
 8007b3e:	46bd      	mov	sp, r7
 8007b40:	b006      	add	sp, #24
 8007b42:	bd80      	pop	{r7, pc}
 8007b44:	ffff00ff 	.word	0xffff00ff

08007b48 <TIM_CCxChannelCmd>:
  * @param  ChannelState specifies the TIM Channel CCxE bit new state.
  *          This parameter can be: TIM_CCx_ENABLE or TIM_CCx_DISABLE.
  * @retval None
  */
void TIM_CCxChannelCmd(TIM_TypeDef *TIMx, uint32_t Channel, uint32_t ChannelState)
{
 8007b48:	b580      	push	{r7, lr}
 8007b4a:	b086      	sub	sp, #24
 8007b4c:	af00      	add	r7, sp, #0
 8007b4e:	60f8      	str	r0, [r7, #12]
 8007b50:	60b9      	str	r1, [r7, #8]
 8007b52:	607a      	str	r2, [r7, #4]

  /* Check the parameters */
  assert_param(IS_TIM_CC1_INSTANCE(TIMx));
  assert_param(IS_TIM_CHANNELS(Channel));

  tmp = TIM_CCER_CC1E << (Channel & 0x1FU); /* 0x1FU = 31 bits max shift */
 8007b54:	68bb      	ldr	r3, [r7, #8]
 8007b56:	221f      	movs	r2, #31
 8007b58:	4013      	ands	r3, r2
 8007b5a:	2201      	movs	r2, #1
 8007b5c:	409a      	lsls	r2, r3
 8007b5e:	0013      	movs	r3, r2
 8007b60:	617b      	str	r3, [r7, #20]

  /* Reset the CCxE Bit */
  TIMx->CCER &= ~tmp;
 8007b62:	68fb      	ldr	r3, [r7, #12]
 8007b64:	6a1b      	ldr	r3, [r3, #32]
 8007b66:	697a      	ldr	r2, [r7, #20]
 8007b68:	43d2      	mvns	r2, r2
 8007b6a:	401a      	ands	r2, r3
 8007b6c:	68fb      	ldr	r3, [r7, #12]
 8007b6e:	621a      	str	r2, [r3, #32]

  /* Set or reset the CCxE Bit */
  TIMx->CCER |= (uint32_t)(ChannelState << (Channel & 0x1FU)); /* 0x1FU = 31 bits max shift */
 8007b70:	68fb      	ldr	r3, [r7, #12]
 8007b72:	6a1a      	ldr	r2, [r3, #32]
 8007b74:	68bb      	ldr	r3, [r7, #8]
 8007b76:	211f      	movs	r1, #31
 8007b78:	400b      	ands	r3, r1
 8007b7a:	6879      	ldr	r1, [r7, #4]
 8007b7c:	4099      	lsls	r1, r3
 8007b7e:	000b      	movs	r3, r1
 8007b80:	431a      	orrs	r2, r3
 8007b82:	68fb      	ldr	r3, [r7, #12]
 8007b84:	621a      	str	r2, [r3, #32]
}
 8007b86:	46c0      	nop			; (mov r8, r8)
 8007b88:	46bd      	mov	sp, r7
 8007b8a:	b006      	add	sp, #24
 8007b8c:	bd80      	pop	{r7, pc}
	...

08007b90 <HAL_TIMEx_MasterConfigSynchronization>:
  *         mode.
  * @retval HAL status
  */
HAL_StatusTypeDef HAL_TIMEx_MasterConfigSynchronization(TIM_HandleTypeDef *htim,
                                                        TIM_MasterConfigTypeDef *sMasterConfig)
{
 8007b90:	b580      	push	{r7, lr}
 8007b92:	b084      	sub	sp, #16
 8007b94:	af00      	add	r7, sp, #0
 8007b96:	6078      	str	r0, [r7, #4]
 8007b98:	6039      	str	r1, [r7, #0]
  assert_param(IS_TIM_MASTER_INSTANCE(htim->Instance));
  assert_param(IS_TIM_TRGO_SOURCE(sMasterConfig->MasterOutputTrigger));
  assert_param(IS_TIM_MSM_STATE(sMasterConfig->MasterSlaveMode));

  /* Check input state */
  __HAL_LOCK(htim);
 8007b9a:	687b      	ldr	r3, [r7, #4]
 8007b9c:	223c      	movs	r2, #60	; 0x3c
 8007b9e:	5c9b      	ldrb	r3, [r3, r2]
 8007ba0:	2b01      	cmp	r3, #1
 8007ba2:	d101      	bne.n	8007ba8 <HAL_TIMEx_MasterConfigSynchronization+0x18>
 8007ba4:	2302      	movs	r3, #2
 8007ba6:	e041      	b.n	8007c2c <HAL_TIMEx_MasterConfigSynchronization+0x9c>
 8007ba8:	687b      	ldr	r3, [r7, #4]
 8007baa:	223c      	movs	r2, #60	; 0x3c
 8007bac:	2101      	movs	r1, #1
 8007bae:	5499      	strb	r1, [r3, r2]

  /* Change the handler state */
  htim->State = HAL_TIM_STATE_BUSY;
 8007bb0:	687b      	ldr	r3, [r7, #4]
 8007bb2:	223d      	movs	r2, #61	; 0x3d
 8007bb4:	2102      	movs	r1, #2
 8007bb6:	5499      	strb	r1, [r3, r2]

  /* Get the TIMx CR2 register value */
  tmpcr2 = htim->Instance->CR2;
 8007bb8:	687b      	ldr	r3, [r7, #4]
 8007bba:	681b      	ldr	r3, [r3, #0]
 8007bbc:	685b      	ldr	r3, [r3, #4]
 8007bbe:	60fb      	str	r3, [r7, #12]

  /* Get the TIMx SMCR register value */
  tmpsmcr = htim->Instance->SMCR;
 8007bc0:	687b      	ldr	r3, [r7, #4]
 8007bc2:	681b      	ldr	r3, [r3, #0]
 8007bc4:	689b      	ldr	r3, [r3, #8]
 8007bc6:	60bb      	str	r3, [r7, #8]

  /* Reset the MMS Bits */
  tmpcr2 &= ~TIM_CR2_MMS;
 8007bc8:	68fb      	ldr	r3, [r7, #12]
 8007bca:	2270      	movs	r2, #112	; 0x70
 8007bcc:	4393      	bics	r3, r2
 8007bce:	60fb      	str	r3, [r7, #12]
  /* Select the TRGO source */
  tmpcr2 |=  sMasterConfig->MasterOutputTrigger;
 8007bd0:	683b      	ldr	r3, [r7, #0]
 8007bd2:	681b      	ldr	r3, [r3, #0]
 8007bd4:	68fa      	ldr	r2, [r7, #12]
 8007bd6:	4313      	orrs	r3, r2
 8007bd8:	60fb      	str	r3, [r7, #12]

  /* Update TIMx CR2 */
  htim->Instance->CR2 = tmpcr2;
 8007bda:	687b      	ldr	r3, [r7, #4]
 8007bdc:	681b      	ldr	r3, [r3, #0]
 8007bde:	68fa      	ldr	r2, [r7, #12]
 8007be0:	605a      	str	r2, [r3, #4]

  if (IS_TIM_SLAVE_INSTANCE(htim->Instance))
 8007be2:	687b      	ldr	r3, [r7, #4]
 8007be4:	681b      	ldr	r3, [r3, #0]
 8007be6:	4a13      	ldr	r2, [pc, #76]	; (8007c34 <HAL_TIMEx_MasterConfigSynchronization+0xa4>)
 8007be8:	4293      	cmp	r3, r2
 8007bea:	d009      	beq.n	8007c00 <HAL_TIMEx_MasterConfigSynchronization+0x70>
 8007bec:	687b      	ldr	r3, [r7, #4]
 8007bee:	681b      	ldr	r3, [r3, #0]
 8007bf0:	4a11      	ldr	r2, [pc, #68]	; (8007c38 <HAL_TIMEx_MasterConfigSynchronization+0xa8>)
 8007bf2:	4293      	cmp	r3, r2
 8007bf4:	d004      	beq.n	8007c00 <HAL_TIMEx_MasterConfigSynchronization+0x70>
 8007bf6:	687b      	ldr	r3, [r7, #4]
 8007bf8:	681b      	ldr	r3, [r3, #0]
 8007bfa:	4a10      	ldr	r2, [pc, #64]	; (8007c3c <HAL_TIMEx_MasterConfigSynchronization+0xac>)
 8007bfc:	4293      	cmp	r3, r2
 8007bfe:	d10c      	bne.n	8007c1a <HAL_TIMEx_MasterConfigSynchronization+0x8a>
  {
    /* Reset the MSM Bit */
    tmpsmcr &= ~TIM_SMCR_MSM;
 8007c00:	68bb      	ldr	r3, [r7, #8]
 8007c02:	2280      	movs	r2, #128	; 0x80
 8007c04:	4393      	bics	r3, r2
 8007c06:	60bb      	str	r3, [r7, #8]
    /* Set master mode */
    tmpsmcr |= sMasterConfig->MasterSlaveMode;
 8007c08:	683b      	ldr	r3, [r7, #0]
 8007c0a:	685b      	ldr	r3, [r3, #4]
 8007c0c:	68ba      	ldr	r2, [r7, #8]
 8007c0e:	4313      	orrs	r3, r2
 8007c10:	60bb      	str	r3, [r7, #8]

    /* Update TIMx SMCR */
    htim->Instance->SMCR = tmpsmcr;
 8007c12:	687b      	ldr	r3, [r7, #4]
 8007c14:	681b      	ldr	r3, [r3, #0]
 8007c16:	68ba      	ldr	r2, [r7, #8]
 8007c18:	609a      	str	r2, [r3, #8]
  }

  /* Change the htim state */
  htim->State = HAL_TIM_STATE_READY;
 8007c1a:	687b      	ldr	r3, [r7, #4]
 8007c1c:	223d      	movs	r2, #61	; 0x3d
 8007c1e:	2101      	movs	r1, #1
 8007c20:	5499      	strb	r1, [r3, r2]

  __HAL_UNLOCK(htim);
 8007c22:	687b      	ldr	r3, [r7, #4]
 8007c24:	223c      	movs	r2, #60	; 0x3c
 8007c26:	2100      	movs	r1, #0
 8007c28:	5499      	strb	r1, [r3, r2]

  return HAL_OK;
 8007c2a:	2300      	movs	r3, #0
}
 8007c2c:	0018      	movs	r0, r3
 8007c2e:	46bd      	mov	sp, r7
 8007c30:	b004      	add	sp, #16
 8007c32:	bd80      	pop	{r7, pc}
 8007c34:	40012c00 	.word	0x40012c00
 8007c38:	40000400 	.word	0x40000400
 8007c3c:	40014000 	.word	0x40014000

08007c40 <HAL_TIMEx_ConfigBreakDeadTime>:
  *         interrupt can be enabled by calling the @ref __HAL_TIM_ENABLE_IT macro.
  * @retval HAL status
  */
HAL_StatusTypeDef HAL_TIMEx_ConfigBreakDeadTime(TIM_HandleTypeDef *htim,
                                                TIM_BreakDeadTimeConfigTypeDef *sBreakDeadTimeConfig)
{
 8007c40:	b580      	push	{r7, lr}
 8007c42:	b084      	sub	sp, #16
 8007c44:	af00      	add	r7, sp, #0
 8007c46:	6078      	str	r0, [r7, #4]
 8007c48:	6039      	str	r1, [r7, #0]
  /* Keep this variable initialized to 0 as it is used to configure BDTR register */
  uint32_t tmpbdtr = 0U;
 8007c4a:	2300      	movs	r3, #0
 8007c4c:	60fb      	str	r3, [r7, #12]
  assert_param(IS_TIM_BREAK_STATE(sBreakDeadTimeConfig->BreakState));
  assert_param(IS_TIM_BREAK_POLARITY(sBreakDeadTimeConfig->BreakPolarity));
  assert_param(IS_TIM_AUTOMATIC_OUTPUT_STATE(sBreakDeadTimeConfig->AutomaticOutput));

  /* Check input state */
  __HAL_LOCK(htim);
 8007c4e:	687b      	ldr	r3, [r7, #4]
 8007c50:	223c      	movs	r2, #60	; 0x3c
 8007c52:	5c9b      	ldrb	r3, [r3, r2]
 8007c54:	2b01      	cmp	r3, #1
 8007c56:	d101      	bne.n	8007c5c <HAL_TIMEx_ConfigBreakDeadTime+0x1c>
 8007c58:	2302      	movs	r3, #2
 8007c5a:	e03e      	b.n	8007cda <HAL_TIMEx_ConfigBreakDeadTime+0x9a>
 8007c5c:	687b      	ldr	r3, [r7, #4]
 8007c5e:	223c      	movs	r2, #60	; 0x3c
 8007c60:	2101      	movs	r1, #1
 8007c62:	5499      	strb	r1, [r3, r2]

  /* Set the Lock level, the Break enable Bit and the Polarity, the OSSR State,
     the OSSI State, the dead time value and the Automatic Output Enable Bit */

  /* Set the BDTR bits */
  MODIFY_REG(tmpbdtr, TIM_BDTR_DTG, sBreakDeadTimeConfig->DeadTime);
 8007c64:	68fb      	ldr	r3, [r7, #12]
 8007c66:	22ff      	movs	r2, #255	; 0xff
 8007c68:	4393      	bics	r3, r2
 8007c6a:	001a      	movs	r2, r3
 8007c6c:	683b      	ldr	r3, [r7, #0]
 8007c6e:	68db      	ldr	r3, [r3, #12]
 8007c70:	4313      	orrs	r3, r2
 8007c72:	60fb      	str	r3, [r7, #12]
  MODIFY_REG(tmpbdtr, TIM_BDTR_LOCK, sBreakDeadTimeConfig->LockLevel);
 8007c74:	68fb      	ldr	r3, [r7, #12]
 8007c76:	4a1b      	ldr	r2, [pc, #108]	; (8007ce4 <HAL_TIMEx_ConfigBreakDeadTime+0xa4>)
 8007c78:	401a      	ands	r2, r3
 8007c7a:	683b      	ldr	r3, [r7, #0]
 8007c7c:	689b      	ldr	r3, [r3, #8]
 8007c7e:	4313      	orrs	r3, r2
 8007c80:	60fb      	str	r3, [r7, #12]
  MODIFY_REG(tmpbdtr, TIM_BDTR_OSSI, sBreakDeadTimeConfig->OffStateIDLEMode);
 8007c82:	68fb      	ldr	r3, [r7, #12]
 8007c84:	4a18      	ldr	r2, [pc, #96]	; (8007ce8 <HAL_TIMEx_ConfigBreakDeadTime+0xa8>)
 8007c86:	401a      	ands	r2, r3
 8007c88:	683b      	ldr	r3, [r7, #0]
 8007c8a:	685b      	ldr	r3, [r3, #4]
 8007c8c:	4313      	orrs	r3, r2
 8007c8e:	60fb      	str	r3, [r7, #12]
  MODIFY_REG(tmpbdtr, TIM_BDTR_OSSR, sBreakDeadTimeConfig->OffStateRunMode);
 8007c90:	68fb      	ldr	r3, [r7, #12]
 8007c92:	4a16      	ldr	r2, [pc, #88]	; (8007cec <HAL_TIMEx_ConfigBreakDeadTime+0xac>)
 8007c94:	401a      	ands	r2, r3
 8007c96:	683b      	ldr	r3, [r7, #0]
 8007c98:	681b      	ldr	r3, [r3, #0]
 8007c9a:	4313      	orrs	r3, r2
 8007c9c:	60fb      	str	r3, [r7, #12]
  MODIFY_REG(tmpbdtr, TIM_BDTR_BKE, sBreakDeadTimeConfig->BreakState);
 8007c9e:	68fb      	ldr	r3, [r7, #12]
 8007ca0:	4a13      	ldr	r2, [pc, #76]	; (8007cf0 <HAL_TIMEx_ConfigBreakDeadTime+0xb0>)
 8007ca2:	401a      	ands	r2, r3
 8007ca4:	683b      	ldr	r3, [r7, #0]
 8007ca6:	691b      	ldr	r3, [r3, #16]
 8007ca8:	4313      	orrs	r3, r2
 8007caa:	60fb      	str	r3, [r7, #12]
  MODIFY_REG(tmpbdtr, TIM_BDTR_BKP, sBreakDeadTimeConfig->BreakPolarity);
 8007cac:	68fb      	ldr	r3, [r7, #12]
 8007cae:	4a11      	ldr	r2, [pc, #68]	; (8007cf4 <HAL_TIMEx_ConfigBreakDeadTime+0xb4>)
 8007cb0:	401a      	ands	r2, r3
 8007cb2:	683b      	ldr	r3, [r7, #0]
 8007cb4:	695b      	ldr	r3, [r3, #20]
 8007cb6:	4313      	orrs	r3, r2
 8007cb8:	60fb      	str	r3, [r7, #12]
  MODIFY_REG(tmpbdtr, TIM_BDTR_AOE, sBreakDeadTimeConfig->AutomaticOutput);
 8007cba:	68fb      	ldr	r3, [r7, #12]
 8007cbc:	4a0e      	ldr	r2, [pc, #56]	; (8007cf8 <HAL_TIMEx_ConfigBreakDeadTime+0xb8>)
 8007cbe:	401a      	ands	r2, r3
 8007cc0:	683b      	ldr	r3, [r7, #0]
 8007cc2:	69db      	ldr	r3, [r3, #28]
 8007cc4:	4313      	orrs	r3, r2
 8007cc6:	60fb      	str	r3, [r7, #12]


  /* Set TIMx_BDTR */
  htim->Instance->BDTR = tmpbdtr;
 8007cc8:	687b      	ldr	r3, [r7, #4]
 8007cca:	681b      	ldr	r3, [r3, #0]
 8007ccc:	68fa      	ldr	r2, [r7, #12]
 8007cce:	645a      	str	r2, [r3, #68]	; 0x44

  __HAL_UNLOCK(htim);
 8007cd0:	687b      	ldr	r3, [r7, #4]
 8007cd2:	223c      	movs	r2, #60	; 0x3c
 8007cd4:	2100      	movs	r1, #0
 8007cd6:	5499      	strb	r1, [r3, r2]

  return HAL_OK;
 8007cd8:	2300      	movs	r3, #0
}
 8007cda:	0018      	movs	r0, r3
 8007cdc:	46bd      	mov	sp, r7
 8007cde:	b004      	add	sp, #16
 8007ce0:	bd80      	pop	{r7, pc}
 8007ce2:	46c0      	nop			; (mov r8, r8)
 8007ce4:	fffffcff 	.word	0xfffffcff
 8007ce8:	fffffbff 	.word	0xfffffbff
 8007cec:	fffff7ff 	.word	0xfffff7ff
 8007cf0:	ffffefff 	.word	0xffffefff
 8007cf4:	ffffdfff 	.word	0xffffdfff
 8007cf8:	ffffbfff 	.word	0xffffbfff

08007cfc <HAL_TIMEx_CommutCallback>:
  * @brief  Hall commutation changed callback in non-blocking mode
  * @param  htim TIM handle
  * @retval None
  */
__weak void HAL_TIMEx_CommutCallback(TIM_HandleTypeDef *htim)
{
 8007cfc:	b580      	push	{r7, lr}
 8007cfe:	b082      	sub	sp, #8
 8007d00:	af00      	add	r7, sp, #0
 8007d02:	6078      	str	r0, [r7, #4]
  UNUSED(htim);

  /* NOTE : This function should not be modified, when the callback is needed,
            the HAL_TIMEx_CommutCallback could be implemented in the user file
   */
}
 8007d04:	46c0      	nop			; (mov r8, r8)
 8007d06:	46bd      	mov	sp, r7
 8007d08:	b002      	add	sp, #8
 8007d0a:	bd80      	pop	{r7, pc}

08007d0c <HAL_TIMEx_BreakCallback>:
  * @brief  Hall Break detection callback in non-blocking mode
  * @param  htim TIM handle
  * @retval None
  */
__weak void HAL_TIMEx_BreakCallback(TIM_HandleTypeDef *htim)
{
 8007d0c:	b580      	push	{r7, lr}
 8007d0e:	b082      	sub	sp, #8
 8007d10:	af00      	add	r7, sp, #0
 8007d12:	6078      	str	r0, [r7, #4]
  UNUSED(htim);

  /* NOTE : This function should not be modified, when the callback is needed,
            the HAL_TIMEx_BreakCallback could be implemented in the user file
   */
}
 8007d14:	46c0      	nop			; (mov r8, r8)
 8007d16:	46bd      	mov	sp, r7
 8007d18:	b002      	add	sp, #8
 8007d1a:	bd80      	pop	{r7, pc}

08007d1c <HAL_UART_Init>:
  *        parameters in the UART_InitTypeDef and initialize the associated handle.
  * @param huart UART handle.
  * @retval HAL status
  */
HAL_StatusTypeDef HAL_UART_Init(UART_HandleTypeDef *huart)
{
 8007d1c:	b580      	push	{r7, lr}
 8007d1e:	b082      	sub	sp, #8
 8007d20:	af00      	add	r7, sp, #0
 8007d22:	6078      	str	r0, [r7, #4]
  /* Check the UART handle allocation */
  if (huart == NULL)
 8007d24:	687b      	ldr	r3, [r7, #4]
 8007d26:	2b00      	cmp	r3, #0
 8007d28:	d101      	bne.n	8007d2e <HAL_UART_Init+0x12>
  {
    return HAL_ERROR;
 8007d2a:	2301      	movs	r3, #1
 8007d2c:	e044      	b.n	8007db8 <HAL_UART_Init+0x9c>
  {
    /* Check the parameters */
    assert_param(IS_UART_INSTANCE(huart->Instance));
  }

  if (huart->gState == HAL_UART_STATE_RESET)
 8007d2e:	687b      	ldr	r3, [r7, #4]
 8007d30:	6f5b      	ldr	r3, [r3, #116]	; 0x74
 8007d32:	2b00      	cmp	r3, #0
 8007d34:	d107      	bne.n	8007d46 <HAL_UART_Init+0x2a>
  {
    /* Allocate lock resource and initialize it */
    huart->Lock = HAL_UNLOCKED;
 8007d36:	687b      	ldr	r3, [r7, #4]
 8007d38:	2270      	movs	r2, #112	; 0x70
 8007d3a:	2100      	movs	r1, #0
 8007d3c:	5499      	strb	r1, [r3, r2]

    /* Init the low level hardware */
    huart->MspInitCallback(huart);
#else
    /* Init the low level hardware : GPIO, CLOCK */
    HAL_UART_MspInit(huart);
 8007d3e:	687b      	ldr	r3, [r7, #4]
 8007d40:	0018      	movs	r0, r3
 8007d42:	f7fc fb9b 	bl	800447c <HAL_UART_MspInit>
#endif /* (USE_HAL_UART_REGISTER_CALLBACKS) */
  }

  huart->gState = HAL_UART_STATE_BUSY;
 8007d46:	687b      	ldr	r3, [r7, #4]
 8007d48:	2224      	movs	r2, #36	; 0x24
 8007d4a:	675a      	str	r2, [r3, #116]	; 0x74

  __HAL_UART_DISABLE(huart);
 8007d4c:	687b      	ldr	r3, [r7, #4]
 8007d4e:	681b      	ldr	r3, [r3, #0]
 8007d50:	681a      	ldr	r2, [r3, #0]
 8007d52:	687b      	ldr	r3, [r7, #4]
 8007d54:	681b      	ldr	r3, [r3, #0]
 8007d56:	2101      	movs	r1, #1
 8007d58:	438a      	bics	r2, r1
 8007d5a:	601a      	str	r2, [r3, #0]

  /* Set the UART Communication parameters */
  if (UART_SetConfig(huart) == HAL_ERROR)
 8007d5c:	687b      	ldr	r3, [r7, #4]
 8007d5e:	0018      	movs	r0, r3
 8007d60:	f000 f830 	bl	8007dc4 <UART_SetConfig>
 8007d64:	0003      	movs	r3, r0
 8007d66:	2b01      	cmp	r3, #1
 8007d68:	d101      	bne.n	8007d6e <HAL_UART_Init+0x52>
  {
    return HAL_ERROR;
 8007d6a:	2301      	movs	r3, #1
 8007d6c:	e024      	b.n	8007db8 <HAL_UART_Init+0x9c>
  }

  if (huart->AdvancedInit.AdvFeatureInit != UART_ADVFEATURE_NO_INIT)
 8007d6e:	687b      	ldr	r3, [r7, #4]
 8007d70:	6a5b      	ldr	r3, [r3, #36]	; 0x24
 8007d72:	2b00      	cmp	r3, #0
 8007d74:	d003      	beq.n	8007d7e <HAL_UART_Init+0x62>
  {
    UART_AdvFeatureConfig(huart);
 8007d76:	687b      	ldr	r3, [r7, #4]
 8007d78:	0018      	movs	r0, r3
 8007d7a:	f000 f9a9 	bl	80080d0 <UART_AdvFeatureConfig>
  - LINEN (if LIN is supported) and CLKEN bits in the USART_CR2 register,
  - SCEN (if Smartcard is supported), HDSEL and IREN (if IrDA is supported)  bits in the USART_CR3 register.*/
#if defined (USART_CR2_LINEN)
  CLEAR_BIT(huart->Instance->CR2, (USART_CR2_LINEN | USART_CR2_CLKEN));
#else
  CLEAR_BIT(huart->Instance->CR2, USART_CR2_CLKEN);
 8007d7e:	687b      	ldr	r3, [r7, #4]
 8007d80:	681b      	ldr	r3, [r3, #0]
 8007d82:	685a      	ldr	r2, [r3, #4]
 8007d84:	687b      	ldr	r3, [r7, #4]
 8007d86:	681b      	ldr	r3, [r3, #0]
 8007d88:	490d      	ldr	r1, [pc, #52]	; (8007dc0 <HAL_UART_Init+0xa4>)
 8007d8a:	400a      	ands	r2, r1
 8007d8c:	605a      	str	r2, [r3, #4]
#endif /* USART_CR3_IREN */
#else
#if defined (USART_CR3_IREN)
  CLEAR_BIT(huart->Instance->CR3, (USART_CR3_HDSEL | USART_CR3_IREN));
#else
  CLEAR_BIT(huart->Instance->CR3, USART_CR3_HDSEL);
 8007d8e:	687b      	ldr	r3, [r7, #4]
 8007d90:	681b      	ldr	r3, [r3, #0]
 8007d92:	689a      	ldr	r2, [r3, #8]
 8007d94:	687b      	ldr	r3, [r7, #4]
 8007d96:	681b      	ldr	r3, [r3, #0]
 8007d98:	2108      	movs	r1, #8
 8007d9a:	438a      	bics	r2, r1
 8007d9c:	609a      	str	r2, [r3, #8]
#endif /* USART_CR3_IREN*/
#endif /* USART_CR3_SCEN */

  __HAL_UART_ENABLE(huart);
 8007d9e:	687b      	ldr	r3, [r7, #4]
 8007da0:	681b      	ldr	r3, [r3, #0]
 8007da2:	681a      	ldr	r2, [r3, #0]
 8007da4:	687b      	ldr	r3, [r7, #4]
 8007da6:	681b      	ldr	r3, [r3, #0]
 8007da8:	2101      	movs	r1, #1
 8007daa:	430a      	orrs	r2, r1
 8007dac:	601a      	str	r2, [r3, #0]

  /* TEACK and/or REACK to check before moving huart->gState and huart->RxState to Ready */
  return (UART_CheckIdleState(huart));
 8007dae:	687b      	ldr	r3, [r7, #4]
 8007db0:	0018      	movs	r0, r3
 8007db2:	f000 fa41 	bl	8008238 <UART_CheckIdleState>
 8007db6:	0003      	movs	r3, r0
}
 8007db8:	0018      	movs	r0, r3
 8007dba:	46bd      	mov	sp, r7
 8007dbc:	b002      	add	sp, #8
 8007dbe:	bd80      	pop	{r7, pc}
 8007dc0:	fffff7ff 	.word	0xfffff7ff

08007dc4 <UART_SetConfig>:
  * @brief Configure the UART peripheral.
  * @param huart UART handle.
  * @retval HAL status
  */
HAL_StatusTypeDef UART_SetConfig(UART_HandleTypeDef *huart)
{
 8007dc4:	b580      	push	{r7, lr}
 8007dc6:	b088      	sub	sp, #32
 8007dc8:	af00      	add	r7, sp, #0
 8007dca:	6078      	str	r0, [r7, #4]
  uint32_t tmpreg;
  uint16_t brrtemp;
  UART_ClockSourceTypeDef clocksource;
  uint32_t usartdiv                   = 0x00000000U;
 8007dcc:	2300      	movs	r3, #0
 8007dce:	61bb      	str	r3, [r7, #24]
  HAL_StatusTypeDef ret               = HAL_OK;
 8007dd0:	2317      	movs	r3, #23
 8007dd2:	18fb      	adds	r3, r7, r3
 8007dd4:	2200      	movs	r2, #0
 8007dd6:	701a      	strb	r2, [r3, #0]
  *  the UART Word Length, Parity, Mode and oversampling:
  *  set the M bits according to huart->Init.WordLength value
  *  set PCE and PS bits according to huart->Init.Parity value
  *  set TE and RE bits according to huart->Init.Mode value
  *  set OVER8 bit according to huart->Init.OverSampling value */
  tmpreg = (uint32_t)huart->Init.WordLength | huart->Init.Parity | huart->Init.Mode | huart->Init.OverSampling ;
 8007dd8:	687b      	ldr	r3, [r7, #4]
 8007dda:	689a      	ldr	r2, [r3, #8]
 8007ddc:	687b      	ldr	r3, [r7, #4]
 8007dde:	691b      	ldr	r3, [r3, #16]
 8007de0:	431a      	orrs	r2, r3
 8007de2:	687b      	ldr	r3, [r7, #4]
 8007de4:	695b      	ldr	r3, [r3, #20]
 8007de6:	431a      	orrs	r2, r3
 8007de8:	687b      	ldr	r3, [r7, #4]
 8007dea:	69db      	ldr	r3, [r3, #28]
 8007dec:	4313      	orrs	r3, r2
 8007dee:	613b      	str	r3, [r7, #16]
  MODIFY_REG(huart->Instance->CR1, USART_CR1_FIELDS, tmpreg);
 8007df0:	687b      	ldr	r3, [r7, #4]
 8007df2:	681b      	ldr	r3, [r3, #0]
 8007df4:	681b      	ldr	r3, [r3, #0]
 8007df6:	4aad      	ldr	r2, [pc, #692]	; (80080ac <UART_SetConfig+0x2e8>)
 8007df8:	4013      	ands	r3, r2
 8007dfa:	0019      	movs	r1, r3
 8007dfc:	687b      	ldr	r3, [r7, #4]
 8007dfe:	681b      	ldr	r3, [r3, #0]
 8007e00:	693a      	ldr	r2, [r7, #16]
 8007e02:	430a      	orrs	r2, r1
 8007e04:	601a      	str	r2, [r3, #0]

  /*-------------------------- USART CR2 Configuration -----------------------*/
  /* Configure the UART Stop Bits: Set STOP[13:12] bits according
  * to huart->Init.StopBits value */
  MODIFY_REG(huart->Instance->CR2, USART_CR2_STOP, huart->Init.StopBits);
 8007e06:	687b      	ldr	r3, [r7, #4]
 8007e08:	681b      	ldr	r3, [r3, #0]
 8007e0a:	685b      	ldr	r3, [r3, #4]
 8007e0c:	4aa8      	ldr	r2, [pc, #672]	; (80080b0 <UART_SetConfig+0x2ec>)
 8007e0e:	4013      	ands	r3, r2
 8007e10:	0019      	movs	r1, r3
 8007e12:	687b      	ldr	r3, [r7, #4]
 8007e14:	68da      	ldr	r2, [r3, #12]
 8007e16:	687b      	ldr	r3, [r7, #4]
 8007e18:	681b      	ldr	r3, [r3, #0]
 8007e1a:	430a      	orrs	r2, r1
 8007e1c:	605a      	str	r2, [r3, #4]
  /* Configure
  * - UART HardWare Flow Control: set CTSE and RTSE bits according
  *   to huart->Init.HwFlowCtl value
  * - one-bit sampling method versus three samples' majority rule according
  *   to huart->Init.OneBitSampling (not applicable to LPUART) */
  tmpreg = (uint32_t)huart->Init.HwFlowCtl;
 8007e1e:	687b      	ldr	r3, [r7, #4]
 8007e20:	699b      	ldr	r3, [r3, #24]
 8007e22:	613b      	str	r3, [r7, #16]

  tmpreg |= huart->Init.OneBitSampling;
 8007e24:	687b      	ldr	r3, [r7, #4]
 8007e26:	6a1b      	ldr	r3, [r3, #32]
 8007e28:	693a      	ldr	r2, [r7, #16]
 8007e2a:	4313      	orrs	r3, r2
 8007e2c:	613b      	str	r3, [r7, #16]
  MODIFY_REG(huart->Instance->CR3, USART_CR3_FIELDS, tmpreg);
 8007e2e:	687b      	ldr	r3, [r7, #4]
 8007e30:	681b      	ldr	r3, [r3, #0]
 8007e32:	689b      	ldr	r3, [r3, #8]
 8007e34:	4a9f      	ldr	r2, [pc, #636]	; (80080b4 <UART_SetConfig+0x2f0>)
 8007e36:	4013      	ands	r3, r2
 8007e38:	0019      	movs	r1, r3
 8007e3a:	687b      	ldr	r3, [r7, #4]
 8007e3c:	681b      	ldr	r3, [r3, #0]
 8007e3e:	693a      	ldr	r2, [r7, #16]
 8007e40:	430a      	orrs	r2, r1
 8007e42:	609a      	str	r2, [r3, #8]


  /*-------------------------- USART BRR Configuration -----------------------*/
  UART_GETCLOCKSOURCE(huart, clocksource);
 8007e44:	687b      	ldr	r3, [r7, #4]
 8007e46:	681b      	ldr	r3, [r3, #0]
 8007e48:	4a9b      	ldr	r2, [pc, #620]	; (80080b8 <UART_SetConfig+0x2f4>)
 8007e4a:	4293      	cmp	r3, r2
 8007e4c:	d125      	bne.n	8007e9a <UART_SetConfig+0xd6>
 8007e4e:	4b9b      	ldr	r3, [pc, #620]	; (80080bc <UART_SetConfig+0x2f8>)
 8007e50:	6b1b      	ldr	r3, [r3, #48]	; 0x30
 8007e52:	2203      	movs	r2, #3
 8007e54:	4013      	ands	r3, r2
 8007e56:	2b01      	cmp	r3, #1
 8007e58:	d00f      	beq.n	8007e7a <UART_SetConfig+0xb6>
 8007e5a:	d304      	bcc.n	8007e66 <UART_SetConfig+0xa2>
 8007e5c:	2b02      	cmp	r3, #2
 8007e5e:	d011      	beq.n	8007e84 <UART_SetConfig+0xc0>
 8007e60:	2b03      	cmp	r3, #3
 8007e62:	d005      	beq.n	8007e70 <UART_SetConfig+0xac>
 8007e64:	e013      	b.n	8007e8e <UART_SetConfig+0xca>
 8007e66:	231f      	movs	r3, #31
 8007e68:	18fb      	adds	r3, r7, r3
 8007e6a:	2200      	movs	r2, #0
 8007e6c:	701a      	strb	r2, [r3, #0]
 8007e6e:	e022      	b.n	8007eb6 <UART_SetConfig+0xf2>
 8007e70:	231f      	movs	r3, #31
 8007e72:	18fb      	adds	r3, r7, r3
 8007e74:	2202      	movs	r2, #2
 8007e76:	701a      	strb	r2, [r3, #0]
 8007e78:	e01d      	b.n	8007eb6 <UART_SetConfig+0xf2>
 8007e7a:	231f      	movs	r3, #31
 8007e7c:	18fb      	adds	r3, r7, r3
 8007e7e:	2204      	movs	r2, #4
 8007e80:	701a      	strb	r2, [r3, #0]
 8007e82:	e018      	b.n	8007eb6 <UART_SetConfig+0xf2>
 8007e84:	231f      	movs	r3, #31
 8007e86:	18fb      	adds	r3, r7, r3
 8007e88:	2208      	movs	r2, #8
 8007e8a:	701a      	strb	r2, [r3, #0]
 8007e8c:	e013      	b.n	8007eb6 <UART_SetConfig+0xf2>
 8007e8e:	231f      	movs	r3, #31
 8007e90:	18fb      	adds	r3, r7, r3
 8007e92:	2210      	movs	r2, #16
 8007e94:	701a      	strb	r2, [r3, #0]
 8007e96:	46c0      	nop			; (mov r8, r8)
 8007e98:	e00d      	b.n	8007eb6 <UART_SetConfig+0xf2>
 8007e9a:	687b      	ldr	r3, [r7, #4]
 8007e9c:	681b      	ldr	r3, [r3, #0]
 8007e9e:	4a88      	ldr	r2, [pc, #544]	; (80080c0 <UART_SetConfig+0x2fc>)
 8007ea0:	4293      	cmp	r3, r2
 8007ea2:	d104      	bne.n	8007eae <UART_SetConfig+0xea>
 8007ea4:	231f      	movs	r3, #31
 8007ea6:	18fb      	adds	r3, r7, r3
 8007ea8:	2200      	movs	r2, #0
 8007eaa:	701a      	strb	r2, [r3, #0]
 8007eac:	e003      	b.n	8007eb6 <UART_SetConfig+0xf2>
 8007eae:	231f      	movs	r3, #31
 8007eb0:	18fb      	adds	r3, r7, r3
 8007eb2:	2210      	movs	r2, #16
 8007eb4:	701a      	strb	r2, [r3, #0]

  if (huart->Init.OverSampling == UART_OVERSAMPLING_8)
 8007eb6:	687b      	ldr	r3, [r7, #4]
 8007eb8:	69da      	ldr	r2, [r3, #28]
 8007eba:	2380      	movs	r3, #128	; 0x80
 8007ebc:	021b      	lsls	r3, r3, #8
 8007ebe:	429a      	cmp	r2, r3
 8007ec0:	d000      	beq.n	8007ec4 <UART_SetConfig+0x100>
 8007ec2:	e07d      	b.n	8007fc0 <UART_SetConfig+0x1fc>
  {
    switch (clocksource)
 8007ec4:	231f      	movs	r3, #31
 8007ec6:	18fb      	adds	r3, r7, r3
 8007ec8:	781b      	ldrb	r3, [r3, #0]
 8007eca:	2b02      	cmp	r3, #2
 8007ecc:	d01c      	beq.n	8007f08 <UART_SetConfig+0x144>
 8007ece:	dc02      	bgt.n	8007ed6 <UART_SetConfig+0x112>
 8007ed0:	2b00      	cmp	r3, #0
 8007ed2:	d005      	beq.n	8007ee0 <UART_SetConfig+0x11c>
 8007ed4:	e04b      	b.n	8007f6e <UART_SetConfig+0x1aa>
 8007ed6:	2b04      	cmp	r3, #4
 8007ed8:	d025      	beq.n	8007f26 <UART_SetConfig+0x162>
 8007eda:	2b08      	cmp	r3, #8
 8007edc:	d037      	beq.n	8007f4e <UART_SetConfig+0x18a>
 8007ede:	e046      	b.n	8007f6e <UART_SetConfig+0x1aa>
    {
      case UART_CLOCKSOURCE_PCLK1:
        pclk = HAL_RCC_GetPCLK1Freq();
 8007ee0:	f7fe fc76 	bl	80067d0 <HAL_RCC_GetPCLK1Freq>
 8007ee4:	0003      	movs	r3, r0
 8007ee6:	60fb      	str	r3, [r7, #12]
        usartdiv = (uint16_t)(UART_DIV_SAMPLING8(pclk, huart->Init.BaudRate));
 8007ee8:	68fb      	ldr	r3, [r7, #12]
 8007eea:	005a      	lsls	r2, r3, #1
 8007eec:	687b      	ldr	r3, [r7, #4]
 8007eee:	685b      	ldr	r3, [r3, #4]
 8007ef0:	085b      	lsrs	r3, r3, #1
 8007ef2:	18d2      	adds	r2, r2, r3
 8007ef4:	687b      	ldr	r3, [r7, #4]
 8007ef6:	685b      	ldr	r3, [r3, #4]
 8007ef8:	0019      	movs	r1, r3
 8007efa:	0010      	movs	r0, r2
 8007efc:	f7f8 f904 	bl	8000108 <__udivsi3>
 8007f00:	0003      	movs	r3, r0
 8007f02:	b29b      	uxth	r3, r3
 8007f04:	61bb      	str	r3, [r7, #24]
        break;
 8007f06:	e037      	b.n	8007f78 <UART_SetConfig+0x1b4>
      case UART_CLOCKSOURCE_HSI:
        usartdiv = (uint16_t)(UART_DIV_SAMPLING8(HSI_VALUE, huart->Init.BaudRate));
 8007f08:	687b      	ldr	r3, [r7, #4]
 8007f0a:	685b      	ldr	r3, [r3, #4]
 8007f0c:	085b      	lsrs	r3, r3, #1
 8007f0e:	4a6d      	ldr	r2, [pc, #436]	; (80080c4 <UART_SetConfig+0x300>)
 8007f10:	189a      	adds	r2, r3, r2
 8007f12:	687b      	ldr	r3, [r7, #4]
 8007f14:	685b      	ldr	r3, [r3, #4]
 8007f16:	0019      	movs	r1, r3
 8007f18:	0010      	movs	r0, r2
 8007f1a:	f7f8 f8f5 	bl	8000108 <__udivsi3>
 8007f1e:	0003      	movs	r3, r0
 8007f20:	b29b      	uxth	r3, r3
 8007f22:	61bb      	str	r3, [r7, #24]
        break;
 8007f24:	e028      	b.n	8007f78 <UART_SetConfig+0x1b4>
      case UART_CLOCKSOURCE_SYSCLK:
        pclk = HAL_RCC_GetSysClockFreq();
 8007f26:	f7fe fbe5 	bl	80066f4 <HAL_RCC_GetSysClockFreq>
 8007f2a:	0003      	movs	r3, r0
 8007f2c:	60fb      	str	r3, [r7, #12]
        usartdiv = (uint16_t)(UART_DIV_SAMPLING8(pclk, huart->Init.BaudRate));
 8007f2e:	68fb      	ldr	r3, [r7, #12]
 8007f30:	005a      	lsls	r2, r3, #1
 8007f32:	687b      	ldr	r3, [r7, #4]
 8007f34:	685b      	ldr	r3, [r3, #4]
 8007f36:	085b      	lsrs	r3, r3, #1
 8007f38:	18d2      	adds	r2, r2, r3
 8007f3a:	687b      	ldr	r3, [r7, #4]
 8007f3c:	685b      	ldr	r3, [r3, #4]
 8007f3e:	0019      	movs	r1, r3
 8007f40:	0010      	movs	r0, r2
 8007f42:	f7f8 f8e1 	bl	8000108 <__udivsi3>
 8007f46:	0003      	movs	r3, r0
 8007f48:	b29b      	uxth	r3, r3
 8007f4a:	61bb      	str	r3, [r7, #24]
        break;
 8007f4c:	e014      	b.n	8007f78 <UART_SetConfig+0x1b4>
      case UART_CLOCKSOURCE_LSE:
        usartdiv = (uint16_t)(UART_DIV_SAMPLING8(LSE_VALUE, huart->Init.BaudRate));
 8007f4e:	687b      	ldr	r3, [r7, #4]
 8007f50:	685b      	ldr	r3, [r3, #4]
 8007f52:	085b      	lsrs	r3, r3, #1
 8007f54:	2280      	movs	r2, #128	; 0x80
 8007f56:	0252      	lsls	r2, r2, #9
 8007f58:	189a      	adds	r2, r3, r2
 8007f5a:	687b      	ldr	r3, [r7, #4]
 8007f5c:	685b      	ldr	r3, [r3, #4]
 8007f5e:	0019      	movs	r1, r3
 8007f60:	0010      	movs	r0, r2
 8007f62:	f7f8 f8d1 	bl	8000108 <__udivsi3>
 8007f66:	0003      	movs	r3, r0
 8007f68:	b29b      	uxth	r3, r3
 8007f6a:	61bb      	str	r3, [r7, #24]
        break;
 8007f6c:	e004      	b.n	8007f78 <UART_SetConfig+0x1b4>
      default:
        ret = HAL_ERROR;
 8007f6e:	2317      	movs	r3, #23
 8007f70:	18fb      	adds	r3, r7, r3
 8007f72:	2201      	movs	r2, #1
 8007f74:	701a      	strb	r2, [r3, #0]
        break;
 8007f76:	46c0      	nop			; (mov r8, r8)
    }

    /* USARTDIV must be greater than or equal to 0d16 */
    if ((usartdiv >= UART_BRR_MIN) && (usartdiv <= UART_BRR_MAX))
 8007f78:	69bb      	ldr	r3, [r7, #24]
 8007f7a:	2b0f      	cmp	r3, #15
 8007f7c:	d91b      	bls.n	8007fb6 <UART_SetConfig+0x1f2>
 8007f7e:	69bb      	ldr	r3, [r7, #24]
 8007f80:	4a51      	ldr	r2, [pc, #324]	; (80080c8 <UART_SetConfig+0x304>)
 8007f82:	4293      	cmp	r3, r2
 8007f84:	d817      	bhi.n	8007fb6 <UART_SetConfig+0x1f2>
    {
      brrtemp = (uint16_t)(usartdiv & 0xFFF0U);
 8007f86:	69bb      	ldr	r3, [r7, #24]
 8007f88:	b29a      	uxth	r2, r3
 8007f8a:	200a      	movs	r0, #10
 8007f8c:	183b      	adds	r3, r7, r0
 8007f8e:	210f      	movs	r1, #15
 8007f90:	438a      	bics	r2, r1
 8007f92:	801a      	strh	r2, [r3, #0]
      brrtemp |= (uint16_t)((usartdiv & (uint16_t)0x000FU) >> 1U);
 8007f94:	69bb      	ldr	r3, [r7, #24]
 8007f96:	085b      	lsrs	r3, r3, #1
 8007f98:	b29b      	uxth	r3, r3
 8007f9a:	2207      	movs	r2, #7
 8007f9c:	4013      	ands	r3, r2
 8007f9e:	b299      	uxth	r1, r3
 8007fa0:	183b      	adds	r3, r7, r0
 8007fa2:	183a      	adds	r2, r7, r0
 8007fa4:	8812      	ldrh	r2, [r2, #0]
 8007fa6:	430a      	orrs	r2, r1
 8007fa8:	801a      	strh	r2, [r3, #0]
      huart->Instance->BRR = brrtemp;
 8007faa:	687b      	ldr	r3, [r7, #4]
 8007fac:	681b      	ldr	r3, [r3, #0]
 8007fae:	183a      	adds	r2, r7, r0
 8007fb0:	8812      	ldrh	r2, [r2, #0]
 8007fb2:	60da      	str	r2, [r3, #12]
 8007fb4:	e06c      	b.n	8008090 <UART_SetConfig+0x2cc>
    }
    else
    {
      ret = HAL_ERROR;
 8007fb6:	2317      	movs	r3, #23
 8007fb8:	18fb      	adds	r3, r7, r3
 8007fba:	2201      	movs	r2, #1
 8007fbc:	701a      	strb	r2, [r3, #0]
 8007fbe:	e067      	b.n	8008090 <UART_SetConfig+0x2cc>
    }
  }
  else
  {
    switch (clocksource)
 8007fc0:	231f      	movs	r3, #31
 8007fc2:	18fb      	adds	r3, r7, r3
 8007fc4:	781b      	ldrb	r3, [r3, #0]
 8007fc6:	2b02      	cmp	r3, #2
 8007fc8:	d01b      	beq.n	8008002 <UART_SetConfig+0x23e>
 8007fca:	dc02      	bgt.n	8007fd2 <UART_SetConfig+0x20e>
 8007fcc:	2b00      	cmp	r3, #0
 8007fce:	d005      	beq.n	8007fdc <UART_SetConfig+0x218>
 8007fd0:	e049      	b.n	8008066 <UART_SetConfig+0x2a2>
 8007fd2:	2b04      	cmp	r3, #4
 8007fd4:	d024      	beq.n	8008020 <UART_SetConfig+0x25c>
 8007fd6:	2b08      	cmp	r3, #8
 8007fd8:	d035      	beq.n	8008046 <UART_SetConfig+0x282>
 8007fda:	e044      	b.n	8008066 <UART_SetConfig+0x2a2>
    {
      case UART_CLOCKSOURCE_PCLK1:
        pclk = HAL_RCC_GetPCLK1Freq();
 8007fdc:	f7fe fbf8 	bl	80067d0 <HAL_RCC_GetPCLK1Freq>
 8007fe0:	0003      	movs	r3, r0
 8007fe2:	60fb      	str	r3, [r7, #12]
        usartdiv = (uint16_t)(UART_DIV_SAMPLING16(pclk, huart->Init.BaudRate));
 8007fe4:	687b      	ldr	r3, [r7, #4]
 8007fe6:	685b      	ldr	r3, [r3, #4]
 8007fe8:	085a      	lsrs	r2, r3, #1
 8007fea:	68fb      	ldr	r3, [r7, #12]
 8007fec:	18d2      	adds	r2, r2, r3
 8007fee:	687b      	ldr	r3, [r7, #4]
 8007ff0:	685b      	ldr	r3, [r3, #4]
 8007ff2:	0019      	movs	r1, r3
 8007ff4:	0010      	movs	r0, r2
 8007ff6:	f7f8 f887 	bl	8000108 <__udivsi3>
 8007ffa:	0003      	movs	r3, r0
 8007ffc:	b29b      	uxth	r3, r3
 8007ffe:	61bb      	str	r3, [r7, #24]
        break;
 8008000:	e036      	b.n	8008070 <UART_SetConfig+0x2ac>
      case UART_CLOCKSOURCE_HSI:
        usartdiv = (uint16_t)(UART_DIV_SAMPLING16(HSI_VALUE, huart->Init.BaudRate));
 8008002:	687b      	ldr	r3, [r7, #4]
 8008004:	685b      	ldr	r3, [r3, #4]
 8008006:	085b      	lsrs	r3, r3, #1
 8008008:	4a30      	ldr	r2, [pc, #192]	; (80080cc <UART_SetConfig+0x308>)
 800800a:	189a      	adds	r2, r3, r2
 800800c:	687b      	ldr	r3, [r7, #4]
 800800e:	685b      	ldr	r3, [r3, #4]
 8008010:	0019      	movs	r1, r3
 8008012:	0010      	movs	r0, r2
 8008014:	f7f8 f878 	bl	8000108 <__udivsi3>
 8008018:	0003      	movs	r3, r0
 800801a:	b29b      	uxth	r3, r3
 800801c:	61bb      	str	r3, [r7, #24]
        break;
 800801e:	e027      	b.n	8008070 <UART_SetConfig+0x2ac>
      case UART_CLOCKSOURCE_SYSCLK:
        pclk = HAL_RCC_GetSysClockFreq();
 8008020:	f7fe fb68 	bl	80066f4 <HAL_RCC_GetSysClockFreq>
 8008024:	0003      	movs	r3, r0
 8008026:	60fb      	str	r3, [r7, #12]
        usartdiv = (uint16_t)(UART_DIV_SAMPLING16(pclk, huart->Init.BaudRate));
 8008028:	687b      	ldr	r3, [r7, #4]
 800802a:	685b      	ldr	r3, [r3, #4]
 800802c:	085a      	lsrs	r2, r3, #1
 800802e:	68fb      	ldr	r3, [r7, #12]
 8008030:	18d2      	adds	r2, r2, r3
 8008032:	687b      	ldr	r3, [r7, #4]
 8008034:	685b      	ldr	r3, [r3, #4]
 8008036:	0019      	movs	r1, r3
 8008038:	0010      	movs	r0, r2
 800803a:	f7f8 f865 	bl	8000108 <__udivsi3>
 800803e:	0003      	movs	r3, r0
 8008040:	b29b      	uxth	r3, r3
 8008042:	61bb      	str	r3, [r7, #24]
        break;
 8008044:	e014      	b.n	8008070 <UART_SetConfig+0x2ac>
      case UART_CLOCKSOURCE_LSE:
        usartdiv = (uint16_t)(UART_DIV_SAMPLING16(LSE_VALUE, huart->Init.BaudRate));
 8008046:	687b      	ldr	r3, [r7, #4]
 8008048:	685b      	ldr	r3, [r3, #4]
 800804a:	085b      	lsrs	r3, r3, #1
 800804c:	2280      	movs	r2, #128	; 0x80
 800804e:	0212      	lsls	r2, r2, #8
 8008050:	189a      	adds	r2, r3, r2
 8008052:	687b      	ldr	r3, [r7, #4]
 8008054:	685b      	ldr	r3, [r3, #4]
 8008056:	0019      	movs	r1, r3
 8008058:	0010      	movs	r0, r2
 800805a:	f7f8 f855 	bl	8000108 <__udivsi3>
 800805e:	0003      	movs	r3, r0
 8008060:	b29b      	uxth	r3, r3
 8008062:	61bb      	str	r3, [r7, #24]
        break;
 8008064:	e004      	b.n	8008070 <UART_SetConfig+0x2ac>
      default:
        ret = HAL_ERROR;
 8008066:	2317      	movs	r3, #23
 8008068:	18fb      	adds	r3, r7, r3
 800806a:	2201      	movs	r2, #1
 800806c:	701a      	strb	r2, [r3, #0]
        break;
 800806e:	46c0      	nop			; (mov r8, r8)
    }

    /* USARTDIV must be greater than or equal to 0d16 */
    if ((usartdiv >= UART_BRR_MIN) && (usartdiv <= UART_BRR_MAX))
 8008070:	69bb      	ldr	r3, [r7, #24]
 8008072:	2b0f      	cmp	r3, #15
 8008074:	d908      	bls.n	8008088 <UART_SetConfig+0x2c4>
 8008076:	69bb      	ldr	r3, [r7, #24]
 8008078:	4a13      	ldr	r2, [pc, #76]	; (80080c8 <UART_SetConfig+0x304>)
 800807a:	4293      	cmp	r3, r2
 800807c:	d804      	bhi.n	8008088 <UART_SetConfig+0x2c4>
    {
      huart->Instance->BRR = usartdiv;
 800807e:	687b      	ldr	r3, [r7, #4]
 8008080:	681b      	ldr	r3, [r3, #0]
 8008082:	69ba      	ldr	r2, [r7, #24]
 8008084:	60da      	str	r2, [r3, #12]
 8008086:	e003      	b.n	8008090 <UART_SetConfig+0x2cc>
    }
    else
    {
      ret = HAL_ERROR;
 8008088:	2317      	movs	r3, #23
 800808a:	18fb      	adds	r3, r7, r3
 800808c:	2201      	movs	r2, #1
 800808e:	701a      	strb	r2, [r3, #0]
    }
  }


  /* Clear ISR function pointers */
  huart->RxISR = NULL;
 8008090:	687b      	ldr	r3, [r7, #4]
 8008092:	2200      	movs	r2, #0
 8008094:	661a      	str	r2, [r3, #96]	; 0x60
  huart->TxISR = NULL;
 8008096:	687b      	ldr	r3, [r7, #4]
 8008098:	2200      	movs	r2, #0
 800809a:	665a      	str	r2, [r3, #100]	; 0x64

  return ret;
 800809c:	2317      	movs	r3, #23
 800809e:	18fb      	adds	r3, r7, r3
 80080a0:	781b      	ldrb	r3, [r3, #0]
}
 80080a2:	0018      	movs	r0, r3
 80080a4:	46bd      	mov	sp, r7
 80080a6:	b008      	add	sp, #32
 80080a8:	bd80      	pop	{r7, pc}
 80080aa:	46c0      	nop			; (mov r8, r8)
 80080ac:	ffff69f3 	.word	0xffff69f3
 80080b0:	ffffcfff 	.word	0xffffcfff
 80080b4:	fffff4ff 	.word	0xfffff4ff
 80080b8:	40013800 	.word	0x40013800
 80080bc:	40021000 	.word	0x40021000
 80080c0:	40004400 	.word	0x40004400
 80080c4:	00f42400 	.word	0x00f42400
 80080c8:	0000ffff 	.word	0x0000ffff
 80080cc:	007a1200 	.word	0x007a1200

080080d0 <UART_AdvFeatureConfig>:
  * @brief Configure the UART peripheral advanced features.
  * @param huart UART handle.
  * @retval None
  */
void UART_AdvFeatureConfig(UART_HandleTypeDef *huart)
{
 80080d0:	b580      	push	{r7, lr}
 80080d2:	b082      	sub	sp, #8
 80080d4:	af00      	add	r7, sp, #0
 80080d6:	6078      	str	r0, [r7, #4]
  /* Check whether the set of advanced features to configure is properly set */
  assert_param(IS_UART_ADVFEATURE_INIT(huart->AdvancedInit.AdvFeatureInit));

  /* if required, configure TX pin active level inversion */
  if (HAL_IS_BIT_SET(huart->AdvancedInit.AdvFeatureInit, UART_ADVFEATURE_TXINVERT_INIT))
 80080d8:	687b      	ldr	r3, [r7, #4]
 80080da:	6a5b      	ldr	r3, [r3, #36]	; 0x24
 80080dc:	2201      	movs	r2, #1
 80080de:	4013      	ands	r3, r2
 80080e0:	d00b      	beq.n	80080fa <UART_AdvFeatureConfig+0x2a>
  {
    assert_param(IS_UART_ADVFEATURE_TXINV(huart->AdvancedInit.TxPinLevelInvert));
    MODIFY_REG(huart->Instance->CR2, USART_CR2_TXINV, huart->AdvancedInit.TxPinLevelInvert);
 80080e2:	687b      	ldr	r3, [r7, #4]
 80080e4:	681b      	ldr	r3, [r3, #0]
 80080e6:	685b      	ldr	r3, [r3, #4]
 80080e8:	4a4a      	ldr	r2, [pc, #296]	; (8008214 <UART_AdvFeatureConfig+0x144>)
 80080ea:	4013      	ands	r3, r2
 80080ec:	0019      	movs	r1, r3
 80080ee:	687b      	ldr	r3, [r7, #4]
 80080f0:	6a9a      	ldr	r2, [r3, #40]	; 0x28
 80080f2:	687b      	ldr	r3, [r7, #4]
 80080f4:	681b      	ldr	r3, [r3, #0]
 80080f6:	430a      	orrs	r2, r1
 80080f8:	605a      	str	r2, [r3, #4]
  }

  /* if required, configure RX pin active level inversion */
  if (HAL_IS_BIT_SET(huart->AdvancedInit.AdvFeatureInit, UART_ADVFEATURE_RXINVERT_INIT))
 80080fa:	687b      	ldr	r3, [r7, #4]
 80080fc:	6a5b      	ldr	r3, [r3, #36]	; 0x24
 80080fe:	2202      	movs	r2, #2
 8008100:	4013      	ands	r3, r2
 8008102:	d00b      	beq.n	800811c <UART_AdvFeatureConfig+0x4c>
  {
    assert_param(IS_UART_ADVFEATURE_RXINV(huart->AdvancedInit.RxPinLevelInvert));
    MODIFY_REG(huart->Instance->CR2, USART_CR2_RXINV, huart->AdvancedInit.RxPinLevelInvert);
 8008104:	687b      	ldr	r3, [r7, #4]
 8008106:	681b      	ldr	r3, [r3, #0]
 8008108:	685b      	ldr	r3, [r3, #4]
 800810a:	4a43      	ldr	r2, [pc, #268]	; (8008218 <UART_AdvFeatureConfig+0x148>)
 800810c:	4013      	ands	r3, r2
 800810e:	0019      	movs	r1, r3
 8008110:	687b      	ldr	r3, [r7, #4]
 8008112:	6ada      	ldr	r2, [r3, #44]	; 0x2c
 8008114:	687b      	ldr	r3, [r7, #4]
 8008116:	681b      	ldr	r3, [r3, #0]
 8008118:	430a      	orrs	r2, r1
 800811a:	605a      	str	r2, [r3, #4]
  }

  /* if required, configure data inversion */
  if (HAL_IS_BIT_SET(huart->AdvancedInit.AdvFeatureInit, UART_ADVFEATURE_DATAINVERT_INIT))
 800811c:	687b      	ldr	r3, [r7, #4]
 800811e:	6a5b      	ldr	r3, [r3, #36]	; 0x24
 8008120:	2204      	movs	r2, #4
 8008122:	4013      	ands	r3, r2
 8008124:	d00b      	beq.n	800813e <UART_AdvFeatureConfig+0x6e>
  {
    assert_param(IS_UART_ADVFEATURE_DATAINV(huart->AdvancedInit.DataInvert));
    MODIFY_REG(huart->Instance->CR2, USART_CR2_DATAINV, huart->AdvancedInit.DataInvert);
 8008126:	687b      	ldr	r3, [r7, #4]
 8008128:	681b      	ldr	r3, [r3, #0]
 800812a:	685b      	ldr	r3, [r3, #4]
 800812c:	4a3b      	ldr	r2, [pc, #236]	; (800821c <UART_AdvFeatureConfig+0x14c>)
 800812e:	4013      	ands	r3, r2
 8008130:	0019      	movs	r1, r3
 8008132:	687b      	ldr	r3, [r7, #4]
 8008134:	6b1a      	ldr	r2, [r3, #48]	; 0x30
 8008136:	687b      	ldr	r3, [r7, #4]
 8008138:	681b      	ldr	r3, [r3, #0]
 800813a:	430a      	orrs	r2, r1
 800813c:	605a      	str	r2, [r3, #4]
  }

  /* if required, configure RX/TX pins swap */
  if (HAL_IS_BIT_SET(huart->AdvancedInit.AdvFeatureInit, UART_ADVFEATURE_SWAP_INIT))
 800813e:	687b      	ldr	r3, [r7, #4]
 8008140:	6a5b      	ldr	r3, [r3, #36]	; 0x24
 8008142:	2208      	movs	r2, #8
 8008144:	4013      	ands	r3, r2
 8008146:	d00b      	beq.n	8008160 <UART_AdvFeatureConfig+0x90>
  {
    assert_param(IS_UART_ADVFEATURE_SWAP(huart->AdvancedInit.Swap));
    MODIFY_REG(huart->Instance->CR2, USART_CR2_SWAP, huart->AdvancedInit.Swap);
 8008148:	687b      	ldr	r3, [r7, #4]
 800814a:	681b      	ldr	r3, [r3, #0]
 800814c:	685b      	ldr	r3, [r3, #4]
 800814e:	4a34      	ldr	r2, [pc, #208]	; (8008220 <UART_AdvFeatureConfig+0x150>)
 8008150:	4013      	ands	r3, r2
 8008152:	0019      	movs	r1, r3
 8008154:	687b      	ldr	r3, [r7, #4]
 8008156:	6b5a      	ldr	r2, [r3, #52]	; 0x34
 8008158:	687b      	ldr	r3, [r7, #4]
 800815a:	681b      	ldr	r3, [r3, #0]
 800815c:	430a      	orrs	r2, r1
 800815e:	605a      	str	r2, [r3, #4]
  }

  /* if required, configure RX overrun detection disabling */
  if (HAL_IS_BIT_SET(huart->AdvancedInit.AdvFeatureInit, UART_ADVFEATURE_RXOVERRUNDISABLE_INIT))
 8008160:	687b      	ldr	r3, [r7, #4]
 8008162:	6a5b      	ldr	r3, [r3, #36]	; 0x24
 8008164:	2210      	movs	r2, #16
 8008166:	4013      	ands	r3, r2
 8008168:	d00b      	beq.n	8008182 <UART_AdvFeatureConfig+0xb2>
  {
    assert_param(IS_UART_OVERRUN(huart->AdvancedInit.OverrunDisable));
    MODIFY_REG(huart->Instance->CR3, USART_CR3_OVRDIS, huart->AdvancedInit.OverrunDisable);
 800816a:	687b      	ldr	r3, [r7, #4]
 800816c:	681b      	ldr	r3, [r3, #0]
 800816e:	689b      	ldr	r3, [r3, #8]
 8008170:	4a2c      	ldr	r2, [pc, #176]	; (8008224 <UART_AdvFeatureConfig+0x154>)
 8008172:	4013      	ands	r3, r2
 8008174:	0019      	movs	r1, r3
 8008176:	687b      	ldr	r3, [r7, #4]
 8008178:	6b9a      	ldr	r2, [r3, #56]	; 0x38
 800817a:	687b      	ldr	r3, [r7, #4]
 800817c:	681b      	ldr	r3, [r3, #0]
 800817e:	430a      	orrs	r2, r1
 8008180:	609a      	str	r2, [r3, #8]
  }

  /* if required, configure DMA disabling on reception error */
  if (HAL_IS_BIT_SET(huart->AdvancedInit.AdvFeatureInit, UART_ADVFEATURE_DMADISABLEONERROR_INIT))
 8008182:	687b      	ldr	r3, [r7, #4]
 8008184:	6a5b      	ldr	r3, [r3, #36]	; 0x24
 8008186:	2220      	movs	r2, #32
 8008188:	4013      	ands	r3, r2
 800818a:	d00b      	beq.n	80081a4 <UART_AdvFeatureConfig+0xd4>
  {
    assert_param(IS_UART_ADVFEATURE_DMAONRXERROR(huart->AdvancedInit.DMADisableonRxError));
    MODIFY_REG(huart->Instance->CR3, USART_CR3_DDRE, huart->AdvancedInit.DMADisableonRxError);
 800818c:	687b      	ldr	r3, [r7, #4]
 800818e:	681b      	ldr	r3, [r3, #0]
 8008190:	689b      	ldr	r3, [r3, #8]
 8008192:	4a25      	ldr	r2, [pc, #148]	; (8008228 <UART_AdvFeatureConfig+0x158>)
 8008194:	4013      	ands	r3, r2
 8008196:	0019      	movs	r1, r3
 8008198:	687b      	ldr	r3, [r7, #4]
 800819a:	6bda      	ldr	r2, [r3, #60]	; 0x3c
 800819c:	687b      	ldr	r3, [r7, #4]
 800819e:	681b      	ldr	r3, [r3, #0]
 80081a0:	430a      	orrs	r2, r1
 80081a2:	609a      	str	r2, [r3, #8]
  }

  /* if required, configure auto Baud rate detection scheme */
  if (HAL_IS_BIT_SET(huart->AdvancedInit.AdvFeatureInit, UART_ADVFEATURE_AUTOBAUDRATE_INIT))
 80081a4:	687b      	ldr	r3, [r7, #4]
 80081a6:	6a5b      	ldr	r3, [r3, #36]	; 0x24
 80081a8:	2240      	movs	r2, #64	; 0x40
 80081aa:	4013      	ands	r3, r2
 80081ac:	d01d      	beq.n	80081ea <UART_AdvFeatureConfig+0x11a>
  {
    assert_param(IS_USART_AUTOBAUDRATE_DETECTION_INSTANCE(huart->Instance));
    assert_param(IS_UART_ADVFEATURE_AUTOBAUDRATE(huart->AdvancedInit.AutoBaudRateEnable));
    MODIFY_REG(huart->Instance->CR2, USART_CR2_ABREN, huart->AdvancedInit.AutoBaudRateEnable);
 80081ae:	687b      	ldr	r3, [r7, #4]
 80081b0:	681b      	ldr	r3, [r3, #0]
 80081b2:	685b      	ldr	r3, [r3, #4]
 80081b4:	4a1d      	ldr	r2, [pc, #116]	; (800822c <UART_AdvFeatureConfig+0x15c>)
 80081b6:	4013      	ands	r3, r2
 80081b8:	0019      	movs	r1, r3
 80081ba:	687b      	ldr	r3, [r7, #4]
 80081bc:	6c1a      	ldr	r2, [r3, #64]	; 0x40
 80081be:	687b      	ldr	r3, [r7, #4]
 80081c0:	681b      	ldr	r3, [r3, #0]
 80081c2:	430a      	orrs	r2, r1
 80081c4:	605a      	str	r2, [r3, #4]
    /* set auto Baudrate detection parameters if detection is enabled */
    if (huart->AdvancedInit.AutoBaudRateEnable == UART_ADVFEATURE_AUTOBAUDRATE_ENABLE)
 80081c6:	687b      	ldr	r3, [r7, #4]
 80081c8:	6c1a      	ldr	r2, [r3, #64]	; 0x40
 80081ca:	2380      	movs	r3, #128	; 0x80
 80081cc:	035b      	lsls	r3, r3, #13
 80081ce:	429a      	cmp	r2, r3
 80081d0:	d10b      	bne.n	80081ea <UART_AdvFeatureConfig+0x11a>
    {
      assert_param(IS_UART_ADVFEATURE_AUTOBAUDRATEMODE(huart->AdvancedInit.AutoBaudRateMode));
      MODIFY_REG(huart->Instance->CR2, USART_CR2_ABRMODE, huart->AdvancedInit.AutoBaudRateMode);
 80081d2:	687b      	ldr	r3, [r7, #4]
 80081d4:	681b      	ldr	r3, [r3, #0]
 80081d6:	685b      	ldr	r3, [r3, #4]
 80081d8:	4a15      	ldr	r2, [pc, #84]	; (8008230 <UART_AdvFeatureConfig+0x160>)
 80081da:	4013      	ands	r3, r2
 80081dc:	0019      	movs	r1, r3
 80081de:	687b      	ldr	r3, [r7, #4]
 80081e0:	6c5a      	ldr	r2, [r3, #68]	; 0x44
 80081e2:	687b      	ldr	r3, [r7, #4]
 80081e4:	681b      	ldr	r3, [r3, #0]
 80081e6:	430a      	orrs	r2, r1
 80081e8:	605a      	str	r2, [r3, #4]
    }
  }

  /* if required, configure MSB first on communication line */
  if (HAL_IS_BIT_SET(huart->AdvancedInit.AdvFeatureInit, UART_ADVFEATURE_MSBFIRST_INIT))
 80081ea:	687b      	ldr	r3, [r7, #4]
 80081ec:	6a5b      	ldr	r3, [r3, #36]	; 0x24
 80081ee:	2280      	movs	r2, #128	; 0x80
 80081f0:	4013      	ands	r3, r2
 80081f2:	d00b      	beq.n	800820c <UART_AdvFeatureConfig+0x13c>
  {
    assert_param(IS_UART_ADVFEATURE_MSBFIRST(huart->AdvancedInit.MSBFirst));
    MODIFY_REG(huart->Instance->CR2, USART_CR2_MSBFIRST, huart->AdvancedInit.MSBFirst);
 80081f4:	687b      	ldr	r3, [r7, #4]
 80081f6:	681b      	ldr	r3, [r3, #0]
 80081f8:	685b      	ldr	r3, [r3, #4]
 80081fa:	4a0e      	ldr	r2, [pc, #56]	; (8008234 <UART_AdvFeatureConfig+0x164>)
 80081fc:	4013      	ands	r3, r2
 80081fe:	0019      	movs	r1, r3
 8008200:	687b      	ldr	r3, [r7, #4]
 8008202:	6c9a      	ldr	r2, [r3, #72]	; 0x48
 8008204:	687b      	ldr	r3, [r7, #4]
 8008206:	681b      	ldr	r3, [r3, #0]
 8008208:	430a      	orrs	r2, r1
 800820a:	605a      	str	r2, [r3, #4]
  }
}
 800820c:	46c0      	nop			; (mov r8, r8)
 800820e:	46bd      	mov	sp, r7
 8008210:	b002      	add	sp, #8
 8008212:	bd80      	pop	{r7, pc}
 8008214:	fffdffff 	.word	0xfffdffff
 8008218:	fffeffff 	.word	0xfffeffff
 800821c:	fffbffff 	.word	0xfffbffff
 8008220:	ffff7fff 	.word	0xffff7fff
 8008224:	ffffefff 	.word	0xffffefff
 8008228:	ffffdfff 	.word	0xffffdfff
 800822c:	ffefffff 	.word	0xffefffff
 8008230:	ff9fffff 	.word	0xff9fffff
 8008234:	fff7ffff 	.word	0xfff7ffff

08008238 <UART_CheckIdleState>:
  * @brief Check the UART Idle State.
  * @param huart UART handle.
  * @retval HAL status
  */
HAL_StatusTypeDef UART_CheckIdleState(UART_HandleTypeDef *huart)
{
 8008238:	b580      	push	{r7, lr}
 800823a:	b086      	sub	sp, #24
 800823c:	af02      	add	r7, sp, #8
 800823e:	6078      	str	r0, [r7, #4]
  uint32_t tickstart;

  /* Initialize the UART ErrorCode */
  huart->ErrorCode = HAL_UART_ERROR_NONE;
 8008240:	687b      	ldr	r3, [r7, #4]
 8008242:	2200      	movs	r2, #0
 8008244:	67da      	str	r2, [r3, #124]	; 0x7c

  /* Init tickstart for timeout managment*/
  tickstart = HAL_GetTick();
 8008246:	f7fc f9c7 	bl	80045d8 <HAL_GetTick>
 800824a:	0003      	movs	r3, r0
 800824c:	60fb      	str	r3, [r7, #12]

  /* Check if the Transmitter is enabled */
  if ((huart->Instance->CR1 & USART_CR1_TE) == USART_CR1_TE)
 800824e:	687b      	ldr	r3, [r7, #4]
 8008250:	681b      	ldr	r3, [r3, #0]
 8008252:	681b      	ldr	r3, [r3, #0]
 8008254:	2208      	movs	r2, #8
 8008256:	4013      	ands	r3, r2
 8008258:	2b08      	cmp	r3, #8
 800825a:	d10d      	bne.n	8008278 <UART_CheckIdleState+0x40>
  {
    /* Wait until TEACK flag is set */
    if (UART_WaitOnFlagUntilTimeout(huart, USART_ISR_TEACK, RESET, tickstart, HAL_UART_TIMEOUT_VALUE) != HAL_OK)
 800825c:	68fa      	ldr	r2, [r7, #12]
 800825e:	2380      	movs	r3, #128	; 0x80
 8008260:	0399      	lsls	r1, r3, #14
 8008262:	6878      	ldr	r0, [r7, #4]
 8008264:	4b16      	ldr	r3, [pc, #88]	; (80082c0 <UART_CheckIdleState+0x88>)
 8008266:	9300      	str	r3, [sp, #0]
 8008268:	0013      	movs	r3, r2
 800826a:	2200      	movs	r2, #0
 800826c:	f000 f82a 	bl	80082c4 <UART_WaitOnFlagUntilTimeout>
 8008270:	1e03      	subs	r3, r0, #0
 8008272:	d001      	beq.n	8008278 <UART_CheckIdleState+0x40>
    {
      /* Timeout occurred */
      return HAL_TIMEOUT;
 8008274:	2303      	movs	r3, #3
 8008276:	e01f      	b.n	80082b8 <UART_CheckIdleState+0x80>
    }
  }

  /* Check if the Receiver is enabled */
  if ((huart->Instance->CR1 & USART_CR1_RE) == USART_CR1_RE)
 8008278:	687b      	ldr	r3, [r7, #4]
 800827a:	681b      	ldr	r3, [r3, #0]
 800827c:	681b      	ldr	r3, [r3, #0]
 800827e:	2204      	movs	r2, #4
 8008280:	4013      	ands	r3, r2
 8008282:	2b04      	cmp	r3, #4
 8008284:	d10d      	bne.n	80082a2 <UART_CheckIdleState+0x6a>
  {
    /* Wait until REACK flag is set */
    if (UART_WaitOnFlagUntilTimeout(huart, USART_ISR_REACK, RESET, tickstart, HAL_UART_TIMEOUT_VALUE) != HAL_OK)
 8008286:	68fa      	ldr	r2, [r7, #12]
 8008288:	2380      	movs	r3, #128	; 0x80
 800828a:	03d9      	lsls	r1, r3, #15
 800828c:	6878      	ldr	r0, [r7, #4]
 800828e:	4b0c      	ldr	r3, [pc, #48]	; (80082c0 <UART_CheckIdleState+0x88>)
 8008290:	9300      	str	r3, [sp, #0]
 8008292:	0013      	movs	r3, r2
 8008294:	2200      	movs	r2, #0
 8008296:	f000 f815 	bl	80082c4 <UART_WaitOnFlagUntilTimeout>
 800829a:	1e03      	subs	r3, r0, #0
 800829c:	d001      	beq.n	80082a2 <UART_CheckIdleState+0x6a>
    {
      /* Timeout occurred */
      return HAL_TIMEOUT;
 800829e:	2303      	movs	r3, #3
 80082a0:	e00a      	b.n	80082b8 <UART_CheckIdleState+0x80>
    }
  }

  /* Initialize the UART State */
  huart->gState = HAL_UART_STATE_READY;
 80082a2:	687b      	ldr	r3, [r7, #4]
 80082a4:	2220      	movs	r2, #32
 80082a6:	675a      	str	r2, [r3, #116]	; 0x74
  huart->RxState = HAL_UART_STATE_READY;
 80082a8:	687b      	ldr	r3, [r7, #4]
 80082aa:	2220      	movs	r2, #32
 80082ac:	679a      	str	r2, [r3, #120]	; 0x78

  __HAL_UNLOCK(huart);
 80082ae:	687b      	ldr	r3, [r7, #4]
 80082b0:	2270      	movs	r2, #112	; 0x70
 80082b2:	2100      	movs	r1, #0
 80082b4:	5499      	strb	r1, [r3, r2]

  return HAL_OK;
 80082b6:	2300      	movs	r3, #0
}
 80082b8:	0018      	movs	r0, r3
 80082ba:	46bd      	mov	sp, r7
 80082bc:	b004      	add	sp, #16
 80082be:	bd80      	pop	{r7, pc}
 80082c0:	01ffffff 	.word	0x01ffffff

080082c4 <UART_WaitOnFlagUntilTimeout>:
  * @param Timeout   Timeout duration
  * @retval HAL status
  */
HAL_StatusTypeDef UART_WaitOnFlagUntilTimeout(UART_HandleTypeDef *huart, uint32_t Flag, FlagStatus Status,
                                              uint32_t Tickstart, uint32_t Timeout)
{
 80082c4:	b580      	push	{r7, lr}
 80082c6:	b084      	sub	sp, #16
 80082c8:	af00      	add	r7, sp, #0
 80082ca:	60f8      	str	r0, [r7, #12]
 80082cc:	60b9      	str	r1, [r7, #8]
 80082ce:	603b      	str	r3, [r7, #0]
 80082d0:	1dfb      	adds	r3, r7, #7
 80082d2:	701a      	strb	r2, [r3, #0]
  /* Wait until flag is set */
  while ((__HAL_UART_GET_FLAG(huart, Flag) ? SET : RESET) == Status)
 80082d4:	e05d      	b.n	8008392 <UART_WaitOnFlagUntilTimeout+0xce>
  {
    /* Check for the Timeout */
    if (Timeout != HAL_MAX_DELAY)
 80082d6:	69bb      	ldr	r3, [r7, #24]
 80082d8:	3301      	adds	r3, #1
 80082da:	d05a      	beq.n	8008392 <UART_WaitOnFlagUntilTimeout+0xce>
    {
      if (((HAL_GetTick() - Tickstart) > Timeout) || (Timeout == 0U))
 80082dc:	f7fc f97c 	bl	80045d8 <HAL_GetTick>
 80082e0:	0002      	movs	r2, r0
 80082e2:	683b      	ldr	r3, [r7, #0]
 80082e4:	1ad3      	subs	r3, r2, r3
 80082e6:	69ba      	ldr	r2, [r7, #24]
 80082e8:	429a      	cmp	r2, r3
 80082ea:	d302      	bcc.n	80082f2 <UART_WaitOnFlagUntilTimeout+0x2e>
 80082ec:	69bb      	ldr	r3, [r7, #24]
 80082ee:	2b00      	cmp	r3, #0
 80082f0:	d11b      	bne.n	800832a <UART_WaitOnFlagUntilTimeout+0x66>
      {
        /* Disable TXE, RXNE, PE and ERR (Frame error, noise error, overrun error) interrupts for the interrupt process */
        CLEAR_BIT(huart->Instance->CR1, (USART_CR1_RXNEIE | USART_CR1_PEIE | USART_CR1_TXEIE));
 80082f2:	68fb      	ldr	r3, [r7, #12]
 80082f4:	681b      	ldr	r3, [r3, #0]
 80082f6:	681a      	ldr	r2, [r3, #0]
 80082f8:	68fb      	ldr	r3, [r7, #12]
 80082fa:	681b      	ldr	r3, [r3, #0]
 80082fc:	492f      	ldr	r1, [pc, #188]	; (80083bc <UART_WaitOnFlagUntilTimeout+0xf8>)
 80082fe:	400a      	ands	r2, r1
 8008300:	601a      	str	r2, [r3, #0]
        CLEAR_BIT(huart->Instance->CR3, USART_CR3_EIE);
 8008302:	68fb      	ldr	r3, [r7, #12]
 8008304:	681b      	ldr	r3, [r3, #0]
 8008306:	689a      	ldr	r2, [r3, #8]
 8008308:	68fb      	ldr	r3, [r7, #12]
 800830a:	681b      	ldr	r3, [r3, #0]
 800830c:	2101      	movs	r1, #1
 800830e:	438a      	bics	r2, r1
 8008310:	609a      	str	r2, [r3, #8]

        huart->gState = HAL_UART_STATE_READY;
 8008312:	68fb      	ldr	r3, [r7, #12]
 8008314:	2220      	movs	r2, #32
 8008316:	675a      	str	r2, [r3, #116]	; 0x74
        huart->RxState = HAL_UART_STATE_READY;
 8008318:	68fb      	ldr	r3, [r7, #12]
 800831a:	2220      	movs	r2, #32
 800831c:	679a      	str	r2, [r3, #120]	; 0x78

        __HAL_UNLOCK(huart);
 800831e:	68fb      	ldr	r3, [r7, #12]
 8008320:	2270      	movs	r2, #112	; 0x70
 8008322:	2100      	movs	r1, #0
 8008324:	5499      	strb	r1, [r3, r2]

        return HAL_TIMEOUT;
 8008326:	2303      	movs	r3, #3
 8008328:	e043      	b.n	80083b2 <UART_WaitOnFlagUntilTimeout+0xee>
      }

      if (READ_BIT(huart->Instance->CR1, USART_CR1_RE) != 0U)
 800832a:	68fb      	ldr	r3, [r7, #12]
 800832c:	681b      	ldr	r3, [r3, #0]
 800832e:	681b      	ldr	r3, [r3, #0]
 8008330:	2204      	movs	r2, #4
 8008332:	4013      	ands	r3, r2
 8008334:	d02d      	beq.n	8008392 <UART_WaitOnFlagUntilTimeout+0xce>
      {
        if (__HAL_UART_GET_FLAG(huart, UART_FLAG_RTOF) == SET)
 8008336:	68fb      	ldr	r3, [r7, #12]
 8008338:	681b      	ldr	r3, [r3, #0]
 800833a:	69da      	ldr	r2, [r3, #28]
 800833c:	2380      	movs	r3, #128	; 0x80
 800833e:	011b      	lsls	r3, r3, #4
 8008340:	401a      	ands	r2, r3
 8008342:	2380      	movs	r3, #128	; 0x80
 8008344:	011b      	lsls	r3, r3, #4
 8008346:	429a      	cmp	r2, r3
 8008348:	d123      	bne.n	8008392 <UART_WaitOnFlagUntilTimeout+0xce>
        {
          /* Clear Receiver Timeout flag*/
          __HAL_UART_CLEAR_FLAG(huart, UART_CLEAR_RTOF);
 800834a:	68fb      	ldr	r3, [r7, #12]
 800834c:	681b      	ldr	r3, [r3, #0]
 800834e:	2280      	movs	r2, #128	; 0x80
 8008350:	0112      	lsls	r2, r2, #4
 8008352:	621a      	str	r2, [r3, #32]
          
          /* Disable TXE, RXNE, PE and ERR (Frame error, noise error, overrun error) interrupts for the interrupt process */
          CLEAR_BIT(huart->Instance->CR1, (USART_CR1_RXNEIE | USART_CR1_PEIE | USART_CR1_TXEIE));
 8008354:	68fb      	ldr	r3, [r7, #12]
 8008356:	681b      	ldr	r3, [r3, #0]
 8008358:	681a      	ldr	r2, [r3, #0]
 800835a:	68fb      	ldr	r3, [r7, #12]
 800835c:	681b      	ldr	r3, [r3, #0]
 800835e:	4917      	ldr	r1, [pc, #92]	; (80083bc <UART_WaitOnFlagUntilTimeout+0xf8>)
 8008360:	400a      	ands	r2, r1
 8008362:	601a      	str	r2, [r3, #0]
          CLEAR_BIT(huart->Instance->CR3, USART_CR3_EIE);
 8008364:	68fb      	ldr	r3, [r7, #12]
 8008366:	681b      	ldr	r3, [r3, #0]
 8008368:	689a      	ldr	r2, [r3, #8]
 800836a:	68fb      	ldr	r3, [r7, #12]
 800836c:	681b      	ldr	r3, [r3, #0]
 800836e:	2101      	movs	r1, #1
 8008370:	438a      	bics	r2, r1
 8008372:	609a      	str	r2, [r3, #8]

          huart->gState = HAL_UART_STATE_READY;
 8008374:	68fb      	ldr	r3, [r7, #12]
 8008376:	2220      	movs	r2, #32
 8008378:	675a      	str	r2, [r3, #116]	; 0x74
          huart->RxState = HAL_UART_STATE_READY;
 800837a:	68fb      	ldr	r3, [r7, #12]
 800837c:	2220      	movs	r2, #32
 800837e:	679a      	str	r2, [r3, #120]	; 0x78
          huart->ErrorCode = HAL_UART_ERROR_RTO;
 8008380:	68fb      	ldr	r3, [r7, #12]
 8008382:	2220      	movs	r2, #32
 8008384:	67da      	str	r2, [r3, #124]	; 0x7c
          
          /* Process Unlocked */
          __HAL_UNLOCK(huart);
 8008386:	68fb      	ldr	r3, [r7, #12]
 8008388:	2270      	movs	r2, #112	; 0x70
 800838a:	2100      	movs	r1, #0
 800838c:	5499      	strb	r1, [r3, r2]
          
          return HAL_TIMEOUT;
 800838e:	2303      	movs	r3, #3
 8008390:	e00f      	b.n	80083b2 <UART_WaitOnFlagUntilTimeout+0xee>
  while ((__HAL_UART_GET_FLAG(huart, Flag) ? SET : RESET) == Status)
 8008392:	68fb      	ldr	r3, [r7, #12]
 8008394:	681b      	ldr	r3, [r3, #0]
 8008396:	69db      	ldr	r3, [r3, #28]
 8008398:	68ba      	ldr	r2, [r7, #8]
 800839a:	4013      	ands	r3, r2
 800839c:	68ba      	ldr	r2, [r7, #8]
 800839e:	1ad3      	subs	r3, r2, r3
 80083a0:	425a      	negs	r2, r3
 80083a2:	4153      	adcs	r3, r2
 80083a4:	b2db      	uxtb	r3, r3
 80083a6:	001a      	movs	r2, r3
 80083a8:	1dfb      	adds	r3, r7, #7
 80083aa:	781b      	ldrb	r3, [r3, #0]
 80083ac:	429a      	cmp	r2, r3
 80083ae:	d092      	beq.n	80082d6 <UART_WaitOnFlagUntilTimeout+0x12>
        }
      }
    }
  }
  return HAL_OK;
 80083b0:	2300      	movs	r3, #0
}
 80083b2:	0018      	movs	r0, r3
 80083b4:	46bd      	mov	sp, r7
 80083b6:	b004      	add	sp, #16
 80083b8:	bd80      	pop	{r7, pc}
 80083ba:	46c0      	nop			; (mov r8, r8)
 80083bc:	fffffe5f 	.word	0xfffffe5f

080083c0 <__libc_init_array>:
 80083c0:	b570      	push	{r4, r5, r6, lr}
 80083c2:	2600      	movs	r6, #0
 80083c4:	4d0c      	ldr	r5, [pc, #48]	; (80083f8 <__libc_init_array+0x38>)
 80083c6:	4c0d      	ldr	r4, [pc, #52]	; (80083fc <__libc_init_array+0x3c>)
 80083c8:	1b64      	subs	r4, r4, r5
 80083ca:	10a4      	asrs	r4, r4, #2
 80083cc:	42a6      	cmp	r6, r4
 80083ce:	d109      	bne.n	80083e4 <__libc_init_array+0x24>
 80083d0:	2600      	movs	r6, #0
 80083d2:	f000 f879 	bl	80084c8 <_init>
 80083d6:	4d0a      	ldr	r5, [pc, #40]	; (8008400 <__libc_init_array+0x40>)
 80083d8:	4c0a      	ldr	r4, [pc, #40]	; (8008404 <__libc_init_array+0x44>)
 80083da:	1b64      	subs	r4, r4, r5
 80083dc:	10a4      	asrs	r4, r4, #2
 80083de:	42a6      	cmp	r6, r4
 80083e0:	d105      	bne.n	80083ee <__libc_init_array+0x2e>
 80083e2:	bd70      	pop	{r4, r5, r6, pc}
 80083e4:	00b3      	lsls	r3, r6, #2
 80083e6:	58eb      	ldr	r3, [r5, r3]
 80083e8:	4798      	blx	r3
 80083ea:	3601      	adds	r6, #1
 80083ec:	e7ee      	b.n	80083cc <__libc_init_array+0xc>
 80083ee:	00b3      	lsls	r3, r6, #2
 80083f0:	58eb      	ldr	r3, [r5, r3]
 80083f2:	4798      	blx	r3
 80083f4:	3601      	adds	r6, #1
 80083f6:	e7f2      	b.n	80083de <__libc_init_array+0x1e>
 80083f8:	0800d550 	.word	0x0800d550
 80083fc:	0800d550 	.word	0x0800d550
 8008400:	0800d550 	.word	0x0800d550
 8008404:	0800d554 	.word	0x0800d554

08008408 <__itoa>:
 8008408:	1e93      	subs	r3, r2, #2
 800840a:	b510      	push	{r4, lr}
 800840c:	000c      	movs	r4, r1
 800840e:	2b22      	cmp	r3, #34	; 0x22
 8008410:	d904      	bls.n	800841c <__itoa+0x14>
 8008412:	2300      	movs	r3, #0
 8008414:	001c      	movs	r4, r3
 8008416:	700b      	strb	r3, [r1, #0]
 8008418:	0020      	movs	r0, r4
 800841a:	bd10      	pop	{r4, pc}
 800841c:	2a0a      	cmp	r2, #10
 800841e:	d109      	bne.n	8008434 <__itoa+0x2c>
 8008420:	2800      	cmp	r0, #0
 8008422:	da07      	bge.n	8008434 <__itoa+0x2c>
 8008424:	232d      	movs	r3, #45	; 0x2d
 8008426:	700b      	strb	r3, [r1, #0]
 8008428:	2101      	movs	r1, #1
 800842a:	4240      	negs	r0, r0
 800842c:	1861      	adds	r1, r4, r1
 800842e:	f000 f80f 	bl	8008450 <__utoa>
 8008432:	e7f1      	b.n	8008418 <__itoa+0x10>
 8008434:	2100      	movs	r1, #0
 8008436:	e7f9      	b.n	800842c <__itoa+0x24>

08008438 <itoa>:
 8008438:	b510      	push	{r4, lr}
 800843a:	f7ff ffe5 	bl	8008408 <__itoa>
 800843e:	bd10      	pop	{r4, pc}

08008440 <memset>:
 8008440:	0003      	movs	r3, r0
 8008442:	1812      	adds	r2, r2, r0
 8008444:	4293      	cmp	r3, r2
 8008446:	d100      	bne.n	800844a <memset+0xa>
 8008448:	4770      	bx	lr
 800844a:	7019      	strb	r1, [r3, #0]
 800844c:	3301      	adds	r3, #1
 800844e:	e7f9      	b.n	8008444 <memset+0x4>

08008450 <__utoa>:
 8008450:	b5f0      	push	{r4, r5, r6, r7, lr}
 8008452:	0017      	movs	r7, r2
 8008454:	b08d      	sub	sp, #52	; 0x34
 8008456:	2225      	movs	r2, #37	; 0x25
 8008458:	0006      	movs	r6, r0
 800845a:	000d      	movs	r5, r1
 800845c:	a802      	add	r0, sp, #8
 800845e:	4914      	ldr	r1, [pc, #80]	; (80084b0 <__utoa+0x60>)
 8008460:	f000 f828 	bl	80084b4 <memcpy>
 8008464:	aa02      	add	r2, sp, #8
 8008466:	1ebb      	subs	r3, r7, #2
 8008468:	2400      	movs	r4, #0
 800846a:	9201      	str	r2, [sp, #4]
 800846c:	2b22      	cmp	r3, #34	; 0x22
 800846e:	d905      	bls.n	800847c <__utoa+0x2c>
 8008470:	702c      	strb	r4, [r5, #0]
 8008472:	0025      	movs	r5, r4
 8008474:	0028      	movs	r0, r5
 8008476:	b00d      	add	sp, #52	; 0x34
 8008478:	bdf0      	pop	{r4, r5, r6, r7, pc}
 800847a:	0014      	movs	r4, r2
 800847c:	0030      	movs	r0, r6
 800847e:	0039      	movs	r1, r7
 8008480:	f7f7 fec8 	bl	8000214 <__aeabi_uidivmod>
 8008484:	4684      	mov	ip, r0
 8008486:	9801      	ldr	r0, [sp, #4]
 8008488:	1c62      	adds	r2, r4, #1
 800848a:	18ab      	adds	r3, r5, r2
 800848c:	5c41      	ldrb	r1, [r0, r1]
 800848e:	1e5e      	subs	r6, r3, #1
 8008490:	7031      	strb	r1, [r6, #0]
 8008492:	4666      	mov	r6, ip
 8008494:	2e00      	cmp	r6, #0
 8008496:	d1f0      	bne.n	800847a <__utoa+0x2a>
 8008498:	701e      	strb	r6, [r3, #0]
 800849a:	002b      	movs	r3, r5
 800849c:	1b5a      	subs	r2, r3, r5
 800849e:	4294      	cmp	r4, r2
 80084a0:	dde8      	ble.n	8008474 <__utoa+0x24>
 80084a2:	781a      	ldrb	r2, [r3, #0]
 80084a4:	5d29      	ldrb	r1, [r5, r4]
 80084a6:	7019      	strb	r1, [r3, #0]
 80084a8:	552a      	strb	r2, [r5, r4]
 80084aa:	3301      	adds	r3, #1
 80084ac:	3c01      	subs	r4, #1
 80084ae:	e7f5      	b.n	800849c <__utoa+0x4c>
 80084b0:	0800d528 	.word	0x0800d528

080084b4 <memcpy>:
 80084b4:	2300      	movs	r3, #0
 80084b6:	b510      	push	{r4, lr}
 80084b8:	429a      	cmp	r2, r3
 80084ba:	d100      	bne.n	80084be <memcpy+0xa>
 80084bc:	bd10      	pop	{r4, pc}
 80084be:	5ccc      	ldrb	r4, [r1, r3]
 80084c0:	54c4      	strb	r4, [r0, r3]
 80084c2:	3301      	adds	r3, #1
 80084c4:	e7f8      	b.n	80084b8 <memcpy+0x4>
	...

080084c8 <_init>:
 80084c8:	b5f8      	push	{r3, r4, r5, r6, r7, lr}
 80084ca:	46c0      	nop			; (mov r8, r8)
 80084cc:	bcf8      	pop	{r3, r4, r5, r6, r7}
 80084ce:	bc08      	pop	{r3}
 80084d0:	469e      	mov	lr, r3
 80084d2:	4770      	bx	lr

080084d4 <_fini>:
 80084d4:	b5f8      	push	{r3, r4, r5, r6, r7, lr}
 80084d6:	46c0      	nop			; (mov r8, r8)
 80084d8:	bcf8      	pop	{r3, r4, r5, r6, r7}
 80084da:	bc08      	pop	{r3}
 80084dc:	469e      	mov	lr, r3
 80084de:	4770      	bx	lr
